; ModuleID = '../../../lib//stg.cpp'
source_filename = "../../../lib//stg.cpp"
target datalayout = "e-m:o-i64:64-f80:128-n8:16:32:64-S128"
target triple = "x86_64-apple-macosx10.14.0"

%"class.std::__1::map" = type { %"class.std::__1::__tree" }
%"class.std::__1::__tree" = type { %"class.std::__1::__tree_end_node"*, %"class.std::__1::__compressed_pair", %"class.std::__1::__compressed_pair.1" }
%"class.std::__1::__tree_end_node" = type { %"class.std::__1::__tree_node_base"* }
%"class.std::__1::__tree_node_base" = type <{ %"class.std::__1::__tree_end_node", %"class.std::__1::__tree_node_base"*, %"class.std::__1::__tree_end_node"*, i8, [7 x i8] }>
%"class.std::__1::__compressed_pair" = type { %"struct.std::__1::__compressed_pair_elem" }
%"struct.std::__1::__compressed_pair_elem" = type { %"class.std::__1::__tree_end_node" }
%"class.std::__1::__compressed_pair.1" = type { %"struct.std::__1::__compressed_pair_elem.2" }
%"struct.std::__1::__compressed_pair_elem.2" = type { i64 }
%"class.std::__1::basic_string" = type { %"class.std::__1::__compressed_pair.4" }
%"class.std::__1::__compressed_pair.4" = type { %"struct.std::__1::__compressed_pair_elem.5" }
%"struct.std::__1::__compressed_pair_elem.5" = type { %"struct.std::__1::basic_string<char, std::__1::char_traits<char>, std::__1::allocator<char> >::__rep" }
%"struct.std::__1::basic_string<char, std::__1::char_traits<char>, std::__1::allocator<char> >::__rep" = type { %union.anon }
%union.anon = type { %"struct.std::__1::basic_string<char, std::__1::char_traits<char>, std::__1::allocator<char> >::__long" }
%"struct.std::__1::basic_string<char, std::__1::char_traits<char>, std::__1::allocator<char> >::__long" = type { i64, i64, i8* }
%"class.std::__1::basic_ofstream" = type { %"class.std::__1::basic_ostream.base", %"class.std::__1::basic_filebuf", %"class.std::__1::basic_ios.base" }
%"class.std::__1::basic_ostream.base" = type { i32 (...)** }
%"class.std::__1::basic_filebuf" = type <{ %"class.std::__1::basic_streambuf", i8*, i8*, i8*, [8 x i8], i64, i8*, i64, %struct.__sFILE*, %"class.std::__1::codecvt"*, %union.__mbstate_t, %union.__mbstate_t, i32, i32, i8, i8, i8, [5 x i8] }>
%"class.std::__1::basic_streambuf" = type { i32 (...)**, %"class.std::__1::locale", i8*, i8*, i8*, i8*, i8*, i8* }
%"class.std::__1::locale" = type { %"class.std::__1::locale::__imp"* }
%"class.std::__1::locale::__imp" = type opaque
%struct.__sFILE = type { i8*, i32, i32, i16, i16, %struct.__sbuf, i32, i8*, i32 (i8*)*, i32 (i8*, i8*, i32)*, i64 (i8*, i64, i32)*, i32 (i8*, i8*, i32)*, %struct.__sbuf, %struct.__sFILEX*, i32, [3 x i8], [1 x i8], %struct.__sbuf, i32, i64 }
%struct.__sFILEX = type opaque
%struct.__sbuf = type { i8*, i32 }
%"class.std::__1::codecvt" = type { %"class.std::__1::locale::facet" }
%"class.std::__1::locale::facet" = type { %"class.std::__1::__shared_count" }
%"class.std::__1::__shared_count" = type { i32 (...)**, i64 }
%union.__mbstate_t = type { i64, [120 x i8] }
%"class.std::__1::basic_ios.base" = type <{ %"class.std::__1::ios_base", %"class.std::__1::basic_ostream"*, i32 }>
%"class.std::__1::ios_base" = type { i32 (...)**, i32, i64, i64, i32, i32, i8*, i8*, void (i32, %"class.std::__1::ios_base"*, i32)**, i32*, i64, i64, i64*, i64, i64, i8**, i64, i64 }
%"class.std::__1::basic_ostream" = type { i32 (...)**, %"class.std::__1::basic_ios.base" }
%"class.std::__1::locale::id" = type <{ %"struct.std::__1::once_flag", i32, [4 x i8] }>
%"struct.std::__1::once_flag" = type { i64 }
%"struct.std::__1::piecewise_construct_t" = type { i8 }
%"class.std::__1::basic_ios" = type <{ %"class.std::__1::ios_base", %"class.std::__1::basic_ostream"*, i32, [4 x i8] }>
%"class.std::__1::basic_stringstream" = type { %"class.std::__1::basic_iostream.base", %"class.std::__1::basic_stringbuf", %"class.std::__1::basic_ios.base" }
%"class.std::__1::basic_iostream.base" = type { %"class.std::__1::basic_istream.base", %"class.std::__1::basic_ostream.base" }
%"class.std::__1::basic_istream.base" = type { i32 (...)**, i64 }
%"class.std::__1::basic_stringbuf" = type <{ %"class.std::__1::basic_streambuf", %"class.std::__1::basic_string", i8*, i32, [4 x i8] }>
%"class.std::__1::basic_iostream" = type { %"class.std::__1::basic_istream.base", %"class.std::__1::basic_ostream.base", %"class.std::__1::basic_ios.base" }
%"struct.std::__1::pair.16" = type <{ %"class.std::__1::__tree_iterator", i8, [7 x i8] }>
%"class.std::__1::__tree_iterator" = type { %"class.std::__1::__tree_end_node"* }
%"class.std::__1::tuple" = type { %"struct.std::__1::__tuple_impl" }
%"struct.std::__1::__tuple_impl" = type { %"class.std::__1::__tuple_leaf" }
%"class.std::__1::__tuple_leaf" = type { %"class.std::__1::basic_string"* }
%"class.std::__1::tuple.17" = type { i8 }
%"struct.std::__1::__value_type" = type { %"struct.std::__1::pair" }
%"struct.std::__1::pair" = type { %"class.std::__1::basic_string", %"class.std::__1::basic_string" }
%"class.std::__1::__map_iterator" = type { %"class.std::__1::__tree_iterator" }
%"class.std::__1::tuple.24" = type { %"struct.std::__1::__tuple_impl.25" }
%"struct.std::__1::__tuple_impl.25" = type { %"class.std::__1::__tuple_leaf.26" }
%"class.std::__1::__tuple_leaf.26" = type { %"class.std::__1::basic_string"* }
%"struct.std::__1::integral_constant.15" = type { i8 }
%"class.std::__1::allocator.8" = type { i8 }
%"class.std::__1::__tree_node" = type { %"class.std::__1::__tree_node_base.base", %"struct.std::__1::__value_type" }
%"class.std::__1::__tree_node_base.base" = type <{ %"class.std::__1::__tree_end_node", %"class.std::__1::__tree_node_base"*, %"class.std::__1::__tree_end_node"*, i8 }>
%"class.std::__1::allocator" = type { i8 }
%"struct.std::__1::integral_constant" = type { i8 }
%"struct.std::__1::__has_destroy" = type { i8 }
%"struct.std::__1::__compressed_pair_elem.0" = type { i8 }
%"class.std::__1::unique_ptr" = type { %"class.std::__1::__compressed_pair.10" }
%"class.std::__1::__compressed_pair.10" = type { %"struct.std::__1::__compressed_pair_elem.11", %"struct.std::__1::__compressed_pair_elem.12" }
%"struct.std::__1::__compressed_pair_elem.11" = type { %struct.__sFILE* }
%"struct.std::__1::__compressed_pair_elem.12" = type { i32 (%struct.__sFILE*)* }
%"class.std::__1::fpos" = type { %union.__mbstate_t, i64 }
%"struct.std::__1::__less" = type { i8 }
%"class.std::bad_cast" = type { %"class.std::exception" }
%"class.std::exception" = type { i32 (...)** }
%"struct.std::__1::__less.13" = type { i8 }
%"class.std::__1::basic_istream" = type { i32 (...)**, i64, %"class.std::__1::basic_ios.base" }
%"struct.std::__1::basic_string<char, std::__1::char_traits<char>, std::__1::allocator<char> >::__short" = type { %union.anon.6, [23 x i8] }
%union.anon.6 = type { i8 }
%"struct.std::__1::__less.14" = type { i8 }
%"class.std::__1::__map_value_compare" = type { i8 }
%"struct.std::__1::less" = type { i8 }
%"struct.std::__1::__compressed_pair_elem.3" = type { i8 }
%"class.std::__1::__basic_string_common" = type { i8 }
%"struct.std::__1::basic_string<char, std::__1::char_traits<char>, std::__1::allocator<char> >::__raw" = type { [3 x i64] }
%"struct.std::__1::__compressed_pair_elem.7" = type { i8 }
%"struct.std::__1::__second_tag" = type { i8 }
%"struct.std::__1::random_access_iterator_tag" = type { i8 }
%"struct.std::__1::__has_max_size" = type { i8 }
%"class.std::length_error" = type { %"class.std::logic_error" }
%"class.std::logic_error" = type { %"class.std::exception", %"class.std::__1::__libcpp_refstring" }
%"class.std::__1::__libcpp_refstring" = type { i8* }
%"class.std::__1::unique_ptr.18" = type { %"class.std::__1::__compressed_pair.19" }
%"class.std::__1::__compressed_pair.19" = type { %"struct.std::__1::__compressed_pair_elem.20", %"struct.std::__1::__compressed_pair_elem.21" }
%"struct.std::__1::__compressed_pair_elem.20" = type { %"class.std::__1::__tree_node"* }
%"struct.std::__1::__compressed_pair_elem.21" = type { %"class.std::__1::__tree_node_destructor" }
%"class.std::__1::__tree_node_destructor" = type <{ %"class.std::__1::allocator"*, i8, [7 x i8] }>
%"class.std::__1::basic_string_view" = type { i8*, i64 }
%"struct.std::__1::__has_construct" = type { i8 }
%"struct.std::__1::__tuple_indices" = type { i8 }
%"struct.std::__1::__tuple_indices.22" = type { i8 }
%"struct.std::__1::__tuple_types" = type { i8 }
%"struct.std::__1::__tuple_types.23" = type { i8 }
%"class.std::__1::basic_ostream<char, std::__1::char_traits<char> >::sentry" = type { i8, %"class.std::__1::basic_ostream"* }
%"class.std::__1::ostreambuf_iterator" = type { %"class.std::__1::basic_streambuf"* }
%"struct.std::__1::iterator" = type { i8 }
%"class.std::__1::ctype" = type <{ %"class.std::__1::locale::facet", i32*, i8, [7 x i8] }>
%"struct.std::__1::__has_construct.27" = type { i8 }
%"struct.std::__1::__tuple_types.28" = type { i8 }

@sym_state = global %"class.std::__1::map" zeroinitializer, align 8
@__dso_handle = external hidden global i8
@sym_var_map = global %"class.std::__1::map" zeroinitializer, align 8
@path_conditions = global %"class.std::__1::map" zeroinitializer, align 8
@testcount = global i32 0, align 4
@path_condition_count = global i32 0, align 4
@path_condition = global %"class.std::__1::basic_string" zeroinitializer, align 8
@output_dir = global %"class.std::__1::basic_string" zeroinitializer, align 8
@outputDirCreated = global i8 0, align 1
@needComma = global i8 0, align 1
@fileCreated = global i8 0, align 1
@stg_state = global %"class.std::__1::basic_ofstream" zeroinitializer, align 8
@stg_pc = global %"class.std::__1::basic_ofstream" zeroinitializer, align 8
@prev_bb = global %"class.std::__1::basic_string" zeroinitializer, align 8
@pause_recording = global i8 0, align 1
@.str = private unnamed_addr constant [3 x i8] c"v(\00", align 1
@.str.8 = private unnamed_addr constant [2 x i8] c")\00", align 1
@.str.9 = private unnamed_addr constant [7 x i8] c"state[\00", align 1
@.str.10 = private unnamed_addr constant [6 x i8] c" --> \00", align 1
@.str.11 = private unnamed_addr constant [3 x i8] c"]\0A\00", align 1
@.str.12 = private unnamed_addr constant [3 x i8] c",\0A\00", align 1
@.str.13 = private unnamed_addr constant [7 x i8] c" : i32\00", align 1
@.str.14 = private unnamed_addr constant [9 x i8] c" : float\00", align 1
@.str.15 = private unnamed_addr constant [10 x i8] c" : double\00", align 1
@.str.16 = private unnamed_addr constant [4 x i8] c"int\00", align 1
@.str.17 = private unnamed_addr constant [6 x i8] c"float\00", align 1
@.str.18 = private unnamed_addr constant [7 x i8] c"s= %d\0A\00", align 1
@.str.19 = private unnamed_addr constant [5 x i8] c"%s%d\00", align 1
@.str.20 = private unnamed_addr constant [7 x i8] c"double\00", align 1
@.str.21 = private unnamed_addr constant [2 x i8] c"(\00", align 1
@.str.22 = private unnamed_addr constant [2 x i8] c" \00", align 1
@.str.23 = private unnamed_addr constant [6 x i8] c"(lnot\00", align 1
@.str.24 = private unnamed_addr constant [3 x i8] c"PC\00", align 1
@.str.25 = private unnamed_addr constant [6 x i8] c"(i32 \00", align 1
@_ZNSt3__14coutE = external global %"class.std::__1::basic_ostream", align 8
@.str.26 = private unnamed_addr constant [5 x i8] c"--> \00", align 1
@.str.27 = private unnamed_addr constant [2 x i8] c"\0A\00", align 1
@.str.28 = private unnamed_addr constant [4 x i8] c" : \00", align 1
@.str.29 = private unnamed_addr constant [3 x i8] c"( \00", align 1
@.str.30 = private unnamed_addr constant [4 x i8] c"i32\00", align 1
@.str.31 = private unnamed_addr constant [4 x i8] c"i64\00", align 1
@.str.32 = private unnamed_addr constant [6 x i8] c"(i64 \00", align 1
@.str.33 = private unnamed_addr constant [5 x i8] c"(i1 \00", align 1
@.str.34 = private unnamed_addr constant [5 x i8] c"(i8 \00", align 1
@.str.35 = private unnamed_addr constant [9 x i8] c"(double \00", align 1
@.str.36 = private unnamed_addr constant [8 x i8] c"(float \00", align 1
@.str.37 = private unnamed_addr constant [2 x i8] c"1\00", align 1
@.str.38 = private unnamed_addr constant [2 x i8] c"0\00", align 1
@.str.39 = private unnamed_addr constant [2 x i8] c",\00", align 1
@.str.40 = private unnamed_addr constant [9 x i8] c"stg-out-\00", align 1
@.str.41 = private unnamed_addr constant [16 x i8] c"output folder :\00", align 1
@__func__.stg_begin_test = private unnamed_addr constant [15 x i8] c"stg_begin_test\00", align 1
@.str.42 = private unnamed_addr constant [22 x i8] c"../../../lib//stg.cpp\00", align 1
@.str.43 = private unnamed_addr constant [17 x i8] c"outputDirCreated\00", align 1
@.str.44 = private unnamed_addr constant [2 x i8] c"/\00", align 1
@.str.45 = private unnamed_addr constant [11 x i8] c"stg_state_\00", align 1
@.str.46 = private unnamed_addr constant [5 x i8] c".txt\00", align 1
@.str.47 = private unnamed_addr constant [8 x i8] c"stg_pc_\00", align 1
@.str.48 = private unnamed_addr constant [5 x i8] c".stg\00", align 1
@.str.49 = private unnamed_addr constant [3 x i8] c"[\0A\00", align 1
@.str.50 = private unnamed_addr constant [3 x i8] c"  \00", align 1
@.str.51 = private unnamed_addr constant [7 x i8] c"(land\0A\00", align 1
@.str.52 = private unnamed_addr constant [3 x i8] c")\0A\00", align 1
@.str.53 = private unnamed_addr constant [4 x i8] c"]\0A\0A\00", align 1
@.str.54 = private unnamed_addr constant [9 x i8] c"//Test: \00", align 1
@.str.55 = private unnamed_addr constant [7 x i8] c"passed\00", align 1
@.str.56 = private unnamed_addr constant [7 x i8] c"failed\00", align 1
@.str.57 = private unnamed_addr constant [1 x i8] zeroinitializer, align 1
@.str.58 = private unnamed_addr constant [3 x i8] c": \00", align 1
@_ZTVNSt3__114basic_ofstreamIcNS_11char_traitsIcEEEE = linkonce_odr unnamed_addr constant { [5 x i8*], [5 x i8*] } { [5 x i8*] [i8* inttoptr (i64 416 to i8*), i8* null, i8* bitcast ({ i8*, i8*, i8* }* @_ZTINSt3__114basic_ofstreamIcNS_11char_traitsIcEEEE to i8*), i8* bitcast (void (%"class.std::__1::basic_ofstream"*)* @_ZNSt3__114basic_ofstreamIcNS_11char_traitsIcEEED1Ev to i8*), i8* bitcast (void (%"class.std::__1::basic_ofstream"*)* @_ZNSt3__114basic_ofstreamIcNS_11char_traitsIcEEED0Ev to i8*)], [5 x i8*] [i8* inttoptr (i64 -416 to i8*), i8* inttoptr (i64 -416 to i8*), i8* bitcast ({ i8*, i8*, i8* }* @_ZTINSt3__114basic_ofstreamIcNS_11char_traitsIcEEEE to i8*), i8* bitcast (void (%"class.std::__1::basic_ofstream"*)* @_ZTv0_n24_NSt3__114basic_ofstreamIcNS_11char_traitsIcEEED1Ev to i8*), i8* bitcast (void (%"class.std::__1::basic_ofstream"*)* @_ZTv0_n24_NSt3__114basic_ofstreamIcNS_11char_traitsIcEEED0Ev to i8*)] }, align 8
@_ZTTNSt3__114basic_ofstreamIcNS_11char_traitsIcEEEE = linkonce_odr unnamed_addr constant [4 x i8*] [i8* bitcast (i8** getelementptr inbounds ({ [5 x i8*], [5 x i8*] }, { [5 x i8*], [5 x i8*] }* @_ZTVNSt3__114basic_ofstreamIcNS_11char_traitsIcEEEE, i32 0, inrange i32 0, i32 3) to i8*), i8* bitcast (i8** getelementptr inbounds ({ [5 x i8*], [5 x i8*] }, { [5 x i8*], [5 x i8*] }* @_ZTCNSt3__114basic_ofstreamIcNS_11char_traitsIcEEEE0_NS_13basic_ostreamIcS2_EE, i32 0, inrange i32 0, i32 3) to i8*), i8* bitcast (i8** getelementptr inbounds ({ [5 x i8*], [5 x i8*] }, { [5 x i8*], [5 x i8*] }* @_ZTCNSt3__114basic_ofstreamIcNS_11char_traitsIcEEEE0_NS_13basic_ostreamIcS2_EE, i32 0, inrange i32 1, i32 3) to i8*), i8* bitcast (i8** getelementptr inbounds ({ [5 x i8*], [5 x i8*] }, { [5 x i8*], [5 x i8*] }* @_ZTVNSt3__114basic_ofstreamIcNS_11char_traitsIcEEEE, i32 0, inrange i32 1, i32 3) to i8*)]
@_ZTCNSt3__114basic_ofstreamIcNS_11char_traitsIcEEEE0_NS_13basic_ostreamIcS2_EE = linkonce_odr unnamed_addr constant { [5 x i8*], [5 x i8*] } { [5 x i8*] [i8* inttoptr (i64 416 to i8*), i8* null, i8* bitcast (i8** @_ZTINSt3__113basic_ostreamIcNS_11char_traitsIcEEEE to i8*), i8* bitcast (void (%"class.std::__1::basic_ostream"*)* @_ZNSt3__113basic_ostreamIcNS_11char_traitsIcEEED1Ev to i8*), i8* bitcast (void (%"class.std::__1::basic_ostream"*)* @_ZNSt3__113basic_ostreamIcNS_11char_traitsIcEEED0Ev to i8*)], [5 x i8*] [i8* inttoptr (i64 -416 to i8*), i8* inttoptr (i64 -416 to i8*), i8* bitcast (i8** @_ZTINSt3__113basic_ostreamIcNS_11char_traitsIcEEEE to i8*), i8* bitcast (void (%"class.std::__1::basic_ostream"*)* @_ZTv0_n24_NSt3__113basic_ostreamIcNS_11char_traitsIcEEED1Ev to i8*), i8* bitcast (void (%"class.std::__1::basic_ostream"*)* @_ZTv0_n24_NSt3__113basic_ostreamIcNS_11char_traitsIcEEED0Ev to i8*)] }
@_ZTINSt3__113basic_ostreamIcNS_11char_traitsIcEEEE = external constant i8*
@_ZTVN10__cxxabiv120__si_class_type_infoE = external global i8*
@_ZTSNSt3__114basic_ofstreamIcNS_11char_traitsIcEEEE = linkonce_odr constant [48 x i8] c"NSt3__114basic_ofstreamIcNS_11char_traitsIcEEEE\00"
@_ZTINSt3__114basic_ofstreamIcNS_11char_traitsIcEEEE = linkonce_odr constant { i8*, i8*, i8* } { i8* bitcast (i8** getelementptr inbounds (i8*, i8** @_ZTVN10__cxxabiv120__si_class_type_infoE, i64 2) to i8*), i8* getelementptr inbounds ([48 x i8], [48 x i8]* @_ZTSNSt3__114basic_ofstreamIcNS_11char_traitsIcEEEE, i32 0, i32 0), i8* bitcast (i8** @_ZTINSt3__113basic_ostreamIcNS_11char_traitsIcEEEE to i8*) }
@_ZTVNSt3__113basic_filebufIcNS_11char_traitsIcEEEE = linkonce_odr unnamed_addr constant { [16 x i8*] } { [16 x i8*] [i8* null, i8* bitcast ({ i8*, i8*, i8* }* @_ZTINSt3__113basic_filebufIcNS_11char_traitsIcEEEE to i8*), i8* bitcast (void (%"class.std::__1::basic_filebuf"*)* @_ZNSt3__113basic_filebufIcNS_11char_traitsIcEEED1Ev to i8*), i8* bitcast (void (%"class.std::__1::basic_filebuf"*)* @_ZNSt3__113basic_filebufIcNS_11char_traitsIcEEED0Ev to i8*), i8* bitcast (void (%"class.std::__1::basic_filebuf"*, %"class.std::__1::locale"*)* @_ZNSt3__113basic_filebufIcNS_11char_traitsIcEEE5imbueERKNS_6localeE to i8*), i8* bitcast (%"class.std::__1::basic_streambuf"* (%"class.std::__1::basic_filebuf"*, i8*, i64)* @_ZNSt3__113basic_filebufIcNS_11char_traitsIcEEE6setbufEPcl to i8*), i8* bitcast (void (%"class.std::__1::fpos"*, %"class.std::__1::basic_filebuf"*, i64, i32, i32)* @_ZNSt3__113basic_filebufIcNS_11char_traitsIcEEE7seekoffExNS_8ios_base7seekdirEj to i8*), i8* bitcast (void (%"class.std::__1::fpos"*, %"class.std::__1::basic_filebuf"*, %"class.std::__1::fpos"*, i32)* @_ZNSt3__113basic_filebufIcNS_11char_traitsIcEEE7seekposENS_4fposI11__mbstate_tEEj to i8*), i8* bitcast (i32 (%"class.std::__1::basic_filebuf"*)* @_ZNSt3__113basic_filebufIcNS_11char_traitsIcEEE4syncEv to i8*), i8* bitcast (i64 (%"class.std::__1::basic_streambuf"*)* @_ZNSt3__115basic_streambufIcNS_11char_traitsIcEEE9showmanycEv to i8*), i8* bitcast (i64 (%"class.std::__1::basic_streambuf"*, i8*, i64)* @_ZNSt3__115basic_streambufIcNS_11char_traitsIcEEE6xsgetnEPcl to i8*), i8* bitcast (i32 (%"class.std::__1::basic_filebuf"*)* @_ZNSt3__113basic_filebufIcNS_11char_traitsIcEEE9underflowEv to i8*), i8* bitcast (i32 (%"class.std::__1::basic_streambuf"*)* @_ZNSt3__115basic_streambufIcNS_11char_traitsIcEEE5uflowEv to i8*), i8* bitcast (i32 (%"class.std::__1::basic_filebuf"*, i32)* @_ZNSt3__113basic_filebufIcNS_11char_traitsIcEEE9pbackfailEi to i8*), i8* bitcast (i64 (%"class.std::__1::basic_streambuf"*, i8*, i64)* @_ZNSt3__115basic_streambufIcNS_11char_traitsIcEEE6xsputnEPKcl to i8*), i8* bitcast (i32 (%"class.std::__1::basic_filebuf"*, i32)* @_ZNSt3__113basic_filebufIcNS_11char_traitsIcEEE8overflowEi to i8*)] }, align 8
@_ZTSNSt3__113basic_filebufIcNS_11char_traitsIcEEEE = linkonce_odr constant [47 x i8] c"NSt3__113basic_filebufIcNS_11char_traitsIcEEEE\00"
@_ZTINSt3__115basic_streambufIcNS_11char_traitsIcEEEE = external constant i8*
@_ZTINSt3__113basic_filebufIcNS_11char_traitsIcEEEE = linkonce_odr constant { i8*, i8*, i8* } { i8* bitcast (i8** getelementptr inbounds (i8*, i8** @_ZTVN10__cxxabiv120__si_class_type_infoE, i64 2) to i8*), i8* getelementptr inbounds ([47 x i8], [47 x i8]* @_ZTSNSt3__113basic_filebufIcNS_11char_traitsIcEEEE, i32 0, i32 0), i8* bitcast (i8** @_ZTINSt3__115basic_streambufIcNS_11char_traitsIcEEEE to i8*) }
@_ZNSt3__17codecvtIcc11__mbstate_tE2idE = external global %"class.std::__1::locale::id", align 8
@_ZTISt8bad_cast = external constant i8*
@_ZTVNSt3__118basic_stringstreamIcNS_11char_traitsIcEENS_9allocatorIcEEEE = linkonce_odr unnamed_addr constant { [5 x i8*], [5 x i8*], [5 x i8*] } { [5 x i8*] [i8* inttoptr (i64 128 to i8*), i8* null, i8* bitcast ({ i8*, i8*, i8* }* @_ZTINSt3__118basic_stringstreamIcNS_11char_traitsIcEENS_9allocatorIcEEEE to i8*), i8* bitcast (void (%"class.std::__1::basic_stringstream"*)* @_ZNSt3__118basic_stringstreamIcNS_11char_traitsIcEENS_9allocatorIcEEED1Ev to i8*), i8* bitcast (void (%"class.std::__1::basic_stringstream"*)* @_ZNSt3__118basic_stringstreamIcNS_11char_traitsIcEENS_9allocatorIcEEED0Ev to i8*)], [5 x i8*] [i8* inttoptr (i64 112 to i8*), i8* inttoptr (i64 -16 to i8*), i8* bitcast ({ i8*, i8*, i8* }* @_ZTINSt3__118basic_stringstreamIcNS_11char_traitsIcEENS_9allocatorIcEEEE to i8*), i8* bitcast (void (%"class.std::__1::basic_stringstream"*)* @_ZThn16_NSt3__118basic_stringstreamIcNS_11char_traitsIcEENS_9allocatorIcEEED1Ev to i8*), i8* bitcast (void (%"class.std::__1::basic_stringstream"*)* @_ZThn16_NSt3__118basic_stringstreamIcNS_11char_traitsIcEENS_9allocatorIcEEED0Ev to i8*)], [5 x i8*] [i8* inttoptr (i64 -128 to i8*), i8* inttoptr (i64 -128 to i8*), i8* bitcast ({ i8*, i8*, i8* }* @_ZTINSt3__118basic_stringstreamIcNS_11char_traitsIcEENS_9allocatorIcEEEE to i8*), i8* bitcast (void (%"class.std::__1::basic_stringstream"*)* @_ZTv0_n24_NSt3__118basic_stringstreamIcNS_11char_traitsIcEENS_9allocatorIcEEED1Ev to i8*), i8* bitcast (void (%"class.std::__1::basic_stringstream"*)* @_ZTv0_n24_NSt3__118basic_stringstreamIcNS_11char_traitsIcEENS_9allocatorIcEEED0Ev to i8*)] }, align 8
@_ZTTNSt3__118basic_stringstreamIcNS_11char_traitsIcEENS_9allocatorIcEEEE = linkonce_odr unnamed_addr constant [10 x i8*] [i8* bitcast (i8** getelementptr inbounds ({ [5 x i8*], [5 x i8*], [5 x i8*] }, { [5 x i8*], [5 x i8*], [5 x i8*] }* @_ZTVNSt3__118basic_stringstreamIcNS_11char_traitsIcEENS_9allocatorIcEEEE, i32 0, inrange i32 0, i32 3) to i8*), i8* bitcast (i8** getelementptr inbounds ({ [5 x i8*], [5 x i8*], [5 x i8*] }, { [5 x i8*], [5 x i8*], [5 x i8*] }* @_ZTCNSt3__118basic_stringstreamIcNS_11char_traitsIcEENS_9allocatorIcEEEE0_NS_14basic_iostreamIcS2_EE, i32 0, inrange i32 0, i32 3) to i8*), i8* bitcast (i8** getelementptr inbounds ({ [5 x i8*], [5 x i8*] }, { [5 x i8*], [5 x i8*] }* @_ZTCNSt3__118basic_stringstreamIcNS_11char_traitsIcEENS_9allocatorIcEEEE0_NS_13basic_istreamIcS2_EE, i32 0, inrange i32 0, i32 3) to i8*), i8* bitcast (i8** getelementptr inbounds ({ [5 x i8*], [5 x i8*] }, { [5 x i8*], [5 x i8*] }* @_ZTCNSt3__118basic_stringstreamIcNS_11char_traitsIcEENS_9allocatorIcEEEE0_NS_13basic_istreamIcS2_EE, i32 0, inrange i32 1, i32 3) to i8*), i8* bitcast (i8** getelementptr inbounds ({ [5 x i8*], [5 x i8*] }, { [5 x i8*], [5 x i8*] }* @_ZTCNSt3__118basic_stringstreamIcNS_11char_traitsIcEENS_9allocatorIcEEEE16_NS_13basic_ostreamIcS2_EE, i32 0, inrange i32 0, i32 3) to i8*), i8* bitcast (i8** getelementptr inbounds ({ [5 x i8*], [5 x i8*] }, { [5 x i8*], [5 x i8*] }* @_ZTCNSt3__118basic_stringstreamIcNS_11char_traitsIcEENS_9allocatorIcEEEE16_NS_13basic_ostreamIcS2_EE, i32 0, inrange i32 1, i32 3) to i8*), i8* bitcast (i8** getelementptr inbounds ({ [5 x i8*], [5 x i8*], [5 x i8*] }, { [5 x i8*], [5 x i8*], [5 x i8*] }* @_ZTCNSt3__118basic_stringstreamIcNS_11char_traitsIcEENS_9allocatorIcEEEE0_NS_14basic_iostreamIcS2_EE, i32 0, inrange i32 2, i32 3) to i8*), i8* bitcast (i8** getelementptr inbounds ({ [5 x i8*], [5 x i8*], [5 x i8*] }, { [5 x i8*], [5 x i8*], [5 x i8*] }* @_ZTCNSt3__118basic_stringstreamIcNS_11char_traitsIcEENS_9allocatorIcEEEE0_NS_14basic_iostreamIcS2_EE, i32 0, inrange i32 1, i32 3) to i8*), i8* bitcast (i8** getelementptr inbounds ({ [5 x i8*], [5 x i8*], [5 x i8*] }, { [5 x i8*], [5 x i8*], [5 x i8*] }* @_ZTVNSt3__118basic_stringstreamIcNS_11char_traitsIcEENS_9allocatorIcEEEE, i32 0, inrange i32 2, i32 3) to i8*), i8* bitcast (i8** getelementptr inbounds ({ [5 x i8*], [5 x i8*], [5 x i8*] }, { [5 x i8*], [5 x i8*], [5 x i8*] }* @_ZTVNSt3__118basic_stringstreamIcNS_11char_traitsIcEENS_9allocatorIcEEEE, i32 0, inrange i32 1, i32 3) to i8*)]
@_ZTCNSt3__118basic_stringstreamIcNS_11char_traitsIcEENS_9allocatorIcEEEE0_NS_14basic_iostreamIcS2_EE = linkonce_odr unnamed_addr constant { [5 x i8*], [5 x i8*], [5 x i8*] } { [5 x i8*] [i8* inttoptr (i64 128 to i8*), i8* null, i8* bitcast (i8** @_ZTINSt3__114basic_iostreamIcNS_11char_traitsIcEEEE to i8*), i8* bitcast (void (%"class.std::__1::basic_iostream"*)* @_ZNSt3__114basic_iostreamIcNS_11char_traitsIcEEED1Ev to i8*), i8* bitcast (void (%"class.std::__1::basic_iostream"*)* @_ZNSt3__114basic_iostreamIcNS_11char_traitsIcEEED0Ev to i8*)], [5 x i8*] [i8* inttoptr (i64 112 to i8*), i8* inttoptr (i64 -16 to i8*), i8* bitcast (i8** @_ZTINSt3__114basic_iostreamIcNS_11char_traitsIcEEEE to i8*), i8* bitcast (void (%"class.std::__1::basic_iostream"*)* @_ZThn16_NSt3__114basic_iostreamIcNS_11char_traitsIcEEED1Ev to i8*), i8* bitcast (void (%"class.std::__1::basic_iostream"*)* @_ZThn16_NSt3__114basic_iostreamIcNS_11char_traitsIcEEED0Ev to i8*)], [5 x i8*] [i8* inttoptr (i64 -128 to i8*), i8* inttoptr (i64 -128 to i8*), i8* bitcast (i8** @_ZTINSt3__114basic_iostreamIcNS_11char_traitsIcEEEE to i8*), i8* bitcast (void (%"class.std::__1::basic_iostream"*)* @_ZTv0_n24_NSt3__114basic_iostreamIcNS_11char_traitsIcEEED1Ev to i8*), i8* bitcast (void (%"class.std::__1::basic_iostream"*)* @_ZTv0_n24_NSt3__114basic_iostreamIcNS_11char_traitsIcEEED0Ev to i8*)] }
@_ZTINSt3__114basic_iostreamIcNS_11char_traitsIcEEEE = external constant i8*
@_ZTCNSt3__118basic_stringstreamIcNS_11char_traitsIcEENS_9allocatorIcEEEE0_NS_13basic_istreamIcS2_EE = linkonce_odr unnamed_addr constant { [5 x i8*], [5 x i8*] } { [5 x i8*] [i8* inttoptr (i64 128 to i8*), i8* null, i8* bitcast (i8** @_ZTINSt3__113basic_istreamIcNS_11char_traitsIcEEEE to i8*), i8* bitcast (void (%"class.std::__1::basic_istream"*)* @_ZNSt3__113basic_istreamIcNS_11char_traitsIcEEED1Ev to i8*), i8* bitcast (void (%"class.std::__1::basic_istream"*)* @_ZNSt3__113basic_istreamIcNS_11char_traitsIcEEED0Ev to i8*)], [5 x i8*] [i8* inttoptr (i64 -128 to i8*), i8* inttoptr (i64 -128 to i8*), i8* bitcast (i8** @_ZTINSt3__113basic_istreamIcNS_11char_traitsIcEEEE to i8*), i8* bitcast (void (%"class.std::__1::basic_istream"*)* @_ZTv0_n24_NSt3__113basic_istreamIcNS_11char_traitsIcEEED1Ev to i8*), i8* bitcast (void (%"class.std::__1::basic_istream"*)* @_ZTv0_n24_NSt3__113basic_istreamIcNS_11char_traitsIcEEED0Ev to i8*)] }
@_ZTINSt3__113basic_istreamIcNS_11char_traitsIcEEEE = external constant i8*
@_ZTCNSt3__118basic_stringstreamIcNS_11char_traitsIcEENS_9allocatorIcEEEE16_NS_13basic_ostreamIcS2_EE = linkonce_odr unnamed_addr constant { [5 x i8*], [5 x i8*] } { [5 x i8*] [i8* inttoptr (i64 112 to i8*), i8* null, i8* bitcast (i8** @_ZTINSt3__113basic_ostreamIcNS_11char_traitsIcEEEE to i8*), i8* bitcast (void (%"class.std::__1::basic_ostream"*)* @_ZNSt3__113basic_ostreamIcNS_11char_traitsIcEEED1Ev to i8*), i8* bitcast (void (%"class.std::__1::basic_ostream"*)* @_ZNSt3__113basic_ostreamIcNS_11char_traitsIcEEED0Ev to i8*)], [5 x i8*] [i8* inttoptr (i64 -112 to i8*), i8* inttoptr (i64 -112 to i8*), i8* bitcast (i8** @_ZTINSt3__113basic_ostreamIcNS_11char_traitsIcEEEE to i8*), i8* bitcast (void (%"class.std::__1::basic_ostream"*)* @_ZTv0_n24_NSt3__113basic_ostreamIcNS_11char_traitsIcEEED1Ev to i8*), i8* bitcast (void (%"class.std::__1::basic_ostream"*)* @_ZTv0_n24_NSt3__113basic_ostreamIcNS_11char_traitsIcEEED0Ev to i8*)] }
@_ZTSNSt3__118basic_stringstreamIcNS_11char_traitsIcEENS_9allocatorIcEEEE = linkonce_odr constant [69 x i8] c"NSt3__118basic_stringstreamIcNS_11char_traitsIcEENS_9allocatorIcEEEE\00"
@_ZTINSt3__118basic_stringstreamIcNS_11char_traitsIcEENS_9allocatorIcEEEE = linkonce_odr constant { i8*, i8*, i8* } { i8* bitcast (i8** getelementptr inbounds (i8*, i8** @_ZTVN10__cxxabiv120__si_class_type_infoE, i64 2) to i8*), i8* getelementptr inbounds ([69 x i8], [69 x i8]* @_ZTSNSt3__118basic_stringstreamIcNS_11char_traitsIcEENS_9allocatorIcEEEE, i32 0, i32 0), i8* bitcast (i8** @_ZTINSt3__114basic_iostreamIcNS_11char_traitsIcEEEE to i8*) }
@_ZTVNSt3__115basic_stringbufIcNS_11char_traitsIcEENS_9allocatorIcEEEE = linkonce_odr unnamed_addr constant { [16 x i8*] } { [16 x i8*] [i8* null, i8* bitcast ({ i8*, i8*, i8* }* @_ZTINSt3__115basic_stringbufIcNS_11char_traitsIcEENS_9allocatorIcEEEE to i8*), i8* bitcast (void (%"class.std::__1::basic_stringbuf"*)* @_ZNSt3__115basic_stringbufIcNS_11char_traitsIcEENS_9allocatorIcEEED1Ev to i8*), i8* bitcast (void (%"class.std::__1::basic_stringbuf"*)* @_ZNSt3__115basic_stringbufIcNS_11char_traitsIcEENS_9allocatorIcEEED0Ev to i8*), i8* bitcast (void (%"class.std::__1::basic_streambuf"*, %"class.std::__1::locale"*)* @_ZNSt3__115basic_streambufIcNS_11char_traitsIcEEE5imbueERKNS_6localeE to i8*), i8* bitcast (%"class.std::__1::basic_streambuf"* (%"class.std::__1::basic_streambuf"*, i8*, i64)* @_ZNSt3__115basic_streambufIcNS_11char_traitsIcEEE6setbufEPcl to i8*), i8* bitcast (void (%"class.std::__1::fpos"*, %"class.std::__1::basic_stringbuf"*, i64, i32, i32)* @_ZNSt3__115basic_stringbufIcNS_11char_traitsIcEENS_9allocatorIcEEE7seekoffExNS_8ios_base7seekdirEj to i8*), i8* bitcast (void (%"class.std::__1::fpos"*, %"class.std::__1::basic_stringbuf"*, %"class.std::__1::fpos"*, i32)* @_ZNSt3__115basic_stringbufIcNS_11char_traitsIcEENS_9allocatorIcEEE7seekposENS_4fposI11__mbstate_tEEj to i8*), i8* bitcast (i32 (%"class.std::__1::basic_streambuf"*)* @_ZNSt3__115basic_streambufIcNS_11char_traitsIcEEE4syncEv to i8*), i8* bitcast (i64 (%"class.std::__1::basic_streambuf"*)* @_ZNSt3__115basic_streambufIcNS_11char_traitsIcEEE9showmanycEv to i8*), i8* bitcast (i64 (%"class.std::__1::basic_streambuf"*, i8*, i64)* @_ZNSt3__115basic_streambufIcNS_11char_traitsIcEEE6xsgetnEPcl to i8*), i8* bitcast (i32 (%"class.std::__1::basic_stringbuf"*)* @_ZNSt3__115basic_stringbufIcNS_11char_traitsIcEENS_9allocatorIcEEE9underflowEv to i8*), i8* bitcast (i32 (%"class.std::__1::basic_streambuf"*)* @_ZNSt3__115basic_streambufIcNS_11char_traitsIcEEE5uflowEv to i8*), i8* bitcast (i32 (%"class.std::__1::basic_stringbuf"*, i32)* @_ZNSt3__115basic_stringbufIcNS_11char_traitsIcEENS_9allocatorIcEEE9pbackfailEi to i8*), i8* bitcast (i64 (%"class.std::__1::basic_streambuf"*, i8*, i64)* @_ZNSt3__115basic_streambufIcNS_11char_traitsIcEEE6xsputnEPKcl to i8*), i8* bitcast (i32 (%"class.std::__1::basic_stringbuf"*, i32)* @_ZNSt3__115basic_stringbufIcNS_11char_traitsIcEENS_9allocatorIcEEE8overflowEi to i8*)] }, align 8
@_ZTSNSt3__115basic_stringbufIcNS_11char_traitsIcEENS_9allocatorIcEEEE = linkonce_odr constant [66 x i8] c"NSt3__115basic_stringbufIcNS_11char_traitsIcEENS_9allocatorIcEEEE\00"
@_ZTINSt3__115basic_stringbufIcNS_11char_traitsIcEENS_9allocatorIcEEEE = linkonce_odr constant { i8*, i8*, i8* } { i8* bitcast (i8** getelementptr inbounds (i8*, i8** @_ZTVN10__cxxabiv120__si_class_type_infoE, i64 2) to i8*), i8* getelementptr inbounds ([66 x i8], [66 x i8]* @_ZTSNSt3__115basic_stringbufIcNS_11char_traitsIcEENS_9allocatorIcEEEE, i32 0, i32 0), i8* bitcast (i8** @_ZTINSt3__115basic_streambufIcNS_11char_traitsIcEEEE to i8*) }
@_ZTVNSt3__19basic_iosIcNS_11char_traitsIcEEEE = external unnamed_addr constant { [4 x i8*] }
@_ZTVNSt3__18ios_baseE = external unnamed_addr constant { [4 x i8*] }
@.str.59 = private unnamed_addr constant [68 x i8] c"allocator<T>::allocate(size_t n) 'n' exceeds maximum supported size\00", align 1
@_ZTISt12length_error = external constant i8*
@_ZTVSt12length_error = external unnamed_addr constant { [5 x i8*] }
@_ZNSt3__1L19piecewise_constructE = internal constant %"struct.std::__1::piecewise_construct_t" undef, align 1
@_ZNSt3__15ctypeIcE2idE = external global %"class.std::__1::locale::id", align 8
@.str.60 = private unnamed_addr constant [2 x i8] c"w\00", align 1
@.str.61 = private unnamed_addr constant [2 x i8] c"a\00", align 1
@.str.62 = private unnamed_addr constant [2 x i8] c"r\00", align 1
@.str.63 = private unnamed_addr constant [3 x i8] c"r+\00", align 1
@.str.64 = private unnamed_addr constant [3 x i8] c"w+\00", align 1
@.str.65 = private unnamed_addr constant [3 x i8] c"a+\00", align 1
@.str.66 = private unnamed_addr constant [3 x i8] c"wb\00", align 1
@.str.67 = private unnamed_addr constant [3 x i8] c"ab\00", align 1
@.str.68 = private unnamed_addr constant [3 x i8] c"rb\00", align 1
@.str.69 = private unnamed_addr constant [4 x i8] c"r+b\00", align 1
@.str.70 = private unnamed_addr constant [4 x i8] c"w+b\00", align 1
@.str.71 = private unnamed_addr constant [4 x i8] c"a+b\00", align 1
@llvm.global_ctors = appending global [1 x { i32, void ()*, i8* }] [{ i32, void ()*, i8* } { i32 65535, void ()* @_GLOBAL__sub_I_stg.cpp, i8* null }]

; Function Attrs: noinline ssp uwtable
define internal void @__cxx_global_var_init() #0 section "__TEXT,__StaticInit,regular,pure_instructions" {
entry:
  call void @_ZNSt3__13mapINS_12basic_stringIcNS_11char_traitsIcEENS_9allocatorIcEEEES6_NS_4lessIS6_EENS4_INS_4pairIKS6_S6_EEEEEC1Ev(%"class.std::__1::map"* @sym_state) #2
  %0 = call i32 @__cxa_atexit(void (i8*)* bitcast (void (%"class.std::__1::map"*)* @_ZNSt3__13mapINS_12basic_stringIcNS_11char_traitsIcEENS_9allocatorIcEEEES6_NS_4lessIS6_EENS4_INS_4pairIKS6_S6_EEEEED1Ev to void (i8*)*), i8* bitcast (%"class.std::__1::map"* @sym_state to i8*), i8* @__dso_handle) #2
  ret void
}

; Function Attrs: noinline nounwind optnone ssp uwtable
define internal void @_ZNSt3__13mapINS_12basic_stringIcNS_11char_traitsIcEENS_9allocatorIcEEEES6_NS_4lessIS6_EENS4_INS_4pairIKS6_S6_EEEEEC1Ev(%"class.std::__1::map"* %this) unnamed_addr #1 align 2 {
entry:
  %this.addr = alloca %"class.std::__1::map"*, align 8
  store %"class.std::__1::map"* %this, %"class.std::__1::map"** %this.addr, align 8
  %this1 = load %"class.std::__1::map"*, %"class.std::__1::map"** %this.addr, align 8
  call void @_ZNSt3__13mapINS_12basic_stringIcNS_11char_traitsIcEENS_9allocatorIcEEEES6_NS_4lessIS6_EENS4_INS_4pairIKS6_S6_EEEEEC2Ev(%"class.std::__1::map"* %this1) #2
  ret void
}

; Function Attrs: noinline nounwind optnone ssp uwtable
define linkonce_odr void @_ZNSt3__13mapINS_12basic_stringIcNS_11char_traitsIcEENS_9allocatorIcEEEES6_NS_4lessIS6_EENS4_INS_4pairIKS6_S6_EEEEED1Ev(%"class.std::__1::map"* %this) unnamed_addr #1 align 2 {
entry:
  %this.addr = alloca %"class.std::__1::map"*, align 8
  store %"class.std::__1::map"* %this, %"class.std::__1::map"** %this.addr, align 8
  %this1 = load %"class.std::__1::map"*, %"class.std::__1::map"** %this.addr, align 8
  call void @_ZNSt3__13mapINS_12basic_stringIcNS_11char_traitsIcEENS_9allocatorIcEEEES6_NS_4lessIS6_EENS4_INS_4pairIKS6_S6_EEEEED2Ev(%"class.std::__1::map"* %this1) #2
  ret void
}

; Function Attrs: nounwind
declare i32 @__cxa_atexit(void (i8*)*, i8*, i8*) #2

; Function Attrs: noinline ssp uwtable
define internal void @__cxx_global_var_init.1() #0 section "__TEXT,__StaticInit,regular,pure_instructions" {
entry:
  call void @_ZNSt3__13mapINS_12basic_stringIcNS_11char_traitsIcEENS_9allocatorIcEEEES6_NS_4lessIS6_EENS4_INS_4pairIKS6_S6_EEEEEC1Ev(%"class.std::__1::map"* @sym_var_map) #2
  %0 = call i32 @__cxa_atexit(void (i8*)* bitcast (void (%"class.std::__1::map"*)* @_ZNSt3__13mapINS_12basic_stringIcNS_11char_traitsIcEENS_9allocatorIcEEEES6_NS_4lessIS6_EENS4_INS_4pairIKS6_S6_EEEEED1Ev to void (i8*)*), i8* bitcast (%"class.std::__1::map"* @sym_var_map to i8*), i8* @__dso_handle) #2
  ret void
}

; Function Attrs: noinline ssp uwtable
define internal void @__cxx_global_var_init.2() #0 section "__TEXT,__StaticInit,regular,pure_instructions" {
entry:
  call void @_ZNSt3__13mapINS_12basic_stringIcNS_11char_traitsIcEENS_9allocatorIcEEEES6_NS_4lessIS6_EENS4_INS_4pairIKS6_S6_EEEEEC1Ev(%"class.std::__1::map"* @path_conditions) #2
  %0 = call i32 @__cxa_atexit(void (i8*)* bitcast (void (%"class.std::__1::map"*)* @_ZNSt3__13mapINS_12basic_stringIcNS_11char_traitsIcEENS_9allocatorIcEEEES6_NS_4lessIS6_EENS4_INS_4pairIKS6_S6_EEEEED1Ev to void (i8*)*), i8* bitcast (%"class.std::__1::map"* @path_conditions to i8*), i8* @__dso_handle) #2
  ret void
}

; Function Attrs: noinline ssp uwtable
define internal void @__cxx_global_var_init.3() #0 section "__TEXT,__StaticInit,regular,pure_instructions" {
entry:
  call void @_ZNSt3__112basic_stringIcNS_11char_traitsIcEENS_9allocatorIcEEEC1Ev(%"class.std::__1::basic_string"* @path_condition) #2
  %0 = call i32 @__cxa_atexit(void (i8*)* bitcast (void (%"class.std::__1::basic_string"*)* @_ZNSt3__112basic_stringIcNS_11char_traitsIcEENS_9allocatorIcEEED1Ev to void (i8*)*), i8* bitcast (%"class.std::__1::basic_string"* @path_condition to i8*), i8* @__dso_handle) #2
  ret void
}

; Function Attrs: noinline nounwind optnone ssp uwtable
define internal void @_ZNSt3__112basic_stringIcNS_11char_traitsIcEENS_9allocatorIcEEEC1Ev(%"class.std::__1::basic_string"* %this) unnamed_addr #1 align 2 {
entry:
  %this.addr = alloca %"class.std::__1::basic_string"*, align 8
  store %"class.std::__1::basic_string"* %this, %"class.std::__1::basic_string"** %this.addr, align 8
  %this1 = load %"class.std::__1::basic_string"*, %"class.std::__1::basic_string"** %this.addr, align 8
  call void @_ZNSt3__112basic_stringIcNS_11char_traitsIcEENS_9allocatorIcEEEC2Ev(%"class.std::__1::basic_string"* %this1) #2
  ret void
}

; Function Attrs: nounwind
declare void @_ZNSt3__112basic_stringIcNS_11char_traitsIcEENS_9allocatorIcEEED1Ev(%"class.std::__1::basic_string"*) unnamed_addr #3

; Function Attrs: noinline ssp uwtable
define internal void @__cxx_global_var_init.4() #0 section "__TEXT,__StaticInit,regular,pure_instructions" {
entry:
  call void @_ZNSt3__112basic_stringIcNS_11char_traitsIcEENS_9allocatorIcEEEC1Ev(%"class.std::__1::basic_string"* @output_dir) #2
  %0 = call i32 @__cxa_atexit(void (i8*)* bitcast (void (%"class.std::__1::basic_string"*)* @_ZNSt3__112basic_stringIcNS_11char_traitsIcEENS_9allocatorIcEEED1Ev to void (i8*)*), i8* bitcast (%"class.std::__1::basic_string"* @output_dir to i8*), i8* @__dso_handle) #2
  ret void
}

; Function Attrs: noinline ssp uwtable
define internal void @__cxx_global_var_init.5() #0 section "__TEXT,__StaticInit,regular,pure_instructions" {
entry:
  call void @_ZNSt3__114basic_ofstreamIcNS_11char_traitsIcEEEC1Ev(%"class.std::__1::basic_ofstream"* @stg_state)
  %0 = call i32 @__cxa_atexit(void (i8*)* bitcast (void (%"class.std::__1::basic_ofstream"*)* @_ZNSt3__114basic_ofstreamIcNS_11char_traitsIcEEED1Ev to void (i8*)*), i8* bitcast (%"class.std::__1::basic_ofstream"* @stg_state to i8*), i8* @__dso_handle) #2
  ret void
}

; Function Attrs: noinline optnone ssp uwtable
define internal void @_ZNSt3__114basic_ofstreamIcNS_11char_traitsIcEEEC1Ev(%"class.std::__1::basic_ofstream"* %this) unnamed_addr #4 align 2 personality i8* bitcast (i32 (...)* @__gxx_personality_v0 to i8*) {
entry:
  %this.addr = alloca %"class.std::__1::basic_ofstream"*, align 8
  %exn.slot = alloca i8*
  %ehselector.slot = alloca i32
  store %"class.std::__1::basic_ofstream"* %this, %"class.std::__1::basic_ofstream"** %this.addr, align 8
  %this1 = load %"class.std::__1::basic_ofstream"*, %"class.std::__1::basic_ofstream"** %this.addr, align 8
  %0 = bitcast %"class.std::__1::basic_ofstream"* %this1 to i8*
  %1 = getelementptr inbounds i8, i8* %0, i64 416
  %2 = bitcast i8* %1 to %"class.std::__1::basic_ios"*
  call void @_ZNSt3__19basic_iosIcNS_11char_traitsIcEEEC2Ev(%"class.std::__1::basic_ios"* %2)
  %3 = bitcast %"class.std::__1::basic_ofstream"* %this1 to i32 (...)***
  store i32 (...)** bitcast (i8** getelementptr inbounds ({ [5 x i8*], [5 x i8*] }, { [5 x i8*], [5 x i8*] }* @_ZTVNSt3__114basic_ofstreamIcNS_11char_traitsIcEEEE, i32 0, inrange i32 0, i32 3) to i32 (...)**), i32 (...)*** %3, align 8
  %4 = bitcast %"class.std::__1::basic_ofstream"* %this1 to i8*
  %add.ptr = getelementptr inbounds i8, i8* %4, i64 416
  %5 = bitcast i8* %add.ptr to i32 (...)***
  store i32 (...)** bitcast (i8** getelementptr inbounds ({ [5 x i8*], [5 x i8*] }, { [5 x i8*], [5 x i8*] }* @_ZTVNSt3__114basic_ofstreamIcNS_11char_traitsIcEEEE, i32 0, inrange i32 1, i32 3) to i32 (...)**), i32 (...)*** %5, align 8
  %6 = bitcast %"class.std::__1::basic_ofstream"* %this1 to %"class.std::__1::basic_ostream"*
  %__sb_ = getelementptr inbounds %"class.std::__1::basic_ofstream", %"class.std::__1::basic_ofstream"* %this1, i32 0, i32 1
  %7 = bitcast %"class.std::__1::basic_filebuf"* %__sb_ to %"class.std::__1::basic_streambuf"*
  invoke void @_ZNSt3__113basic_ostreamIcNS_11char_traitsIcEEEC2EPNS_15basic_streambufIcS2_EE(%"class.std::__1::basic_ostream"* %6, i8** getelementptr inbounds ([4 x i8*], [4 x i8*]* @_ZTTNSt3__114basic_ofstreamIcNS_11char_traitsIcEEEE, i64 0, i64 1), %"class.std::__1::basic_streambuf"* %7)
          to label %invoke.cont unwind label %lpad

invoke.cont:                                      ; preds = %entry
  %8 = bitcast %"class.std::__1::basic_ofstream"* %this1 to i32 (...)***
  store i32 (...)** bitcast (i8** getelementptr inbounds ({ [5 x i8*], [5 x i8*] }, { [5 x i8*], [5 x i8*] }* @_ZTVNSt3__114basic_ofstreamIcNS_11char_traitsIcEEEE, i32 0, inrange i32 0, i32 3) to i32 (...)**), i32 (...)*** %8, align 8
  %9 = bitcast %"class.std::__1::basic_ofstream"* %this1 to i8*
  %add.ptr2 = getelementptr inbounds i8, i8* %9, i64 416
  %10 = bitcast i8* %add.ptr2 to i32 (...)***
  store i32 (...)** bitcast (i8** getelementptr inbounds ({ [5 x i8*], [5 x i8*] }, { [5 x i8*], [5 x i8*] }* @_ZTVNSt3__114basic_ofstreamIcNS_11char_traitsIcEEEE, i32 0, inrange i32 1, i32 3) to i32 (...)**), i32 (...)*** %10, align 8
  %__sb_3 = getelementptr inbounds %"class.std::__1::basic_ofstream", %"class.std::__1::basic_ofstream"* %this1, i32 0, i32 1
  invoke void @_ZNSt3__113basic_filebufIcNS_11char_traitsIcEEEC1Ev(%"class.std::__1::basic_filebuf"* %__sb_3)
          to label %invoke.cont5 unwind label %lpad4

invoke.cont5:                                     ; preds = %invoke.cont
  ret void

lpad:                                             ; preds = %entry
  %11 = landingpad { i8*, i32 }
          cleanup
  %12 = extractvalue { i8*, i32 } %11, 0
  store i8* %12, i8** %exn.slot, align 8
  %13 = extractvalue { i8*, i32 } %11, 1
  store i32 %13, i32* %ehselector.slot, align 4
  br label %ehcleanup

lpad4:                                            ; preds = %invoke.cont
  %14 = landingpad { i8*, i32 }
          cleanup
  %15 = extractvalue { i8*, i32 } %14, 0
  store i8* %15, i8** %exn.slot, align 8
  %16 = extractvalue { i8*, i32 } %14, 1
  store i32 %16, i32* %ehselector.slot, align 4
  %17 = bitcast %"class.std::__1::basic_ofstream"* %this1 to %"class.std::__1::basic_ostream"*
  call void @_ZNSt3__113basic_ostreamIcNS_11char_traitsIcEEED2Ev(%"class.std::__1::basic_ostream"* %17, i8** getelementptr inbounds ([4 x i8*], [4 x i8*]* @_ZTTNSt3__114basic_ofstreamIcNS_11char_traitsIcEEEE, i64 0, i64 1)) #2
  br label %ehcleanup

ehcleanup:                                        ; preds = %lpad4, %lpad
  %18 = bitcast %"class.std::__1::basic_ofstream"* %this1 to i8*
  %19 = getelementptr inbounds i8, i8* %18, i64 416
  %20 = bitcast i8* %19 to %"class.std::__1::basic_ios"*
  call void @_ZNSt3__19basic_iosIcNS_11char_traitsIcEEED2Ev(%"class.std::__1::basic_ios"* %20) #2
  br label %eh.resume

eh.resume:                                        ; preds = %ehcleanup
  %exn = load i8*, i8** %exn.slot, align 8
  %sel = load i32, i32* %ehselector.slot, align 4
  %lpad.val = insertvalue { i8*, i32 } undef, i8* %exn, 0
  %lpad.val6 = insertvalue { i8*, i32 } %lpad.val, i32 %sel, 1
  resume { i8*, i32 } %lpad.val6
}

; Function Attrs: noinline nounwind optnone ssp uwtable
define linkonce_odr void @_ZNSt3__114basic_ofstreamIcNS_11char_traitsIcEEED1Ev(%"class.std::__1::basic_ofstream"* %this) unnamed_addr #1 align 2 {
entry:
  %this.addr = alloca %"class.std::__1::basic_ofstream"*, align 8
  store %"class.std::__1::basic_ofstream"* %this, %"class.std::__1::basic_ofstream"** %this.addr, align 8
  %this1 = load %"class.std::__1::basic_ofstream"*, %"class.std::__1::basic_ofstream"** %this.addr, align 8
  call void @_ZNSt3__114basic_ofstreamIcNS_11char_traitsIcEEED2Ev(%"class.std::__1::basic_ofstream"* %this1, i8** getelementptr inbounds ([4 x i8*], [4 x i8*]* @_ZTTNSt3__114basic_ofstreamIcNS_11char_traitsIcEEEE, i64 0, i64 0)) #2
  %0 = bitcast %"class.std::__1::basic_ofstream"* %this1 to i8*
  %1 = getelementptr inbounds i8, i8* %0, i64 416
  %2 = bitcast i8* %1 to %"class.std::__1::basic_ios"*
  call void @_ZNSt3__19basic_iosIcNS_11char_traitsIcEEED2Ev(%"class.std::__1::basic_ios"* %2) #2
  ret void
}

; Function Attrs: noinline ssp uwtable
define internal void @__cxx_global_var_init.6() #0 section "__TEXT,__StaticInit,regular,pure_instructions" {
entry:
  call void @_ZNSt3__114basic_ofstreamIcNS_11char_traitsIcEEEC1Ev(%"class.std::__1::basic_ofstream"* @stg_pc)
  %0 = call i32 @__cxa_atexit(void (i8*)* bitcast (void (%"class.std::__1::basic_ofstream"*)* @_ZNSt3__114basic_ofstreamIcNS_11char_traitsIcEEED1Ev to void (i8*)*), i8* bitcast (%"class.std::__1::basic_ofstream"* @stg_pc to i8*), i8* @__dso_handle) #2
  ret void
}

; Function Attrs: noinline ssp uwtable
define internal void @__cxx_global_var_init.7() #0 section "__TEXT,__StaticInit,regular,pure_instructions" {
entry:
  call void @_ZNSt3__112basic_stringIcNS_11char_traitsIcEENS_9allocatorIcEEEC1Ev(%"class.std::__1::basic_string"* @prev_bb) #2
  %0 = call i32 @__cxa_atexit(void (i8*)* bitcast (void (%"class.std::__1::basic_string"*)* @_ZNSt3__112basic_stringIcNS_11char_traitsIcEENS_9allocatorIcEEED1Ev to void (i8*)*), i8* bitcast (%"class.std::__1::basic_string"* @prev_bb to i8*), i8* @__dso_handle) #2
  ret void
}

; Function Attrs: noinline optnone ssp uwtable
define void @stg_symbolic_variable_int(i32* %addr, i8* %name) #4 personality i8* bitcast (i32 (...)* @__gxx_personality_v0 to i8*) {
entry:
  %addr.addr = alloca i32*, align 8
  %name.addr = alloca i8*, align 8
  %address = alloca %"class.std::__1::basic_stringstream", align 8
  %exn.slot = alloca i8*
  %ehselector.slot = alloca i32
  %key = alloca %"class.std::__1::basic_string", align 8
  %ref.tmp = alloca %"class.std::__1::basic_string", align 8
  %ref.tmp1 = alloca %"class.std::__1::basic_string", align 8
  store i32* %addr, i32** %addr.addr, align 8
  store i8* %name, i8** %name.addr, align 8
  call void @_ZNSt3__118basic_stringstreamIcNS_11char_traitsIcEENS_9allocatorIcEEEC1Ej(%"class.std::__1::basic_stringstream"* %address, i32 24)
  %0 = bitcast %"class.std::__1::basic_stringstream"* %address to i8*
  %add.ptr = getelementptr inbounds i8, i8* %0, i64 16
  %1 = bitcast i8* %add.ptr to %"class.std::__1::basic_ostream"*
  %2 = load i32*, i32** %addr.addr, align 8
  %3 = bitcast i32* %2 to i8*
  %call = invoke dereferenceable(160) %"class.std::__1::basic_ostream"* @_ZNSt3__113basic_ostreamIcNS_11char_traitsIcEEElsEPKv(%"class.std::__1::basic_ostream"* %1, i8* %3)
          to label %invoke.cont unwind label %lpad

invoke.cont:                                      ; preds = %entry
  invoke void @_ZNKSt3__118basic_stringstreamIcNS_11char_traitsIcEENS_9allocatorIcEEE3strEv(%"class.std::__1::basic_string"* sret %ref.tmp1, %"class.std::__1::basic_stringstream"* %address)
          to label %invoke.cont2 unwind label %lpad

invoke.cont2:                                     ; preds = %invoke.cont
  invoke void @_ZNSt3__1plIcNS_11char_traitsIcEENS_9allocatorIcEEEENS_12basic_stringIT_T0_T1_EEPKS6_OS9_(%"class.std::__1::basic_string"* sret %ref.tmp, i8* getelementptr inbounds ([3 x i8], [3 x i8]* @.str, i32 0, i32 0), %"class.std::__1::basic_string"* dereferenceable(24) %ref.tmp1)
          to label %invoke.cont4 unwind label %lpad3

invoke.cont4:                                     ; preds = %invoke.cont2
  invoke void @_ZNSt3__1plIcNS_11char_traitsIcEENS_9allocatorIcEEEENS_12basic_stringIT_T0_T1_EEOS9_PKS6_(%"class.std::__1::basic_string"* sret %key, %"class.std::__1::basic_string"* dereferenceable(24) %ref.tmp, i8* getelementptr inbounds ([2 x i8], [2 x i8]* @.str.8, i32 0, i32 0))
          to label %invoke.cont6 unwind label %lpad5

invoke.cont6:                                     ; preds = %invoke.cont4
  call void @_ZNSt3__112basic_stringIcNS_11char_traitsIcEENS_9allocatorIcEEED1Ev(%"class.std::__1::basic_string"* %ref.tmp) #2
  call void @_ZNSt3__112basic_stringIcNS_11char_traitsIcEENS_9allocatorIcEEED1Ev(%"class.std::__1::basic_string"* %ref.tmp1) #2
  %4 = load i8*, i8** %name.addr, align 8
  %call9 = invoke dereferenceable(24) %"class.std::__1::basic_string"* @_ZNSt3__13mapINS_12basic_stringIcNS_11char_traitsIcEENS_9allocatorIcEEEES6_NS_4lessIS6_EENS4_INS_4pairIKS6_S6_EEEEEixERSA_(%"class.std::__1::map"* @sym_var_map, %"class.std::__1::basic_string"* dereferenceable(24) %key)
          to label %invoke.cont8 unwind label %lpad7

invoke.cont8:                                     ; preds = %invoke.cont6
  %call11 = invoke dereferenceable(24) %"class.std::__1::basic_string"* @_ZNSt3__112basic_stringIcNS_11char_traitsIcEENS_9allocatorIcEEEaSEPKc(%"class.std::__1::basic_string"* %call9, i8* %4)
          to label %invoke.cont10 unwind label %lpad7

invoke.cont10:                                    ; preds = %invoke.cont8
  %5 = load i8*, i8** %name.addr, align 8
  %call13 = invoke dereferenceable(24) %"class.std::__1::basic_string"* @_ZNSt3__13mapINS_12basic_stringIcNS_11char_traitsIcEENS_9allocatorIcEEEES6_NS_4lessIS6_EENS4_INS_4pairIKS6_S6_EEEEEixERSA_(%"class.std::__1::map"* @sym_state, %"class.std::__1::basic_string"* dereferenceable(24) %key)
          to label %invoke.cont12 unwind label %lpad7

invoke.cont12:                                    ; preds = %invoke.cont10
  %call15 = invoke dereferenceable(24) %"class.std::__1::basic_string"* @_ZNSt3__112basic_stringIcNS_11char_traitsIcEENS_9allocatorIcEEEaSEPKc(%"class.std::__1::basic_string"* %call13, i8* %5)
          to label %invoke.cont14 unwind label %lpad7

invoke.cont14:                                    ; preds = %invoke.cont12
  %call17 = invoke dereferenceable(160) %"class.std::__1::basic_ostream"* @_ZNSt3__1lsINS_11char_traitsIcEEEERNS_13basic_ostreamIcT_EES6_PKc(%"class.std::__1::basic_ostream"* dereferenceable(160) bitcast (%"class.std::__1::basic_ofstream"* @stg_state to %"class.std::__1::basic_ostream"*), i8* getelementptr inbounds ([7 x i8], [7 x i8]* @.str.9, i32 0, i32 0))
          to label %invoke.cont16 unwind label %lpad7

invoke.cont16:                                    ; preds = %invoke.cont14
  %call19 = invoke dereferenceable(160) %"class.std::__1::basic_ostream"* @_ZNSt3__1lsIcNS_11char_traitsIcEENS_9allocatorIcEEEERNS_13basic_ostreamIT_T0_EES9_RKNS_12basic_stringIS6_S7_T1_EE(%"class.std::__1::basic_ostream"* dereferenceable(160) %call17, %"class.std::__1::basic_string"* dereferenceable(24) %key)
          to label %invoke.cont18 unwind label %lpad7

invoke.cont18:                                    ; preds = %invoke.cont16
  %call21 = invoke dereferenceable(160) %"class.std::__1::basic_ostream"* @_ZNSt3__1lsINS_11char_traitsIcEEEERNS_13basic_ostreamIcT_EES6_PKc(%"class.std::__1::basic_ostream"* dereferenceable(160) %call19, i8* getelementptr inbounds ([6 x i8], [6 x i8]* @.str.10, i32 0, i32 0))
          to label %invoke.cont20 unwind label %lpad7

invoke.cont20:                                    ; preds = %invoke.cont18
  %6 = load i8*, i8** %name.addr, align 8
  %call23 = invoke dereferenceable(160) %"class.std::__1::basic_ostream"* @_ZNSt3__1lsINS_11char_traitsIcEEEERNS_13basic_ostreamIcT_EES6_PKc(%"class.std::__1::basic_ostream"* dereferenceable(160) %call21, i8* %6)
          to label %invoke.cont22 unwind label %lpad7

invoke.cont22:                                    ; preds = %invoke.cont20
  %call25 = invoke dereferenceable(160) %"class.std::__1::basic_ostream"* @_ZNSt3__1lsINS_11char_traitsIcEEEERNS_13basic_ostreamIcT_EES6_PKc(%"class.std::__1::basic_ostream"* dereferenceable(160) %call23, i8* getelementptr inbounds ([3 x i8], [3 x i8]* @.str.11, i32 0, i32 0))
          to label %invoke.cont24 unwind label %lpad7

invoke.cont24:                                    ; preds = %invoke.cont22
  %7 = load i8, i8* @needComma, align 1
  %tobool = trunc i8 %7 to i1
  br i1 %tobool, label %if.then, label %if.else

if.then:                                          ; preds = %invoke.cont24
  %call27 = invoke dereferenceable(160) %"class.std::__1::basic_ostream"* @_ZNSt3__1lsINS_11char_traitsIcEEEERNS_13basic_ostreamIcT_EES6_PKc(%"class.std::__1::basic_ostream"* dereferenceable(160) bitcast (%"class.std::__1::basic_ofstream"* @stg_pc to %"class.std::__1::basic_ostream"*), i8* getelementptr inbounds ([3 x i8], [3 x i8]* @.str.12, i32 0, i32 0))
          to label %invoke.cont26 unwind label %lpad7

invoke.cont26:                                    ; preds = %if.then
  br label %if.end

lpad:                                             ; preds = %invoke.cont, %entry
  %8 = landingpad { i8*, i32 }
          cleanup
  %9 = extractvalue { i8*, i32 } %8, 0
  store i8* %9, i8** %exn.slot, align 8
  %10 = extractvalue { i8*, i32 } %8, 1
  store i32 %10, i32* %ehselector.slot, align 4
  br label %ehcleanup33

lpad3:                                            ; preds = %invoke.cont2
  %11 = landingpad { i8*, i32 }
          cleanup
  %12 = extractvalue { i8*, i32 } %11, 0
  store i8* %12, i8** %exn.slot, align 8
  %13 = extractvalue { i8*, i32 } %11, 1
  store i32 %13, i32* %ehselector.slot, align 4
  br label %ehcleanup

lpad5:                                            ; preds = %invoke.cont4
  %14 = landingpad { i8*, i32 }
          cleanup
  %15 = extractvalue { i8*, i32 } %14, 0
  store i8* %15, i8** %exn.slot, align 8
  %16 = extractvalue { i8*, i32 } %14, 1
  store i32 %16, i32* %ehselector.slot, align 4
  call void @_ZNSt3__112basic_stringIcNS_11char_traitsIcEENS_9allocatorIcEEED1Ev(%"class.std::__1::basic_string"* %ref.tmp) #2
  br label %ehcleanup

ehcleanup:                                        ; preds = %lpad5, %lpad3
  call void @_ZNSt3__112basic_stringIcNS_11char_traitsIcEENS_9allocatorIcEEED1Ev(%"class.std::__1::basic_string"* %ref.tmp1) #2
  br label %ehcleanup33

lpad7:                                            ; preds = %invoke.cont28, %if.end, %if.then, %invoke.cont22, %invoke.cont20, %invoke.cont18, %invoke.cont16, %invoke.cont14, %invoke.cont12, %invoke.cont10, %invoke.cont8, %invoke.cont6
  %17 = landingpad { i8*, i32 }
          cleanup
  %18 = extractvalue { i8*, i32 } %17, 0
  store i8* %18, i8** %exn.slot, align 8
  %19 = extractvalue { i8*, i32 } %17, 1
  store i32 %19, i32* %ehselector.slot, align 4
  call void @_ZNSt3__112basic_stringIcNS_11char_traitsIcEENS_9allocatorIcEEED1Ev(%"class.std::__1::basic_string"* %key) #2
  br label %ehcleanup33

if.else:                                          ; preds = %invoke.cont24
  store i8 1, i8* @needComma, align 1
  br label %if.end

if.end:                                           ; preds = %if.else, %invoke.cont26
  %20 = load i8*, i8** %name.addr, align 8
  %call29 = invoke dereferenceable(160) %"class.std::__1::basic_ostream"* @_ZNSt3__1lsINS_11char_traitsIcEEEERNS_13basic_ostreamIcT_EES6_PKc(%"class.std::__1::basic_ostream"* dereferenceable(160) bitcast (%"class.std::__1::basic_ofstream"* @stg_pc to %"class.std::__1::basic_ostream"*), i8* %20)
          to label %invoke.cont28 unwind label %lpad7

invoke.cont28:                                    ; preds = %if.end
  %call31 = invoke dereferenceable(160) %"class.std::__1::basic_ostream"* @_ZNSt3__1lsINS_11char_traitsIcEEEERNS_13basic_ostreamIcT_EES6_PKc(%"class.std::__1::basic_ostream"* dereferenceable(160) %call29, i8* getelementptr inbounds ([7 x i8], [7 x i8]* @.str.13, i32 0, i32 0))
          to label %invoke.cont30 unwind label %lpad7

invoke.cont30:                                    ; preds = %invoke.cont28
  call void @_ZNSt3__112basic_stringIcNS_11char_traitsIcEENS_9allocatorIcEEED1Ev(%"class.std::__1::basic_string"* %key) #2
  call void @_ZNSt3__118basic_stringstreamIcNS_11char_traitsIcEENS_9allocatorIcEEED1Ev(%"class.std::__1::basic_stringstream"* %address) #2
  ret void

ehcleanup33:                                      ; preds = %lpad7, %ehcleanup, %lpad
  call void @_ZNSt3__118basic_stringstreamIcNS_11char_traitsIcEENS_9allocatorIcEEED1Ev(%"class.std::__1::basic_stringstream"* %address) #2
  br label %eh.resume

eh.resume:                                        ; preds = %ehcleanup33
  %exn = load i8*, i8** %exn.slot, align 8
  %sel = load i32, i32* %ehselector.slot, align 4
  %lpad.val = insertvalue { i8*, i32 } undef, i8* %exn, 0
  %lpad.val34 = insertvalue { i8*, i32 } %lpad.val, i32 %sel, 1
  resume { i8*, i32 } %lpad.val34
}

; Function Attrs: noinline optnone ssp uwtable
define internal void @_ZNSt3__118basic_stringstreamIcNS_11char_traitsIcEENS_9allocatorIcEEEC1Ej(%"class.std::__1::basic_stringstream"* %this, i32 %__wch) unnamed_addr #4 align 2 personality i8* bitcast (i32 (...)* @__gxx_personality_v0 to i8*) {
entry:
  %this.addr = alloca %"class.std::__1::basic_stringstream"*, align 8
  %__wch.addr = alloca i32, align 4
  %exn.slot = alloca i8*
  %ehselector.slot = alloca i32
  store %"class.std::__1::basic_stringstream"* %this, %"class.std::__1::basic_stringstream"** %this.addr, align 8
  store i32 %__wch, i32* %__wch.addr, align 4
  %this1 = load %"class.std::__1::basic_stringstream"*, %"class.std::__1::basic_stringstream"** %this.addr, align 8
  %0 = bitcast %"class.std::__1::basic_stringstream"* %this1 to i8*
  %1 = getelementptr inbounds i8, i8* %0, i64 128
  %2 = bitcast i8* %1 to %"class.std::__1::basic_ios"*
  call void @_ZNSt3__19basic_iosIcNS_11char_traitsIcEEEC2Ev(%"class.std::__1::basic_ios"* %2)
  %3 = bitcast %"class.std::__1::basic_stringstream"* %this1 to i32 (...)***
  store i32 (...)** bitcast (i8** getelementptr inbounds ({ [5 x i8*], [5 x i8*], [5 x i8*] }, { [5 x i8*], [5 x i8*], [5 x i8*] }* @_ZTVNSt3__118basic_stringstreamIcNS_11char_traitsIcEENS_9allocatorIcEEEE, i32 0, inrange i32 0, i32 3) to i32 (...)**), i32 (...)*** %3, align 8
  %4 = bitcast %"class.std::__1::basic_stringstream"* %this1 to i8*
  %add.ptr = getelementptr inbounds i8, i8* %4, i64 128
  %5 = bitcast i8* %add.ptr to i32 (...)***
  store i32 (...)** bitcast (i8** getelementptr inbounds ({ [5 x i8*], [5 x i8*], [5 x i8*] }, { [5 x i8*], [5 x i8*], [5 x i8*] }* @_ZTVNSt3__118basic_stringstreamIcNS_11char_traitsIcEENS_9allocatorIcEEEE, i32 0, inrange i32 2, i32 3) to i32 (...)**), i32 (...)*** %5, align 8
  %6 = bitcast %"class.std::__1::basic_stringstream"* %this1 to i8*
  %add.ptr2 = getelementptr inbounds i8, i8* %6, i64 16
  %7 = bitcast i8* %add.ptr2 to i32 (...)***
  store i32 (...)** bitcast (i8** getelementptr inbounds ({ [5 x i8*], [5 x i8*], [5 x i8*] }, { [5 x i8*], [5 x i8*], [5 x i8*] }* @_ZTVNSt3__118basic_stringstreamIcNS_11char_traitsIcEENS_9allocatorIcEEEE, i32 0, inrange i32 1, i32 3) to i32 (...)**), i32 (...)*** %7, align 8
  %8 = bitcast %"class.std::__1::basic_stringstream"* %this1 to %"class.std::__1::basic_iostream"*
  %__sb_ = getelementptr inbounds %"class.std::__1::basic_stringstream", %"class.std::__1::basic_stringstream"* %this1, i32 0, i32 1
  %9 = bitcast %"class.std::__1::basic_stringbuf"* %__sb_ to %"class.std::__1::basic_streambuf"*
  invoke void @_ZNSt3__114basic_iostreamIcNS_11char_traitsIcEEEC2EPNS_15basic_streambufIcS2_EE(%"class.std::__1::basic_iostream"* %8, i8** getelementptr inbounds ([10 x i8*], [10 x i8*]* @_ZTTNSt3__118basic_stringstreamIcNS_11char_traitsIcEENS_9allocatorIcEEEE, i64 0, i64 1), %"class.std::__1::basic_streambuf"* %9)
          to label %invoke.cont unwind label %lpad

invoke.cont:                                      ; preds = %entry
  %10 = bitcast %"class.std::__1::basic_stringstream"* %this1 to i32 (...)***
  store i32 (...)** bitcast (i8** getelementptr inbounds ({ [5 x i8*], [5 x i8*], [5 x i8*] }, { [5 x i8*], [5 x i8*], [5 x i8*] }* @_ZTVNSt3__118basic_stringstreamIcNS_11char_traitsIcEENS_9allocatorIcEEEE, i32 0, inrange i32 0, i32 3) to i32 (...)**), i32 (...)*** %10, align 8
  %11 = bitcast %"class.std::__1::basic_stringstream"* %this1 to i8*
  %add.ptr3 = getelementptr inbounds i8, i8* %11, i64 128
  %12 = bitcast i8* %add.ptr3 to i32 (...)***
  store i32 (...)** bitcast (i8** getelementptr inbounds ({ [5 x i8*], [5 x i8*], [5 x i8*] }, { [5 x i8*], [5 x i8*], [5 x i8*] }* @_ZTVNSt3__118basic_stringstreamIcNS_11char_traitsIcEENS_9allocatorIcEEEE, i32 0, inrange i32 2, i32 3) to i32 (...)**), i32 (...)*** %12, align 8
  %13 = bitcast %"class.std::__1::basic_stringstream"* %this1 to i8*
  %add.ptr4 = getelementptr inbounds i8, i8* %13, i64 16
  %14 = bitcast i8* %add.ptr4 to i32 (...)***
  store i32 (...)** bitcast (i8** getelementptr inbounds ({ [5 x i8*], [5 x i8*], [5 x i8*] }, { [5 x i8*], [5 x i8*], [5 x i8*] }* @_ZTVNSt3__118basic_stringstreamIcNS_11char_traitsIcEENS_9allocatorIcEEEE, i32 0, inrange i32 1, i32 3) to i32 (...)**), i32 (...)*** %14, align 8
  %__sb_5 = getelementptr inbounds %"class.std::__1::basic_stringstream", %"class.std::__1::basic_stringstream"* %this1, i32 0, i32 1
  %15 = load i32, i32* %__wch.addr, align 4
  invoke void @_ZNSt3__115basic_stringbufIcNS_11char_traitsIcEENS_9allocatorIcEEEC1Ej(%"class.std::__1::basic_stringbuf"* %__sb_5, i32 %15)
          to label %invoke.cont7 unwind label %lpad6

invoke.cont7:                                     ; preds = %invoke.cont
  ret void

lpad:                                             ; preds = %entry
  %16 = landingpad { i8*, i32 }
          cleanup
  %17 = extractvalue { i8*, i32 } %16, 0
  store i8* %17, i8** %exn.slot, align 8
  %18 = extractvalue { i8*, i32 } %16, 1
  store i32 %18, i32* %ehselector.slot, align 4
  br label %ehcleanup

lpad6:                                            ; preds = %invoke.cont
  %19 = landingpad { i8*, i32 }
          cleanup
  %20 = extractvalue { i8*, i32 } %19, 0
  store i8* %20, i8** %exn.slot, align 8
  %21 = extractvalue { i8*, i32 } %19, 1
  store i32 %21, i32* %ehselector.slot, align 4
  %22 = bitcast %"class.std::__1::basic_stringstream"* %this1 to %"class.std::__1::basic_iostream"*
  call void @_ZNSt3__114basic_iostreamIcNS_11char_traitsIcEEED2Ev(%"class.std::__1::basic_iostream"* %22, i8** getelementptr inbounds ([10 x i8*], [10 x i8*]* @_ZTTNSt3__118basic_stringstreamIcNS_11char_traitsIcEENS_9allocatorIcEEEE, i64 0, i64 1)) #2
  br label %ehcleanup

ehcleanup:                                        ; preds = %lpad6, %lpad
  %23 = bitcast %"class.std::__1::basic_stringstream"* %this1 to i8*
  %24 = getelementptr inbounds i8, i8* %23, i64 128
  %25 = bitcast i8* %24 to %"class.std::__1::basic_ios"*
  call void @_ZNSt3__19basic_iosIcNS_11char_traitsIcEEED2Ev(%"class.std::__1::basic_ios"* %25) #2
  br label %eh.resume

eh.resume:                                        ; preds = %ehcleanup
  %exn = load i8*, i8** %exn.slot, align 8
  %sel = load i32, i32* %ehselector.slot, align 4
  %lpad.val = insertvalue { i8*, i32 } undef, i8* %exn, 0
  %lpad.val8 = insertvalue { i8*, i32 } %lpad.val, i32 %sel, 1
  resume { i8*, i32 } %lpad.val8
}

declare dereferenceable(160) %"class.std::__1::basic_ostream"* @_ZNSt3__113basic_ostreamIcNS_11char_traitsIcEEElsEPKv(%"class.std::__1::basic_ostream"*, i8*) #5

declare i32 @__gxx_personality_v0(...)

; Function Attrs: noinline optnone ssp uwtable
define internal void @_ZNSt3__1plIcNS_11char_traitsIcEENS_9allocatorIcEEEENS_12basic_stringIT_T0_T1_EEOS9_PKS6_(%"class.std::__1::basic_string"* noalias sret %agg.result, %"class.std::__1::basic_string"* dereferenceable(24) %__lhs, i8* %__rhs) #4 {
entry:
  %__lhs.addr = alloca %"class.std::__1::basic_string"*, align 8
  %__rhs.addr = alloca i8*, align 8
  store %"class.std::__1::basic_string"* %__lhs, %"class.std::__1::basic_string"** %__lhs.addr, align 8
  store i8* %__rhs, i8** %__rhs.addr, align 8
  %0 = load %"class.std::__1::basic_string"*, %"class.std::__1::basic_string"** %__lhs.addr, align 8
  %1 = load i8*, i8** %__rhs.addr, align 8
  %call = call dereferenceable(24) %"class.std::__1::basic_string"* @_ZNSt3__112basic_stringIcNS_11char_traitsIcEENS_9allocatorIcEEE6appendEPKc(%"class.std::__1::basic_string"* %0, i8* %1)
  %call1 = call dereferenceable(24) %"class.std::__1::basic_string"* @_ZNSt3__1L4moveIRNS_12basic_stringIcNS_11char_traitsIcEENS_9allocatorIcEEEEEEONS_16remove_referenceIT_E4typeEOS9_(%"class.std::__1::basic_string"* dereferenceable(24) %call) #2
  call void @_ZNSt3__112basic_stringIcNS_11char_traitsIcEENS_9allocatorIcEEEC1EOS5_(%"class.std::__1::basic_string"* %agg.result, %"class.std::__1::basic_string"* dereferenceable(24) %call1) #2
  ret void
}

; Function Attrs: noinline optnone ssp uwtable
define internal void @_ZNSt3__1plIcNS_11char_traitsIcEENS_9allocatorIcEEEENS_12basic_stringIT_T0_T1_EEPKS6_OS9_(%"class.std::__1::basic_string"* noalias sret %agg.result, i8* %__lhs, %"class.std::__1::basic_string"* dereferenceable(24) %__rhs) #4 {
entry:
  %__lhs.addr = alloca i8*, align 8
  %__rhs.addr = alloca %"class.std::__1::basic_string"*, align 8
  store i8* %__lhs, i8** %__lhs.addr, align 8
  store %"class.std::__1::basic_string"* %__rhs, %"class.std::__1::basic_string"** %__rhs.addr, align 8
  %0 = load %"class.std::__1::basic_string"*, %"class.std::__1::basic_string"** %__rhs.addr, align 8
  %1 = load i8*, i8** %__lhs.addr, align 8
  %call = call dereferenceable(24) %"class.std::__1::basic_string"* @_ZNSt3__112basic_stringIcNS_11char_traitsIcEENS_9allocatorIcEEE6insertEmPKc(%"class.std::__1::basic_string"* %0, i64 0, i8* %1)
  %call1 = call dereferenceable(24) %"class.std::__1::basic_string"* @_ZNSt3__1L4moveIRNS_12basic_stringIcNS_11char_traitsIcEENS_9allocatorIcEEEEEEONS_16remove_referenceIT_E4typeEOS9_(%"class.std::__1::basic_string"* dereferenceable(24) %call) #2
  call void @_ZNSt3__112basic_stringIcNS_11char_traitsIcEENS_9allocatorIcEEEC1EOS5_(%"class.std::__1::basic_string"* %agg.result, %"class.std::__1::basic_string"* dereferenceable(24) %call1) #2
  ret void
}

; Function Attrs: noinline optnone ssp uwtable
define internal void @_ZNKSt3__118basic_stringstreamIcNS_11char_traitsIcEENS_9allocatorIcEEE3strEv(%"class.std::__1::basic_string"* noalias sret %agg.result, %"class.std::__1::basic_stringstream"* %this) #4 align 2 {
entry:
  %this.addr = alloca %"class.std::__1::basic_stringstream"*, align 8
  store %"class.std::__1::basic_stringstream"* %this, %"class.std::__1::basic_stringstream"** %this.addr, align 8
  %this1 = load %"class.std::__1::basic_stringstream"*, %"class.std::__1::basic_stringstream"** %this.addr, align 8
  %__sb_ = getelementptr inbounds %"class.std::__1::basic_stringstream", %"class.std::__1::basic_stringstream"* %this1, i32 0, i32 1
  call void @_ZNKSt3__115basic_stringbufIcNS_11char_traitsIcEENS_9allocatorIcEEE3strEv(%"class.std::__1::basic_string"* sret %agg.result, %"class.std::__1::basic_stringbuf"* %__sb_)
  ret void
}

; Function Attrs: noinline optnone ssp uwtable
define linkonce_odr dereferenceable(24) %"class.std::__1::basic_string"* @_ZNSt3__13mapINS_12basic_stringIcNS_11char_traitsIcEENS_9allocatorIcEEEES6_NS_4lessIS6_EENS4_INS_4pairIKS6_S6_EEEEEixERSA_(%"class.std::__1::map"* %this, %"class.std::__1::basic_string"* dereferenceable(24) %__k) #4 align 2 {
entry:
  %this.addr = alloca %"class.std::__1::map"*, align 8
  %__k.addr = alloca %"class.std::__1::basic_string"*, align 8
  %ref.tmp = alloca %"struct.std::__1::pair.16", align 8
  %ref.tmp2 = alloca %"class.std::__1::tuple", align 8
  %ref.tmp5 = alloca %"class.std::__1::tuple.17", align 1
  %undef.agg.tmp = alloca %"class.std::__1::tuple.17", align 1
  store %"class.std::__1::map"* %this, %"class.std::__1::map"** %this.addr, align 8
  store %"class.std::__1::basic_string"* %__k, %"class.std::__1::basic_string"** %__k.addr, align 8
  %this1 = load %"class.std::__1::map"*, %"class.std::__1::map"** %this.addr, align 8
  %__tree_ = getelementptr inbounds %"class.std::__1::map", %"class.std::__1::map"* %this1, i32 0, i32 0
  %0 = load %"class.std::__1::basic_string"*, %"class.std::__1::basic_string"** %__k.addr, align 8
  %1 = load %"class.std::__1::basic_string"*, %"class.std::__1::basic_string"** %__k.addr, align 8
  %call = call %"class.std::__1::basic_string"* @_ZNSt3__1L16forward_as_tupleIJRKNS_12basic_stringIcNS_11char_traitsIcEENS_9allocatorIcEEEEEEENS_5tupleIJDpOT_EEESC_(%"class.std::__1::basic_string"* dereferenceable(24) %1) #2
  %coerce.dive = getelementptr inbounds %"class.std::__1::tuple", %"class.std::__1::tuple"* %ref.tmp2, i32 0, i32 0
  %coerce.dive3 = getelementptr inbounds %"struct.std::__1::__tuple_impl", %"struct.std::__1::__tuple_impl"* %coerce.dive, i32 0, i32 0
  %coerce.dive4 = getelementptr inbounds %"class.std::__1::__tuple_leaf", %"class.std::__1::__tuple_leaf"* %coerce.dive3, i32 0, i32 0
  store %"class.std::__1::basic_string"* %call, %"class.std::__1::basic_string"** %coerce.dive4, align 8
  call void @_ZNSt3__1L16forward_as_tupleIJEEENS_5tupleIJDpOT_EEES4_() #2
  %call6 = call { %"class.std::__1::__tree_end_node"*, i8 } @_ZNSt3__16__treeINS_12__value_typeINS_12basic_stringIcNS_11char_traitsIcEENS_9allocatorIcEEEES7_EENS_19__map_value_compareIS7_S8_NS_4lessIS7_EELb1EEENS5_IS8_EEE25__emplace_unique_key_argsIS7_JRKNS_21piecewise_construct_tENS_5tupleIJRKS7_EEENSJ_IJEEEEEENS_4pairINS_15__tree_iteratorIS8_PNS_11__tree_nodeIS8_PvEElEEbEERKT_DpOT0_(%"class.std::__1::__tree"* %__tree_, %"class.std::__1::basic_string"* dereferenceable(24) %0, %"struct.std::__1::piecewise_construct_t"* dereferenceable(1) @_ZNSt3__1L19piecewise_constructE, %"class.std::__1::tuple"* dereferenceable(8) %ref.tmp2, %"class.std::__1::tuple.17"* dereferenceable(1) %ref.tmp5)
  %2 = bitcast %"struct.std::__1::pair.16"* %ref.tmp to { %"class.std::__1::__tree_end_node"*, i8 }*
  %3 = getelementptr inbounds { %"class.std::__1::__tree_end_node"*, i8 }, { %"class.std::__1::__tree_end_node"*, i8 }* %2, i32 0, i32 0
  %4 = extractvalue { %"class.std::__1::__tree_end_node"*, i8 } %call6, 0
  store %"class.std::__1::__tree_end_node"* %4, %"class.std::__1::__tree_end_node"** %3, align 8
  %5 = getelementptr inbounds { %"class.std::__1::__tree_end_node"*, i8 }, { %"class.std::__1::__tree_end_node"*, i8 }* %2, i32 0, i32 1
  %6 = extractvalue { %"class.std::__1::__tree_end_node"*, i8 } %call6, 1
  store i8 %6, i8* %5, align 8
  %first = getelementptr inbounds %"struct.std::__1::pair.16", %"struct.std::__1::pair.16"* %ref.tmp, i32 0, i32 0
  %call7 = call %"struct.std::__1::__value_type"* @_ZNKSt3__115__tree_iteratorINS_12__value_typeINS_12basic_stringIcNS_11char_traitsIcEENS_9allocatorIcEEEES7_EEPNS_11__tree_nodeIS8_PvEElEptEv(%"class.std::__1::__tree_iterator"* %first)
  %call8 = call dereferenceable(48) %"struct.std::__1::pair"* @_ZNSt3__112__value_typeINS_12basic_stringIcNS_11char_traitsIcEENS_9allocatorIcEEEES6_E11__get_valueEv(%"struct.std::__1::__value_type"* %call7)
  %second = getelementptr inbounds %"struct.std::__1::pair", %"struct.std::__1::pair"* %call8, i32 0, i32 1
  ret %"class.std::__1::basic_string"* %second
}

; Function Attrs: noinline optnone ssp uwtable
define internal dereferenceable(24) %"class.std::__1::basic_string"* @_ZNSt3__112basic_stringIcNS_11char_traitsIcEENS_9allocatorIcEEEaSEPKc(%"class.std::__1::basic_string"* %this, i8* %__s) #4 align 2 {
entry:
  %this.addr = alloca %"class.std::__1::basic_string"*, align 8
  %__s.addr = alloca i8*, align 8
  store %"class.std::__1::basic_string"* %this, %"class.std::__1::basic_string"** %this.addr, align 8
  store i8* %__s, i8** %__s.addr, align 8
  %this1 = load %"class.std::__1::basic_string"*, %"class.std::__1::basic_string"** %this.addr, align 8
  %0 = load i8*, i8** %__s.addr, align 8
  %call = call dereferenceable(24) %"class.std::__1::basic_string"* @_ZNSt3__112basic_stringIcNS_11char_traitsIcEENS_9allocatorIcEEE6assignEPKc(%"class.std::__1::basic_string"* %this1, i8* %0)
  ret %"class.std::__1::basic_string"* %call
}

; Function Attrs: noinline optnone ssp uwtable
define linkonce_odr dereferenceable(160) %"class.std::__1::basic_ostream"* @_ZNSt3__1lsINS_11char_traitsIcEEEERNS_13basic_ostreamIcT_EES6_PKc(%"class.std::__1::basic_ostream"* dereferenceable(160) %__os, i8* %__str) #4 {
entry:
  %__os.addr = alloca %"class.std::__1::basic_ostream"*, align 8
  %__str.addr = alloca i8*, align 8
  store %"class.std::__1::basic_ostream"* %__os, %"class.std::__1::basic_ostream"** %__os.addr, align 8
  store i8* %__str, i8** %__str.addr, align 8
  %0 = load %"class.std::__1::basic_ostream"*, %"class.std::__1::basic_ostream"** %__os.addr, align 8
  %1 = load i8*, i8** %__str.addr, align 8
  %2 = load i8*, i8** %__str.addr, align 8
  %call = call i64 @_ZNSt3__111char_traitsIcE6lengthEPKc(i8* %2) #2
  %call1 = call dereferenceable(160) %"class.std::__1::basic_ostream"* @_ZNSt3__124__put_character_sequenceIcNS_11char_traitsIcEEEERNS_13basic_ostreamIT_T0_EES7_PKS4_m(%"class.std::__1::basic_ostream"* dereferenceable(160) %0, i8* %1, i64 %call)
  ret %"class.std::__1::basic_ostream"* %call1
}

; Function Attrs: noinline optnone ssp uwtable
define linkonce_odr dereferenceable(160) %"class.std::__1::basic_ostream"* @_ZNSt3__1lsIcNS_11char_traitsIcEENS_9allocatorIcEEEERNS_13basic_ostreamIT_T0_EES9_RKNS_12basic_stringIS6_S7_T1_EE(%"class.std::__1::basic_ostream"* dereferenceable(160) %__os, %"class.std::__1::basic_string"* dereferenceable(24) %__str) #4 {
entry:
  %__os.addr = alloca %"class.std::__1::basic_ostream"*, align 8
  %__str.addr = alloca %"class.std::__1::basic_string"*, align 8
  store %"class.std::__1::basic_ostream"* %__os, %"class.std::__1::basic_ostream"** %__os.addr, align 8
  store %"class.std::__1::basic_string"* %__str, %"class.std::__1::basic_string"** %__str.addr, align 8
  %0 = load %"class.std::__1::basic_ostream"*, %"class.std::__1::basic_ostream"** %__os.addr, align 8
  %1 = load %"class.std::__1::basic_string"*, %"class.std::__1::basic_string"** %__str.addr, align 8
  %call = call i8* @_ZNKSt3__112basic_stringIcNS_11char_traitsIcEENS_9allocatorIcEEE4dataEv(%"class.std::__1::basic_string"* %1) #2
  %2 = load %"class.std::__1::basic_string"*, %"class.std::__1::basic_string"** %__str.addr, align 8
  %call1 = call i64 @_ZNKSt3__112basic_stringIcNS_11char_traitsIcEENS_9allocatorIcEEE4sizeEv(%"class.std::__1::basic_string"* %2) #2
  %call2 = call dereferenceable(160) %"class.std::__1::basic_ostream"* @_ZNSt3__124__put_character_sequenceIcNS_11char_traitsIcEEEERNS_13basic_ostreamIT_T0_EES7_PKS4_m(%"class.std::__1::basic_ostream"* dereferenceable(160) %0, i8* %call, i64 %call1)
  ret %"class.std::__1::basic_ostream"* %call2
}

; Function Attrs: noinline nounwind optnone ssp uwtable
define linkonce_odr void @_ZNSt3__118basic_stringstreamIcNS_11char_traitsIcEENS_9allocatorIcEEED1Ev(%"class.std::__1::basic_stringstream"* %this) unnamed_addr #1 align 2 {
entry:
  %this.addr = alloca %"class.std::__1::basic_stringstream"*, align 8
  store %"class.std::__1::basic_stringstream"* %this, %"class.std::__1::basic_stringstream"** %this.addr, align 8
  %this1 = load %"class.std::__1::basic_stringstream"*, %"class.std::__1::basic_stringstream"** %this.addr, align 8
  call void @_ZNSt3__118basic_stringstreamIcNS_11char_traitsIcEENS_9allocatorIcEEED2Ev(%"class.std::__1::basic_stringstream"* %this1, i8** getelementptr inbounds ([10 x i8*], [10 x i8*]* @_ZTTNSt3__118basic_stringstreamIcNS_11char_traitsIcEENS_9allocatorIcEEEE, i64 0, i64 0)) #2
  %0 = bitcast %"class.std::__1::basic_stringstream"* %this1 to i8*
  %1 = getelementptr inbounds i8, i8* %0, i64 128
  %2 = bitcast i8* %1 to %"class.std::__1::basic_ios"*
  call void @_ZNSt3__19basic_iosIcNS_11char_traitsIcEEED2Ev(%"class.std::__1::basic_ios"* %2) #2
  ret void
}

; Function Attrs: noinline optnone ssp uwtable
define void @stg_symbolic_variable_float(float* %addr, i8* %name) #4 personality i8* bitcast (i32 (...)* @__gxx_personality_v0 to i8*) {
entry:
  %addr.addr = alloca float*, align 8
  %name.addr = alloca i8*, align 8
  %address = alloca %"class.std::__1::basic_stringstream", align 8
  %exn.slot = alloca i8*
  %ehselector.slot = alloca i32
  %key = alloca %"class.std::__1::basic_string", align 8
  %ref.tmp = alloca %"class.std::__1::basic_string", align 8
  %ref.tmp1 = alloca %"class.std::__1::basic_string", align 8
  store float* %addr, float** %addr.addr, align 8
  store i8* %name, i8** %name.addr, align 8
  call void @_ZNSt3__118basic_stringstreamIcNS_11char_traitsIcEENS_9allocatorIcEEEC1Ej(%"class.std::__1::basic_stringstream"* %address, i32 24)
  %0 = bitcast %"class.std::__1::basic_stringstream"* %address to i8*
  %add.ptr = getelementptr inbounds i8, i8* %0, i64 16
  %1 = bitcast i8* %add.ptr to %"class.std::__1::basic_ostream"*
  %2 = load float*, float** %addr.addr, align 8
  %3 = bitcast float* %2 to i8*
  %call = invoke dereferenceable(160) %"class.std::__1::basic_ostream"* @_ZNSt3__113basic_ostreamIcNS_11char_traitsIcEEElsEPKv(%"class.std::__1::basic_ostream"* %1, i8* %3)
          to label %invoke.cont unwind label %lpad

invoke.cont:                                      ; preds = %entry
  invoke void @_ZNKSt3__118basic_stringstreamIcNS_11char_traitsIcEENS_9allocatorIcEEE3strEv(%"class.std::__1::basic_string"* sret %ref.tmp1, %"class.std::__1::basic_stringstream"* %address)
          to label %invoke.cont2 unwind label %lpad

invoke.cont2:                                     ; preds = %invoke.cont
  invoke void @_ZNSt3__1plIcNS_11char_traitsIcEENS_9allocatorIcEEEENS_12basic_stringIT_T0_T1_EEPKS6_OS9_(%"class.std::__1::basic_string"* sret %ref.tmp, i8* getelementptr inbounds ([3 x i8], [3 x i8]* @.str, i32 0, i32 0), %"class.std::__1::basic_string"* dereferenceable(24) %ref.tmp1)
          to label %invoke.cont4 unwind label %lpad3

invoke.cont4:                                     ; preds = %invoke.cont2
  invoke void @_ZNSt3__1plIcNS_11char_traitsIcEENS_9allocatorIcEEEENS_12basic_stringIT_T0_T1_EEOS9_PKS6_(%"class.std::__1::basic_string"* sret %key, %"class.std::__1::basic_string"* dereferenceable(24) %ref.tmp, i8* getelementptr inbounds ([2 x i8], [2 x i8]* @.str.8, i32 0, i32 0))
          to label %invoke.cont6 unwind label %lpad5

invoke.cont6:                                     ; preds = %invoke.cont4
  call void @_ZNSt3__112basic_stringIcNS_11char_traitsIcEENS_9allocatorIcEEED1Ev(%"class.std::__1::basic_string"* %ref.tmp) #2
  call void @_ZNSt3__112basic_stringIcNS_11char_traitsIcEENS_9allocatorIcEEED1Ev(%"class.std::__1::basic_string"* %ref.tmp1) #2
  %4 = load i8*, i8** %name.addr, align 8
  %call9 = invoke dereferenceable(24) %"class.std::__1::basic_string"* @_ZNSt3__13mapINS_12basic_stringIcNS_11char_traitsIcEENS_9allocatorIcEEEES6_NS_4lessIS6_EENS4_INS_4pairIKS6_S6_EEEEEixERSA_(%"class.std::__1::map"* @sym_var_map, %"class.std::__1::basic_string"* dereferenceable(24) %key)
          to label %invoke.cont8 unwind label %lpad7

invoke.cont8:                                     ; preds = %invoke.cont6
  %call11 = invoke dereferenceable(24) %"class.std::__1::basic_string"* @_ZNSt3__112basic_stringIcNS_11char_traitsIcEENS_9allocatorIcEEEaSEPKc(%"class.std::__1::basic_string"* %call9, i8* %4)
          to label %invoke.cont10 unwind label %lpad7

invoke.cont10:                                    ; preds = %invoke.cont8
  %5 = load i8*, i8** %name.addr, align 8
  %call13 = invoke dereferenceable(24) %"class.std::__1::basic_string"* @_ZNSt3__13mapINS_12basic_stringIcNS_11char_traitsIcEENS_9allocatorIcEEEES6_NS_4lessIS6_EENS4_INS_4pairIKS6_S6_EEEEEixERSA_(%"class.std::__1::map"* @sym_state, %"class.std::__1::basic_string"* dereferenceable(24) %key)
          to label %invoke.cont12 unwind label %lpad7

invoke.cont12:                                    ; preds = %invoke.cont10
  %call15 = invoke dereferenceable(24) %"class.std::__1::basic_string"* @_ZNSt3__112basic_stringIcNS_11char_traitsIcEENS_9allocatorIcEEEaSEPKc(%"class.std::__1::basic_string"* %call13, i8* %5)
          to label %invoke.cont14 unwind label %lpad7

invoke.cont14:                                    ; preds = %invoke.cont12
  %call17 = invoke dereferenceable(160) %"class.std::__1::basic_ostream"* @_ZNSt3__1lsINS_11char_traitsIcEEEERNS_13basic_ostreamIcT_EES6_PKc(%"class.std::__1::basic_ostream"* dereferenceable(160) bitcast (%"class.std::__1::basic_ofstream"* @stg_state to %"class.std::__1::basic_ostream"*), i8* getelementptr inbounds ([7 x i8], [7 x i8]* @.str.9, i32 0, i32 0))
          to label %invoke.cont16 unwind label %lpad7

invoke.cont16:                                    ; preds = %invoke.cont14
  %call19 = invoke dereferenceable(160) %"class.std::__1::basic_ostream"* @_ZNSt3__1lsIcNS_11char_traitsIcEENS_9allocatorIcEEEERNS_13basic_ostreamIT_T0_EES9_RKNS_12basic_stringIS6_S7_T1_EE(%"class.std::__1::basic_ostream"* dereferenceable(160) %call17, %"class.std::__1::basic_string"* dereferenceable(24) %key)
          to label %invoke.cont18 unwind label %lpad7

invoke.cont18:                                    ; preds = %invoke.cont16
  %call21 = invoke dereferenceable(160) %"class.std::__1::basic_ostream"* @_ZNSt3__1lsINS_11char_traitsIcEEEERNS_13basic_ostreamIcT_EES6_PKc(%"class.std::__1::basic_ostream"* dereferenceable(160) %call19, i8* getelementptr inbounds ([6 x i8], [6 x i8]* @.str.10, i32 0, i32 0))
          to label %invoke.cont20 unwind label %lpad7

invoke.cont20:                                    ; preds = %invoke.cont18
  %6 = load i8*, i8** %name.addr, align 8
  %call23 = invoke dereferenceable(160) %"class.std::__1::basic_ostream"* @_ZNSt3__1lsINS_11char_traitsIcEEEERNS_13basic_ostreamIcT_EES6_PKc(%"class.std::__1::basic_ostream"* dereferenceable(160) %call21, i8* %6)
          to label %invoke.cont22 unwind label %lpad7

invoke.cont22:                                    ; preds = %invoke.cont20
  %call25 = invoke dereferenceable(160) %"class.std::__1::basic_ostream"* @_ZNSt3__1lsINS_11char_traitsIcEEEERNS_13basic_ostreamIcT_EES6_PKc(%"class.std::__1::basic_ostream"* dereferenceable(160) %call23, i8* getelementptr inbounds ([3 x i8], [3 x i8]* @.str.11, i32 0, i32 0))
          to label %invoke.cont24 unwind label %lpad7

invoke.cont24:                                    ; preds = %invoke.cont22
  %7 = load i8, i8* @needComma, align 1
  %tobool = trunc i8 %7 to i1
  br i1 %tobool, label %if.then, label %if.else

if.then:                                          ; preds = %invoke.cont24
  %call27 = invoke dereferenceable(160) %"class.std::__1::basic_ostream"* @_ZNSt3__1lsINS_11char_traitsIcEEEERNS_13basic_ostreamIcT_EES6_PKc(%"class.std::__1::basic_ostream"* dereferenceable(160) bitcast (%"class.std::__1::basic_ofstream"* @stg_pc to %"class.std::__1::basic_ostream"*), i8* getelementptr inbounds ([3 x i8], [3 x i8]* @.str.12, i32 0, i32 0))
          to label %invoke.cont26 unwind label %lpad7

invoke.cont26:                                    ; preds = %if.then
  br label %if.end

lpad:                                             ; preds = %invoke.cont, %entry
  %8 = landingpad { i8*, i32 }
          cleanup
  %9 = extractvalue { i8*, i32 } %8, 0
  store i8* %9, i8** %exn.slot, align 8
  %10 = extractvalue { i8*, i32 } %8, 1
  store i32 %10, i32* %ehselector.slot, align 4
  br label %ehcleanup33

lpad3:                                            ; preds = %invoke.cont2
  %11 = landingpad { i8*, i32 }
          cleanup
  %12 = extractvalue { i8*, i32 } %11, 0
  store i8* %12, i8** %exn.slot, align 8
  %13 = extractvalue { i8*, i32 } %11, 1
  store i32 %13, i32* %ehselector.slot, align 4
  br label %ehcleanup

lpad5:                                            ; preds = %invoke.cont4
  %14 = landingpad { i8*, i32 }
          cleanup
  %15 = extractvalue { i8*, i32 } %14, 0
  store i8* %15, i8** %exn.slot, align 8
  %16 = extractvalue { i8*, i32 } %14, 1
  store i32 %16, i32* %ehselector.slot, align 4
  call void @_ZNSt3__112basic_stringIcNS_11char_traitsIcEENS_9allocatorIcEEED1Ev(%"class.std::__1::basic_string"* %ref.tmp) #2
  br label %ehcleanup

ehcleanup:                                        ; preds = %lpad5, %lpad3
  call void @_ZNSt3__112basic_stringIcNS_11char_traitsIcEENS_9allocatorIcEEED1Ev(%"class.std::__1::basic_string"* %ref.tmp1) #2
  br label %ehcleanup33

lpad7:                                            ; preds = %invoke.cont28, %if.end, %if.then, %invoke.cont22, %invoke.cont20, %invoke.cont18, %invoke.cont16, %invoke.cont14, %invoke.cont12, %invoke.cont10, %invoke.cont8, %invoke.cont6
  %17 = landingpad { i8*, i32 }
          cleanup
  %18 = extractvalue { i8*, i32 } %17, 0
  store i8* %18, i8** %exn.slot, align 8
  %19 = extractvalue { i8*, i32 } %17, 1
  store i32 %19, i32* %ehselector.slot, align 4
  call void @_ZNSt3__112basic_stringIcNS_11char_traitsIcEENS_9allocatorIcEEED1Ev(%"class.std::__1::basic_string"* %key) #2
  br label %ehcleanup33

if.else:                                          ; preds = %invoke.cont24
  store i8 1, i8* @needComma, align 1
  br label %if.end

if.end:                                           ; preds = %if.else, %invoke.cont26
  %20 = load i8*, i8** %name.addr, align 8
  %call29 = invoke dereferenceable(160) %"class.std::__1::basic_ostream"* @_ZNSt3__1lsINS_11char_traitsIcEEEERNS_13basic_ostreamIcT_EES6_PKc(%"class.std::__1::basic_ostream"* dereferenceable(160) bitcast (%"class.std::__1::basic_ofstream"* @stg_pc to %"class.std::__1::basic_ostream"*), i8* %20)
          to label %invoke.cont28 unwind label %lpad7

invoke.cont28:                                    ; preds = %if.end
  %call31 = invoke dereferenceable(160) %"class.std::__1::basic_ostream"* @_ZNSt3__1lsINS_11char_traitsIcEEEERNS_13basic_ostreamIcT_EES6_PKc(%"class.std::__1::basic_ostream"* dereferenceable(160) %call29, i8* getelementptr inbounds ([9 x i8], [9 x i8]* @.str.14, i32 0, i32 0))
          to label %invoke.cont30 unwind label %lpad7

invoke.cont30:                                    ; preds = %invoke.cont28
  call void @_ZNSt3__112basic_stringIcNS_11char_traitsIcEENS_9allocatorIcEEED1Ev(%"class.std::__1::basic_string"* %key) #2
  call void @_ZNSt3__118basic_stringstreamIcNS_11char_traitsIcEENS_9allocatorIcEEED1Ev(%"class.std::__1::basic_stringstream"* %address) #2
  ret void

ehcleanup33:                                      ; preds = %lpad7, %ehcleanup, %lpad
  call void @_ZNSt3__118basic_stringstreamIcNS_11char_traitsIcEENS_9allocatorIcEEED1Ev(%"class.std::__1::basic_stringstream"* %address) #2
  br label %eh.resume

eh.resume:                                        ; preds = %ehcleanup33
  %exn = load i8*, i8** %exn.slot, align 8
  %sel = load i32, i32* %ehselector.slot, align 4
  %lpad.val = insertvalue { i8*, i32 } undef, i8* %exn, 0
  %lpad.val34 = insertvalue { i8*, i32 } %lpad.val, i32 %sel, 1
  resume { i8*, i32 } %lpad.val34
}

; Function Attrs: noinline optnone ssp uwtable
define void @stg_symbolic_variable_double(double* %addr, i8* %name) #4 personality i8* bitcast (i32 (...)* @__gxx_personality_v0 to i8*) {
entry:
  %addr.addr = alloca double*, align 8
  %name.addr = alloca i8*, align 8
  %address = alloca %"class.std::__1::basic_stringstream", align 8
  %exn.slot = alloca i8*
  %ehselector.slot = alloca i32
  %key = alloca %"class.std::__1::basic_string", align 8
  %ref.tmp = alloca %"class.std::__1::basic_string", align 8
  %ref.tmp1 = alloca %"class.std::__1::basic_string", align 8
  store double* %addr, double** %addr.addr, align 8
  store i8* %name, i8** %name.addr, align 8
  call void @_ZNSt3__118basic_stringstreamIcNS_11char_traitsIcEENS_9allocatorIcEEEC1Ej(%"class.std::__1::basic_stringstream"* %address, i32 24)
  %0 = bitcast %"class.std::__1::basic_stringstream"* %address to i8*
  %add.ptr = getelementptr inbounds i8, i8* %0, i64 16
  %1 = bitcast i8* %add.ptr to %"class.std::__1::basic_ostream"*
  %2 = load double*, double** %addr.addr, align 8
  %3 = bitcast double* %2 to i8*
  %call = invoke dereferenceable(160) %"class.std::__1::basic_ostream"* @_ZNSt3__113basic_ostreamIcNS_11char_traitsIcEEElsEPKv(%"class.std::__1::basic_ostream"* %1, i8* %3)
          to label %invoke.cont unwind label %lpad

invoke.cont:                                      ; preds = %entry
  invoke void @_ZNKSt3__118basic_stringstreamIcNS_11char_traitsIcEENS_9allocatorIcEEE3strEv(%"class.std::__1::basic_string"* sret %ref.tmp1, %"class.std::__1::basic_stringstream"* %address)
          to label %invoke.cont2 unwind label %lpad

invoke.cont2:                                     ; preds = %invoke.cont
  invoke void @_ZNSt3__1plIcNS_11char_traitsIcEENS_9allocatorIcEEEENS_12basic_stringIT_T0_T1_EEPKS6_OS9_(%"class.std::__1::basic_string"* sret %ref.tmp, i8* getelementptr inbounds ([3 x i8], [3 x i8]* @.str, i32 0, i32 0), %"class.std::__1::basic_string"* dereferenceable(24) %ref.tmp1)
          to label %invoke.cont4 unwind label %lpad3

invoke.cont4:                                     ; preds = %invoke.cont2
  invoke void @_ZNSt3__1plIcNS_11char_traitsIcEENS_9allocatorIcEEEENS_12basic_stringIT_T0_T1_EEOS9_PKS6_(%"class.std::__1::basic_string"* sret %key, %"class.std::__1::basic_string"* dereferenceable(24) %ref.tmp, i8* getelementptr inbounds ([2 x i8], [2 x i8]* @.str.8, i32 0, i32 0))
          to label %invoke.cont6 unwind label %lpad5

invoke.cont6:                                     ; preds = %invoke.cont4
  call void @_ZNSt3__112basic_stringIcNS_11char_traitsIcEENS_9allocatorIcEEED1Ev(%"class.std::__1::basic_string"* %ref.tmp) #2
  call void @_ZNSt3__112basic_stringIcNS_11char_traitsIcEENS_9allocatorIcEEED1Ev(%"class.std::__1::basic_string"* %ref.tmp1) #2
  %4 = load i8*, i8** %name.addr, align 8
  %call9 = invoke dereferenceable(24) %"class.std::__1::basic_string"* @_ZNSt3__13mapINS_12basic_stringIcNS_11char_traitsIcEENS_9allocatorIcEEEES6_NS_4lessIS6_EENS4_INS_4pairIKS6_S6_EEEEEixERSA_(%"class.std::__1::map"* @sym_var_map, %"class.std::__1::basic_string"* dereferenceable(24) %key)
          to label %invoke.cont8 unwind label %lpad7

invoke.cont8:                                     ; preds = %invoke.cont6
  %call11 = invoke dereferenceable(24) %"class.std::__1::basic_string"* @_ZNSt3__112basic_stringIcNS_11char_traitsIcEENS_9allocatorIcEEEaSEPKc(%"class.std::__1::basic_string"* %call9, i8* %4)
          to label %invoke.cont10 unwind label %lpad7

invoke.cont10:                                    ; preds = %invoke.cont8
  %5 = load i8*, i8** %name.addr, align 8
  %call13 = invoke dereferenceable(24) %"class.std::__1::basic_string"* @_ZNSt3__13mapINS_12basic_stringIcNS_11char_traitsIcEENS_9allocatorIcEEEES6_NS_4lessIS6_EENS4_INS_4pairIKS6_S6_EEEEEixERSA_(%"class.std::__1::map"* @sym_state, %"class.std::__1::basic_string"* dereferenceable(24) %key)
          to label %invoke.cont12 unwind label %lpad7

invoke.cont12:                                    ; preds = %invoke.cont10
  %call15 = invoke dereferenceable(24) %"class.std::__1::basic_string"* @_ZNSt3__112basic_stringIcNS_11char_traitsIcEENS_9allocatorIcEEEaSEPKc(%"class.std::__1::basic_string"* %call13, i8* %5)
          to label %invoke.cont14 unwind label %lpad7

invoke.cont14:                                    ; preds = %invoke.cont12
  %call17 = invoke dereferenceable(160) %"class.std::__1::basic_ostream"* @_ZNSt3__1lsINS_11char_traitsIcEEEERNS_13basic_ostreamIcT_EES6_PKc(%"class.std::__1::basic_ostream"* dereferenceable(160) bitcast (%"class.std::__1::basic_ofstream"* @stg_state to %"class.std::__1::basic_ostream"*), i8* getelementptr inbounds ([7 x i8], [7 x i8]* @.str.9, i32 0, i32 0))
          to label %invoke.cont16 unwind label %lpad7

invoke.cont16:                                    ; preds = %invoke.cont14
  %call19 = invoke dereferenceable(160) %"class.std::__1::basic_ostream"* @_ZNSt3__1lsIcNS_11char_traitsIcEENS_9allocatorIcEEEERNS_13basic_ostreamIT_T0_EES9_RKNS_12basic_stringIS6_S7_T1_EE(%"class.std::__1::basic_ostream"* dereferenceable(160) %call17, %"class.std::__1::basic_string"* dereferenceable(24) %key)
          to label %invoke.cont18 unwind label %lpad7

invoke.cont18:                                    ; preds = %invoke.cont16
  %call21 = invoke dereferenceable(160) %"class.std::__1::basic_ostream"* @_ZNSt3__1lsINS_11char_traitsIcEEEERNS_13basic_ostreamIcT_EES6_PKc(%"class.std::__1::basic_ostream"* dereferenceable(160) %call19, i8* getelementptr inbounds ([6 x i8], [6 x i8]* @.str.10, i32 0, i32 0))
          to label %invoke.cont20 unwind label %lpad7

invoke.cont20:                                    ; preds = %invoke.cont18
  %6 = load i8*, i8** %name.addr, align 8
  %call23 = invoke dereferenceable(160) %"class.std::__1::basic_ostream"* @_ZNSt3__1lsINS_11char_traitsIcEEEERNS_13basic_ostreamIcT_EES6_PKc(%"class.std::__1::basic_ostream"* dereferenceable(160) %call21, i8* %6)
          to label %invoke.cont22 unwind label %lpad7

invoke.cont22:                                    ; preds = %invoke.cont20
  %call25 = invoke dereferenceable(160) %"class.std::__1::basic_ostream"* @_ZNSt3__1lsINS_11char_traitsIcEEEERNS_13basic_ostreamIcT_EES6_PKc(%"class.std::__1::basic_ostream"* dereferenceable(160) %call23, i8* getelementptr inbounds ([3 x i8], [3 x i8]* @.str.11, i32 0, i32 0))
          to label %invoke.cont24 unwind label %lpad7

invoke.cont24:                                    ; preds = %invoke.cont22
  %7 = load i8, i8* @needComma, align 1
  %tobool = trunc i8 %7 to i1
  br i1 %tobool, label %if.then, label %if.else

if.then:                                          ; preds = %invoke.cont24
  %call27 = invoke dereferenceable(160) %"class.std::__1::basic_ostream"* @_ZNSt3__1lsINS_11char_traitsIcEEEERNS_13basic_ostreamIcT_EES6_PKc(%"class.std::__1::basic_ostream"* dereferenceable(160) bitcast (%"class.std::__1::basic_ofstream"* @stg_pc to %"class.std::__1::basic_ostream"*), i8* getelementptr inbounds ([3 x i8], [3 x i8]* @.str.12, i32 0, i32 0))
          to label %invoke.cont26 unwind label %lpad7

invoke.cont26:                                    ; preds = %if.then
  br label %if.end

lpad:                                             ; preds = %invoke.cont, %entry
  %8 = landingpad { i8*, i32 }
          cleanup
  %9 = extractvalue { i8*, i32 } %8, 0
  store i8* %9, i8** %exn.slot, align 8
  %10 = extractvalue { i8*, i32 } %8, 1
  store i32 %10, i32* %ehselector.slot, align 4
  br label %ehcleanup33

lpad3:                                            ; preds = %invoke.cont2
  %11 = landingpad { i8*, i32 }
          cleanup
  %12 = extractvalue { i8*, i32 } %11, 0
  store i8* %12, i8** %exn.slot, align 8
  %13 = extractvalue { i8*, i32 } %11, 1
  store i32 %13, i32* %ehselector.slot, align 4
  br label %ehcleanup

lpad5:                                            ; preds = %invoke.cont4
  %14 = landingpad { i8*, i32 }
          cleanup
  %15 = extractvalue { i8*, i32 } %14, 0
  store i8* %15, i8** %exn.slot, align 8
  %16 = extractvalue { i8*, i32 } %14, 1
  store i32 %16, i32* %ehselector.slot, align 4
  call void @_ZNSt3__112basic_stringIcNS_11char_traitsIcEENS_9allocatorIcEEED1Ev(%"class.std::__1::basic_string"* %ref.tmp) #2
  br label %ehcleanup

ehcleanup:                                        ; preds = %lpad5, %lpad3
  call void @_ZNSt3__112basic_stringIcNS_11char_traitsIcEENS_9allocatorIcEEED1Ev(%"class.std::__1::basic_string"* %ref.tmp1) #2
  br label %ehcleanup33

lpad7:                                            ; preds = %invoke.cont28, %if.end, %if.then, %invoke.cont22, %invoke.cont20, %invoke.cont18, %invoke.cont16, %invoke.cont14, %invoke.cont12, %invoke.cont10, %invoke.cont8, %invoke.cont6
  %17 = landingpad { i8*, i32 }
          cleanup
  %18 = extractvalue { i8*, i32 } %17, 0
  store i8* %18, i8** %exn.slot, align 8
  %19 = extractvalue { i8*, i32 } %17, 1
  store i32 %19, i32* %ehselector.slot, align 4
  call void @_ZNSt3__112basic_stringIcNS_11char_traitsIcEENS_9allocatorIcEEED1Ev(%"class.std::__1::basic_string"* %key) #2
  br label %ehcleanup33

if.else:                                          ; preds = %invoke.cont24
  store i8 1, i8* @needComma, align 1
  br label %if.end

if.end:                                           ; preds = %if.else, %invoke.cont26
  %20 = load i8*, i8** %name.addr, align 8
  %call29 = invoke dereferenceable(160) %"class.std::__1::basic_ostream"* @_ZNSt3__1lsINS_11char_traitsIcEEEERNS_13basic_ostreamIcT_EES6_PKc(%"class.std::__1::basic_ostream"* dereferenceable(160) bitcast (%"class.std::__1::basic_ofstream"* @stg_pc to %"class.std::__1::basic_ostream"*), i8* %20)
          to label %invoke.cont28 unwind label %lpad7

invoke.cont28:                                    ; preds = %if.end
  %call31 = invoke dereferenceable(160) %"class.std::__1::basic_ostream"* @_ZNSt3__1lsINS_11char_traitsIcEEEERNS_13basic_ostreamIcT_EES6_PKc(%"class.std::__1::basic_ostream"* dereferenceable(160) %call29, i8* getelementptr inbounds ([10 x i8], [10 x i8]* @.str.15, i32 0, i32 0))
          to label %invoke.cont30 unwind label %lpad7

invoke.cont30:                                    ; preds = %invoke.cont28
  call void @_ZNSt3__112basic_stringIcNS_11char_traitsIcEENS_9allocatorIcEEED1Ev(%"class.std::__1::basic_string"* %key) #2
  call void @_ZNSt3__118basic_stringstreamIcNS_11char_traitsIcEENS_9allocatorIcEEED1Ev(%"class.std::__1::basic_stringstream"* %address) #2
  ret void

ehcleanup33:                                      ; preds = %lpad7, %ehcleanup, %lpad
  call void @_ZNSt3__118basic_stringstreamIcNS_11char_traitsIcEENS_9allocatorIcEEED1Ev(%"class.std::__1::basic_stringstream"* %address) #2
  br label %eh.resume

eh.resume:                                        ; preds = %ehcleanup33
  %exn = load i8*, i8** %exn.slot, align 8
  %sel = load i32, i32* %ehselector.slot, align 4
  %lpad.val = insertvalue { i8*, i32 } undef, i8* %exn, 0
  %lpad.val34 = insertvalue { i8*, i32 } %lpad.val, i32 %sel, 1
  resume { i8*, i32 } %lpad.val34
}

; Function Attrs: noinline optnone ssp uwtable
define void @stg_symbolic_array(i8* %array, i8* %type, i32 %num, i8* %prefix) #4 {
entry:
  %array.addr = alloca i8*, align 8
  %type.addr = alloca i8*, align 8
  %num.addr = alloca i32, align 4
  %prefix.addr = alloca i8*, align 8
  %s = alloca i32, align 4
  %d = alloca i32, align 4
  %i = alloca i32, align 4
  %name = alloca i8*, align 8
  %array_addr = alloca i32*, align 8
  %i19 = alloca i32, align 4
  %name23 = alloca i8*, align 8
  %array_addr30 = alloca float*, align 8
  %i40 = alloca i32, align 4
  %name44 = alloca i8*, align 8
  %array_addr51 = alloca double*, align 8
  store i8* %array, i8** %array.addr, align 8
  store i8* %type, i8** %type.addr, align 8
  store i32 %num, i32* %num.addr, align 4
  store i8* %prefix, i8** %prefix.addr, align 8
  %0 = load i8*, i8** %type.addr, align 8
  %call = call i32 @strcmp(i8* %0, i8* getelementptr inbounds ([4 x i8], [4 x i8]* @.str.16, i32 0, i32 0))
  %tobool = icmp ne i32 %call, 0
  br i1 %tobool, label %cond.true, label %cond.false

cond.true:                                        ; preds = %entry
  br label %cond.end

cond.false:                                       ; preds = %entry
  %1 = load i8*, i8** %type.addr, align 8
  %call1 = call i32 @strcmp(i8* %1, i8* getelementptr inbounds ([6 x i8], [6 x i8]* @.str.17, i32 0, i32 0))
  %tobool2 = icmp ne i32 %call1, 0
  %2 = zext i1 %tobool2 to i64
  %cond = select i1 %tobool2, i64 4, i64 8
  br label %cond.end

cond.end:                                         ; preds = %cond.false, %cond.true
  %cond3 = phi i64 [ 4, %cond.true ], [ %cond, %cond.false ]
  %conv = trunc i64 %cond3 to i32
  store i32 %conv, i32* %s, align 4
  %3 = load i32, i32* %s, align 4
  %call4 = call i32 (i8*, ...) @printf(i8* getelementptr inbounds ([7 x i8], [7 x i8]* @.str.18, i32 0, i32 0), i32 %3)
  %4 = load i32, i32* %num.addr, align 4
  %call5 = call i32 @abs(i32 %4) #16
  %call6 = call double @_ZL5log10IiENSt3__19enable_ifIXsr3std11is_integralIT_EE5valueEdE4typeES2_(i32 %call5) #2
  %5 = call double @llvm.floor.f64(double %call6)
  %add = fadd double %5, 1.000000e+00
  %conv7 = fptosi double %add to i32
  store i32 %conv7, i32* %d, align 4
  %6 = load i8*, i8** %type.addr, align 8
  %call8 = call i32 @strcmp(i8* %6, i8* getelementptr inbounds ([4 x i8], [4 x i8]* @.str.16, i32 0, i32 0))
  %cmp = icmp eq i32 %call8, 0
  br i1 %cmp, label %if.then, label %if.else

if.then:                                          ; preds = %cond.end
  store i32 0, i32* %i, align 4
  br label %for.cond

for.cond:                                         ; preds = %for.inc, %if.then
  %7 = load i32, i32* %i, align 4
  %8 = load i32, i32* %num.addr, align 4
  %cmp9 = icmp slt i32 %7, %8
  br i1 %cmp9, label %for.body, label %for.end

for.body:                                         ; preds = %for.cond
  %9 = load i8*, i8** %prefix.addr, align 8
  %call10 = call i64 @strlen(i8* %9)
  %10 = load i32, i32* %d, align 4
  %conv11 = sext i32 %10 to i64
  %add12 = add i64 %call10, %conv11
  %add13 = add i64 %add12, 1
  %call14 = call i8* @malloc(i64 %add13) #17
  store i8* %call14, i8** %name, align 8
  %11 = load i8*, i8** %name, align 8
  %12 = load i8*, i8** %prefix.addr, align 8
  %13 = load i32, i32* %i, align 4
  %call15 = call i32 (i8*, i8*, ...) @sprintf(i8* %11, i8* getelementptr inbounds ([5 x i8], [5 x i8]* @.str.19, i32 0, i32 0), i8* %12, i32 %13)
  %14 = load i8*, i8** %array.addr, align 8
  %15 = bitcast i8* %14 to i32*
  store i32* %15, i32** %array_addr, align 8
  %16 = load i32*, i32** %array_addr, align 8
  %17 = load i32, i32* %i, align 4
  %idx.ext = sext i32 %17 to i64
  %add.ptr = getelementptr inbounds i32, i32* %16, i64 %idx.ext
  %18 = load i8*, i8** %name, align 8
  call void @stg_symbolic_variable_int(i32* %add.ptr, i8* %18)
  br label %for.inc

for.inc:                                          ; preds = %for.body
  %19 = load i32, i32* %i, align 4
  %inc = add nsw i32 %19, 1
  store i32 %inc, i32* %i, align 4
  br label %for.cond

for.end:                                          ; preds = %for.cond
  br label %if.end58

if.else:                                          ; preds = %cond.end
  %20 = load i8*, i8** %type.addr, align 8
  %call16 = call i32 @strcmp(i8* %20, i8* getelementptr inbounds ([6 x i8], [6 x i8]* @.str.17, i32 0, i32 0))
  %cmp17 = icmp eq i32 %call16, 0
  br i1 %cmp17, label %if.then18, label %if.else36

if.then18:                                        ; preds = %if.else
  store i32 0, i32* %i19, align 4
  br label %for.cond20

for.cond20:                                       ; preds = %for.inc33, %if.then18
  %21 = load i32, i32* %i19, align 4
  %22 = load i32, i32* %num.addr, align 4
  %cmp21 = icmp slt i32 %21, %22
  br i1 %cmp21, label %for.body22, label %for.end35

for.body22:                                       ; preds = %for.cond20
  %23 = load i8*, i8** %prefix.addr, align 8
  %call24 = call i64 @strlen(i8* %23)
  %24 = load i32, i32* %d, align 4
  %conv25 = sext i32 %24 to i64
  %add26 = add i64 %call24, %conv25
  %add27 = add i64 %add26, 1
  %call28 = call i8* @malloc(i64 %add27) #17
  store i8* %call28, i8** %name23, align 8
  %25 = load i8*, i8** %name23, align 8
  %26 = load i8*, i8** %prefix.addr, align 8
  %27 = load i32, i32* %i19, align 4
  %call29 = call i32 (i8*, i8*, ...) @sprintf(i8* %25, i8* getelementptr inbounds ([5 x i8], [5 x i8]* @.str.19, i32 0, i32 0), i8* %26, i32 %27)
  %28 = load i8*, i8** %array.addr, align 8
  %29 = bitcast i8* %28 to float*
  store float* %29, float** %array_addr30, align 8
  %30 = load float*, float** %array_addr30, align 8
  %31 = load i32, i32* %i19, align 4
  %idx.ext31 = sext i32 %31 to i64
  %add.ptr32 = getelementptr inbounds float, float* %30, i64 %idx.ext31
  %32 = load i8*, i8** %name23, align 8
  call void @stg_symbolic_variable_float(float* %add.ptr32, i8* %32)
  br label %for.inc33

for.inc33:                                        ; preds = %for.body22
  %33 = load i32, i32* %i19, align 4
  %inc34 = add nsw i32 %33, 1
  store i32 %inc34, i32* %i19, align 4
  br label %for.cond20

for.end35:                                        ; preds = %for.cond20
  br label %if.end57

if.else36:                                        ; preds = %if.else
  %34 = load i8*, i8** %type.addr, align 8
  %call37 = call i32 @strcmp(i8* %34, i8* getelementptr inbounds ([7 x i8], [7 x i8]* @.str.20, i32 0, i32 0))
  %cmp38 = icmp eq i32 %call37, 0
  br i1 %cmp38, label %if.then39, label %if.end

if.then39:                                        ; preds = %if.else36
  store i32 0, i32* %i40, align 4
  br label %for.cond41

for.cond41:                                       ; preds = %for.inc54, %if.then39
  %35 = load i32, i32* %i40, align 4
  %36 = load i32, i32* %num.addr, align 4
  %cmp42 = icmp slt i32 %35, %36
  br i1 %cmp42, label %for.body43, label %for.end56

for.body43:                                       ; preds = %for.cond41
  %37 = load i8*, i8** %prefix.addr, align 8
  %call45 = call i64 @strlen(i8* %37)
  %38 = load i32, i32* %d, align 4
  %conv46 = sext i32 %38 to i64
  %add47 = add i64 %call45, %conv46
  %add48 = add i64 %add47, 1
  %call49 = call i8* @malloc(i64 %add48) #17
  store i8* %call49, i8** %name44, align 8
  %39 = load i8*, i8** %name44, align 8
  %40 = load i8*, i8** %prefix.addr, align 8
  %41 = load i32, i32* %i40, align 4
  %call50 = call i32 (i8*, i8*, ...) @sprintf(i8* %39, i8* getelementptr inbounds ([5 x i8], [5 x i8]* @.str.19, i32 0, i32 0), i8* %40, i32 %41)
  %42 = load i8*, i8** %array.addr, align 8
  %43 = bitcast i8* %42 to double*
  store double* %43, double** %array_addr51, align 8
  %44 = load double*, double** %array_addr51, align 8
  %45 = load i32, i32* %s, align 4
  %46 = load i32, i32* %i40, align 4
  %mul = mul nsw i32 %45, %46
  %idx.ext52 = sext i32 %mul to i64
  %add.ptr53 = getelementptr inbounds double, double* %44, i64 %idx.ext52
  %47 = load i8*, i8** %name44, align 8
  call void @stg_symbolic_variable_double(double* %add.ptr53, i8* %47)
  br label %for.inc54

for.inc54:                                        ; preds = %for.body43
  %48 = load i32, i32* %i40, align 4
  %inc55 = add nsw i32 %48, 1
  store i32 %inc55, i32* %i40, align 4
  br label %for.cond41

for.end56:                                        ; preds = %for.cond41
  br label %if.end

if.end:                                           ; preds = %for.end56, %if.else36
  br label %if.end57

if.end57:                                         ; preds = %if.end, %for.end35
  br label %if.end58

if.end58:                                         ; preds = %if.end57, %for.end
  ret void
}

declare i32 @strcmp(i8*, i8*) #5

declare i32 @printf(i8*, ...) #5

; Function Attrs: noinline nounwind optnone ssp uwtable
define internal double @_ZL5log10IiENSt3__19enable_ifIXsr3std11is_integralIT_EE5valueEdE4typeES2_(i32 %__lcpp_x) #1 {
entry:
  %__lcpp_x.addr = alloca i32, align 4
  store i32 %__lcpp_x, i32* %__lcpp_x.addr, align 4
  %0 = load i32, i32* %__lcpp_x.addr, align 4
  %conv = sitofp i32 %0 to double
  %1 = call double @llvm.log10.f64(double %conv)
  ret double %1
}

; Function Attrs: nounwind readnone
declare i32 @abs(i32) #6

; Function Attrs: nounwind readnone speculatable
declare double @llvm.floor.f64(double) #7

; Function Attrs: allocsize(0)
declare i8* @malloc(i64) #8

declare i64 @strlen(i8*) #5

declare i32 @sprintf(i8*, i8*, ...) #5

; Function Attrs: noinline optnone ssp uwtable
define void @stg_update_cmp(i8* %key, i8* %lhs, i8* %predicateName, i8* %rhs, i8* %type_) #4 personality i8* bitcast (i32 (...)* @__gxx_personality_v0 to i8*) {
entry:
  %key.addr = alloca i8*, align 8
  %lhs.addr = alloca i8*, align 8
  %predicateName.addr = alloca i8*, align 8
  %rhs.addr = alloca i8*, align 8
  %type_.addr = alloca i8*, align 8
  %loperand = alloca %"class.std::__1::basic_string", align 8
  %roperand = alloca %"class.std::__1::basic_string", align 8
  %exn.slot = alloca i8*
  %ehselector.slot = alloca i32
  %type = alloca %"class.std::__1::basic_string", align 8
  %predicate = alloca %"class.std::__1::basic_string", align 8
  %lvalue = alloca %"class.std::__1::basic_string", align 8
  %rvalue = alloca %"class.std::__1::basic_string", align 8
  %itr = alloca %"class.std::__1::__map_iterator", align 8
  %ref.tmp = alloca %"class.std::__1::__map_iterator", align 8
  %ref.tmp19 = alloca %"class.std::__1::__map_iterator", align 8
  %ref.tmp24 = alloca %"class.std::__1::__map_iterator", align 8
  %ref.tmp40 = alloca %"class.std::__1::basic_string", align 8
  %ref.tmp41 = alloca %"class.std::__1::basic_string", align 8
  %ref.tmp42 = alloca %"class.std::__1::basic_string", align 8
  %ref.tmp43 = alloca %"class.std::__1::basic_string", align 8
  %ref.tmp44 = alloca %"class.std::__1::basic_string", align 8
  %ref.tmp45 = alloca %"class.std::__1::basic_string", align 8
  %ref.tmp57 = alloca %"class.std::__1::basic_string", align 8
  %ref.tmp75 = alloca %"class.std::__1::basic_string", align 8
  store i8* %key, i8** %key.addr, align 8
  store i8* %lhs, i8** %lhs.addr, align 8
  store i8* %predicateName, i8** %predicateName.addr, align 8
  store i8* %rhs, i8** %rhs.addr, align 8
  store i8* %type_, i8** %type_.addr, align 8
  %0 = load i8*, i8** %lhs.addr, align 8
  call void @_ZNSt3__112basic_stringIcNS_11char_traitsIcEENS_9allocatorIcEEEC1IDnEEPKc(%"class.std::__1::basic_string"* %loperand, i8* %0)
  %1 = load i8*, i8** %rhs.addr, align 8
  invoke void @_ZNSt3__112basic_stringIcNS_11char_traitsIcEENS_9allocatorIcEEEC1IDnEEPKc(%"class.std::__1::basic_string"* %roperand, i8* %1)
          to label %invoke.cont unwind label %lpad

invoke.cont:                                      ; preds = %entry
  %2 = load i8*, i8** %type_.addr, align 8
  invoke void @_ZNSt3__112basic_stringIcNS_11char_traitsIcEENS_9allocatorIcEEEC1IDnEEPKc(%"class.std::__1::basic_string"* %type, i8* %2)
          to label %invoke.cont2 unwind label %lpad1

invoke.cont2:                                     ; preds = %invoke.cont
  %3 = load i8*, i8** %predicateName.addr, align 8
  invoke void @_ZNSt3__112basic_stringIcNS_11char_traitsIcEENS_9allocatorIcEEEC1IDnEEPKc(%"class.std::__1::basic_string"* %predicate, i8* %3)
          to label %invoke.cont4 unwind label %lpad3

invoke.cont4:                                     ; preds = %invoke.cont2
  call void @_ZNSt3__112basic_stringIcNS_11char_traitsIcEENS_9allocatorIcEEEC1Ev(%"class.std::__1::basic_string"* %lvalue) #2
  call void @_ZNSt3__112basic_stringIcNS_11char_traitsIcEENS_9allocatorIcEEEC1Ev(%"class.std::__1::basic_string"* %rvalue) #2
  %call = invoke %"class.std::__1::__tree_end_node"* @_ZNSt3__13mapINS_12basic_stringIcNS_11char_traitsIcEENS_9allocatorIcEEEES6_NS_4lessIS6_EENS4_INS_4pairIKS6_S6_EEEEE4findERSA_(%"class.std::__1::map"* @sym_state, %"class.std::__1::basic_string"* dereferenceable(24) %loperand)
          to label %invoke.cont6 unwind label %lpad5

invoke.cont6:                                     ; preds = %invoke.cont4
  %coerce.dive = getelementptr inbounds %"class.std::__1::__map_iterator", %"class.std::__1::__map_iterator"* %itr, i32 0, i32 0
  %coerce.dive7 = getelementptr inbounds %"class.std::__1::__tree_iterator", %"class.std::__1::__tree_iterator"* %coerce.dive, i32 0, i32 0
  store %"class.std::__1::__tree_end_node"* %call, %"class.std::__1::__tree_end_node"** %coerce.dive7, align 8
  %call8 = call %"class.std::__1::__tree_end_node"* @_ZNSt3__13mapINS_12basic_stringIcNS_11char_traitsIcEENS_9allocatorIcEEEES6_NS_4lessIS6_EENS4_INS_4pairIKS6_S6_EEEEE3endEv(%"class.std::__1::map"* @sym_state) #2
  %coerce.dive9 = getelementptr inbounds %"class.std::__1::__map_iterator", %"class.std::__1::__map_iterator"* %ref.tmp, i32 0, i32 0
  %coerce.dive10 = getelementptr inbounds %"class.std::__1::__tree_iterator", %"class.std::__1::__tree_iterator"* %coerce.dive9, i32 0, i32 0
  store %"class.std::__1::__tree_end_node"* %call8, %"class.std::__1::__tree_end_node"** %coerce.dive10, align 8
  %call12 = invoke zeroext i1 @_ZNSt3__1neERKNS_14__map_iteratorINS_15__tree_iteratorINS_12__value_typeINS_12basic_stringIcNS_11char_traitsIcEENS_9allocatorIcEEEES8_EEPNS_11__tree_nodeIS9_PvEElEEEESH_(%"class.std::__1::__map_iterator"* dereferenceable(8) %itr, %"class.std::__1::__map_iterator"* dereferenceable(8) %ref.tmp)
          to label %invoke.cont11 unwind label %lpad5

invoke.cont11:                                    ; preds = %invoke.cont6
  br i1 %call12, label %if.then, label %if.else

if.then:                                          ; preds = %invoke.cont11
  %call14 = invoke %"struct.std::__1::pair"* @_ZNKSt3__114__map_iteratorINS_15__tree_iteratorINS_12__value_typeINS_12basic_stringIcNS_11char_traitsIcEENS_9allocatorIcEEEES8_EEPNS_11__tree_nodeIS9_PvEElEEEptEv(%"class.std::__1::__map_iterator"* %itr)
          to label %invoke.cont13 unwind label %lpad5

invoke.cont13:                                    ; preds = %if.then
  %second = getelementptr inbounds %"struct.std::__1::pair", %"struct.std::__1::pair"* %call14, i32 0, i32 1
  %call16 = invoke dereferenceable(24) %"class.std::__1::basic_string"* @_ZNSt3__112basic_stringIcNS_11char_traitsIcEENS_9allocatorIcEEEaSERKS5_(%"class.std::__1::basic_string"* %lvalue, %"class.std::__1::basic_string"* dereferenceable(24) %second)
          to label %invoke.cont15 unwind label %lpad5

invoke.cont15:                                    ; preds = %invoke.cont13
  br label %if.end

lpad:                                             ; preds = %entry
  %4 = landingpad { i8*, i32 }
          cleanup
  %5 = extractvalue { i8*, i32 } %4, 0
  store i8* %5, i8** %exn.slot, align 8
  %6 = extractvalue { i8*, i32 } %4, 1
  store i32 %6, i32* %ehselector.slot, align 4
  br label %ehcleanup90

lpad1:                                            ; preds = %invoke.cont
  %7 = landingpad { i8*, i32 }
          cleanup
  %8 = extractvalue { i8*, i32 } %7, 0
  store i8* %8, i8** %exn.slot, align 8
  %9 = extractvalue { i8*, i32 } %7, 1
  store i32 %9, i32* %ehselector.slot, align 4
  br label %ehcleanup89

lpad3:                                            ; preds = %invoke.cont2
  %10 = landingpad { i8*, i32 }
          cleanup
  %11 = extractvalue { i8*, i32 } %10, 0
  store i8* %11, i8** %exn.slot, align 8
  %12 = extractvalue { i8*, i32 } %10, 1
  store i32 %12, i32* %ehselector.slot, align 4
  br label %ehcleanup88

lpad5:                                            ; preds = %invoke.cont73, %invoke.cont71, %invoke.cont69, %invoke.cont61, %if.end39, %if.else36, %invoke.cont31, %if.then30, %invoke.cont20, %if.end, %if.else, %invoke.cont13, %if.then, %invoke.cont6, %invoke.cont4
  %13 = landingpad { i8*, i32 }
          cleanup
  %14 = extractvalue { i8*, i32 } %13, 0
  store i8* %14, i8** %exn.slot, align 8
  %15 = extractvalue { i8*, i32 } %13, 1
  store i32 %15, i32* %ehselector.slot, align 4
  br label %ehcleanup85

if.else:                                          ; preds = %invoke.cont11
  %call18 = invoke dereferenceable(24) %"class.std::__1::basic_string"* @_ZNSt3__112basic_stringIcNS_11char_traitsIcEENS_9allocatorIcEEEaSERKS5_(%"class.std::__1::basic_string"* %lvalue, %"class.std::__1::basic_string"* dereferenceable(24) %loperand)
          to label %invoke.cont17 unwind label %lpad5

invoke.cont17:                                    ; preds = %if.else
  br label %if.end

if.end:                                           ; preds = %invoke.cont17, %invoke.cont15
  %call21 = invoke %"class.std::__1::__tree_end_node"* @_ZNSt3__13mapINS_12basic_stringIcNS_11char_traitsIcEENS_9allocatorIcEEEES6_NS_4lessIS6_EENS4_INS_4pairIKS6_S6_EEEEE4findERSA_(%"class.std::__1::map"* @sym_state, %"class.std::__1::basic_string"* dereferenceable(24) %roperand)
          to label %invoke.cont20 unwind label %lpad5

invoke.cont20:                                    ; preds = %if.end
  %coerce.dive22 = getelementptr inbounds %"class.std::__1::__map_iterator", %"class.std::__1::__map_iterator"* %ref.tmp19, i32 0, i32 0
  %coerce.dive23 = getelementptr inbounds %"class.std::__1::__tree_iterator", %"class.std::__1::__tree_iterator"* %coerce.dive22, i32 0, i32 0
  store %"class.std::__1::__tree_end_node"* %call21, %"class.std::__1::__tree_end_node"** %coerce.dive23, align 8
  %16 = bitcast %"class.std::__1::__map_iterator"* %itr to i8*
  %17 = bitcast %"class.std::__1::__map_iterator"* %ref.tmp19 to i8*
  call void @llvm.memcpy.p0i8.p0i8.i64(i8* align 8 %16, i8* align 8 %17, i64 8, i1 false)
  %call25 = call %"class.std::__1::__tree_end_node"* @_ZNSt3__13mapINS_12basic_stringIcNS_11char_traitsIcEENS_9allocatorIcEEEES6_NS_4lessIS6_EENS4_INS_4pairIKS6_S6_EEEEE3endEv(%"class.std::__1::map"* @sym_state) #2
  %coerce.dive26 = getelementptr inbounds %"class.std::__1::__map_iterator", %"class.std::__1::__map_iterator"* %ref.tmp24, i32 0, i32 0
  %coerce.dive27 = getelementptr inbounds %"class.std::__1::__tree_iterator", %"class.std::__1::__tree_iterator"* %coerce.dive26, i32 0, i32 0
  store %"class.std::__1::__tree_end_node"* %call25, %"class.std::__1::__tree_end_node"** %coerce.dive27, align 8
  %call29 = invoke zeroext i1 @_ZNSt3__1neERKNS_14__map_iteratorINS_15__tree_iteratorINS_12__value_typeINS_12basic_stringIcNS_11char_traitsIcEENS_9allocatorIcEEEES8_EEPNS_11__tree_nodeIS9_PvEElEEEESH_(%"class.std::__1::__map_iterator"* dereferenceable(8) %itr, %"class.std::__1::__map_iterator"* dereferenceable(8) %ref.tmp24)
          to label %invoke.cont28 unwind label %lpad5

invoke.cont28:                                    ; preds = %invoke.cont20
  br i1 %call29, label %if.then30, label %if.else36

if.then30:                                        ; preds = %invoke.cont28
  %call32 = invoke %"struct.std::__1::pair"* @_ZNKSt3__114__map_iteratorINS_15__tree_iteratorINS_12__value_typeINS_12basic_stringIcNS_11char_traitsIcEENS_9allocatorIcEEEES8_EEPNS_11__tree_nodeIS9_PvEElEEEptEv(%"class.std::__1::__map_iterator"* %itr)
          to label %invoke.cont31 unwind label %lpad5

invoke.cont31:                                    ; preds = %if.then30
  %second33 = getelementptr inbounds %"struct.std::__1::pair", %"struct.std::__1::pair"* %call32, i32 0, i32 1
  %call35 = invoke dereferenceable(24) %"class.std::__1::basic_string"* @_ZNSt3__112basic_stringIcNS_11char_traitsIcEENS_9allocatorIcEEEaSERKS5_(%"class.std::__1::basic_string"* %rvalue, %"class.std::__1::basic_string"* dereferenceable(24) %second33)
          to label %invoke.cont34 unwind label %lpad5

invoke.cont34:                                    ; preds = %invoke.cont31
  br label %if.end39

if.else36:                                        ; preds = %invoke.cont28
  %call38 = invoke dereferenceable(24) %"class.std::__1::basic_string"* @_ZNSt3__112basic_stringIcNS_11char_traitsIcEENS_9allocatorIcEEEaSERKS5_(%"class.std::__1::basic_string"* %rvalue, %"class.std::__1::basic_string"* dereferenceable(24) %roperand)
          to label %invoke.cont37 unwind label %lpad5

invoke.cont37:                                    ; preds = %if.else36
  br label %if.end39

if.end39:                                         ; preds = %invoke.cont37, %invoke.cont34
  invoke void @_ZNSt3__1plIcNS_11char_traitsIcEENS_9allocatorIcEEEENS_12basic_stringIT_T0_T1_EEPKS6_RKS9_(%"class.std::__1::basic_string"* sret %ref.tmp45, i8* getelementptr inbounds ([2 x i8], [2 x i8]* @.str.21, i32 0, i32 0), %"class.std::__1::basic_string"* dereferenceable(24) %predicate)
          to label %invoke.cont46 unwind label %lpad5

invoke.cont46:                                    ; preds = %if.end39
  invoke void @_ZNSt3__1plIcNS_11char_traitsIcEENS_9allocatorIcEEEENS_12basic_stringIT_T0_T1_EEOS9_PKS6_(%"class.std::__1::basic_string"* sret %ref.tmp44, %"class.std::__1::basic_string"* dereferenceable(24) %ref.tmp45, i8* getelementptr inbounds ([2 x i8], [2 x i8]* @.str.22, i32 0, i32 0))
          to label %invoke.cont48 unwind label %lpad47

invoke.cont48:                                    ; preds = %invoke.cont46
  invoke void @_ZNSt3__1plIcNS_11char_traitsIcEENS_9allocatorIcEEEENS_12basic_stringIT_T0_T1_EEOS9_RKS9_(%"class.std::__1::basic_string"* sret %ref.tmp43, %"class.std::__1::basic_string"* dereferenceable(24) %ref.tmp44, %"class.std::__1::basic_string"* dereferenceable(24) %lvalue)
          to label %invoke.cont50 unwind label %lpad49

invoke.cont50:                                    ; preds = %invoke.cont48
  invoke void @_ZNSt3__1plIcNS_11char_traitsIcEENS_9allocatorIcEEEENS_12basic_stringIT_T0_T1_EEOS9_PKS6_(%"class.std::__1::basic_string"* sret %ref.tmp42, %"class.std::__1::basic_string"* dereferenceable(24) %ref.tmp43, i8* getelementptr inbounds ([2 x i8], [2 x i8]* @.str.22, i32 0, i32 0))
          to label %invoke.cont52 unwind label %lpad51

invoke.cont52:                                    ; preds = %invoke.cont50
  invoke void @_ZNSt3__1plIcNS_11char_traitsIcEENS_9allocatorIcEEEENS_12basic_stringIT_T0_T1_EEOS9_RKS9_(%"class.std::__1::basic_string"* sret %ref.tmp41, %"class.std::__1::basic_string"* dereferenceable(24) %ref.tmp42, %"class.std::__1::basic_string"* dereferenceable(24) %rvalue)
          to label %invoke.cont54 unwind label %lpad53

invoke.cont54:                                    ; preds = %invoke.cont52
  invoke void @_ZNSt3__1plIcNS_11char_traitsIcEENS_9allocatorIcEEEENS_12basic_stringIT_T0_T1_EEOS9_PKS6_(%"class.std::__1::basic_string"* sret %ref.tmp40, %"class.std::__1::basic_string"* dereferenceable(24) %ref.tmp41, i8* getelementptr inbounds ([2 x i8], [2 x i8]* @.str.8, i32 0, i32 0))
          to label %invoke.cont56 unwind label %lpad55

invoke.cont56:                                    ; preds = %invoke.cont54
  %18 = load i8*, i8** %key.addr, align 8
  invoke void @_ZNSt3__112basic_stringIcNS_11char_traitsIcEENS_9allocatorIcEEEC1IDnEEPKc(%"class.std::__1::basic_string"* %ref.tmp57, i8* %18)
          to label %invoke.cont59 unwind label %lpad58

invoke.cont59:                                    ; preds = %invoke.cont56
  %call62 = invoke dereferenceable(24) %"class.std::__1::basic_string"* @_ZNSt3__13mapINS_12basic_stringIcNS_11char_traitsIcEENS_9allocatorIcEEEES6_NS_4lessIS6_EENS4_INS_4pairIKS6_S6_EEEEEixEOS6_(%"class.std::__1::map"* @sym_state, %"class.std::__1::basic_string"* dereferenceable(24) %ref.tmp57)
          to label %invoke.cont61 unwind label %lpad60

invoke.cont61:                                    ; preds = %invoke.cont59
  %call63 = call dereferenceable(24) %"class.std::__1::basic_string"* @_ZNSt3__112basic_stringIcNS_11char_traitsIcEENS_9allocatorIcEEEaSEOS5_(%"class.std::__1::basic_string"* %call62, %"class.std::__1::basic_string"* dereferenceable(24) %ref.tmp40) #2
  call void @_ZNSt3__112basic_stringIcNS_11char_traitsIcEENS_9allocatorIcEEED1Ev(%"class.std::__1::basic_string"* %ref.tmp57) #2
  call void @_ZNSt3__112basic_stringIcNS_11char_traitsIcEENS_9allocatorIcEEED1Ev(%"class.std::__1::basic_string"* %ref.tmp40) #2
  call void @_ZNSt3__112basic_stringIcNS_11char_traitsIcEENS_9allocatorIcEEED1Ev(%"class.std::__1::basic_string"* %ref.tmp41) #2
  call void @_ZNSt3__112basic_stringIcNS_11char_traitsIcEENS_9allocatorIcEEED1Ev(%"class.std::__1::basic_string"* %ref.tmp42) #2
  call void @_ZNSt3__112basic_stringIcNS_11char_traitsIcEENS_9allocatorIcEEED1Ev(%"class.std::__1::basic_string"* %ref.tmp43) #2
  call void @_ZNSt3__112basic_stringIcNS_11char_traitsIcEENS_9allocatorIcEEED1Ev(%"class.std::__1::basic_string"* %ref.tmp44) #2
  call void @_ZNSt3__112basic_stringIcNS_11char_traitsIcEENS_9allocatorIcEEED1Ev(%"class.std::__1::basic_string"* %ref.tmp45) #2
  %call70 = invoke dereferenceable(160) %"class.std::__1::basic_ostream"* @_ZNSt3__1lsINS_11char_traitsIcEEEERNS_13basic_ostreamIcT_EES6_PKc(%"class.std::__1::basic_ostream"* dereferenceable(160) bitcast (%"class.std::__1::basic_ofstream"* @stg_state to %"class.std::__1::basic_ostream"*), i8* getelementptr inbounds ([7 x i8], [7 x i8]* @.str.9, i32 0, i32 0))
          to label %invoke.cont69 unwind label %lpad5

invoke.cont69:                                    ; preds = %invoke.cont61
  %19 = load i8*, i8** %key.addr, align 8
  %call72 = invoke dereferenceable(160) %"class.std::__1::basic_ostream"* @_ZNSt3__1lsINS_11char_traitsIcEEEERNS_13basic_ostreamIcT_EES6_PKc(%"class.std::__1::basic_ostream"* dereferenceable(160) %call70, i8* %19)
          to label %invoke.cont71 unwind label %lpad5

invoke.cont71:                                    ; preds = %invoke.cont69
  %call74 = invoke dereferenceable(160) %"class.std::__1::basic_ostream"* @_ZNSt3__1lsINS_11char_traitsIcEEEERNS_13basic_ostreamIcT_EES6_PKc(%"class.std::__1::basic_ostream"* dereferenceable(160) %call72, i8* getelementptr inbounds ([6 x i8], [6 x i8]* @.str.10, i32 0, i32 0))
          to label %invoke.cont73 unwind label %lpad5

invoke.cont73:                                    ; preds = %invoke.cont71
  %20 = load i8*, i8** %key.addr, align 8
  invoke void @_ZNSt3__112basic_stringIcNS_11char_traitsIcEENS_9allocatorIcEEEC1IDnEEPKc(%"class.std::__1::basic_string"* %ref.tmp75, i8* %20)
          to label %invoke.cont76 unwind label %lpad5

invoke.cont76:                                    ; preds = %invoke.cont73
  %call79 = invoke dereferenceable(24) %"class.std::__1::basic_string"* @_ZNSt3__13mapINS_12basic_stringIcNS_11char_traitsIcEENS_9allocatorIcEEEES6_NS_4lessIS6_EENS4_INS_4pairIKS6_S6_EEEEEixEOS6_(%"class.std::__1::map"* @sym_state, %"class.std::__1::basic_string"* dereferenceable(24) %ref.tmp75)
          to label %invoke.cont78 unwind label %lpad77

invoke.cont78:                                    ; preds = %invoke.cont76
  %call81 = invoke dereferenceable(160) %"class.std::__1::basic_ostream"* @_ZNSt3__1lsIcNS_11char_traitsIcEENS_9allocatorIcEEEERNS_13basic_ostreamIT_T0_EES9_RKNS_12basic_stringIS6_S7_T1_EE(%"class.std::__1::basic_ostream"* dereferenceable(160) %call74, %"class.std::__1::basic_string"* dereferenceable(24) %call79)
          to label %invoke.cont80 unwind label %lpad77

invoke.cont80:                                    ; preds = %invoke.cont78
  %call83 = invoke dereferenceable(160) %"class.std::__1::basic_ostream"* @_ZNSt3__1lsINS_11char_traitsIcEEEERNS_13basic_ostreamIcT_EES6_PKc(%"class.std::__1::basic_ostream"* dereferenceable(160) %call81, i8* getelementptr inbounds ([3 x i8], [3 x i8]* @.str.11, i32 0, i32 0))
          to label %invoke.cont82 unwind label %lpad77

invoke.cont82:                                    ; preds = %invoke.cont80
  call void @_ZNSt3__112basic_stringIcNS_11char_traitsIcEENS_9allocatorIcEEED1Ev(%"class.std::__1::basic_string"* %ref.tmp75) #2
  call void @_ZNSt3__112basic_stringIcNS_11char_traitsIcEENS_9allocatorIcEEED1Ev(%"class.std::__1::basic_string"* %rvalue) #2
  call void @_ZNSt3__112basic_stringIcNS_11char_traitsIcEENS_9allocatorIcEEED1Ev(%"class.std::__1::basic_string"* %lvalue) #2
  call void @_ZNSt3__112basic_stringIcNS_11char_traitsIcEENS_9allocatorIcEEED1Ev(%"class.std::__1::basic_string"* %predicate) #2
  call void @_ZNSt3__112basic_stringIcNS_11char_traitsIcEENS_9allocatorIcEEED1Ev(%"class.std::__1::basic_string"* %type) #2
  call void @_ZNSt3__112basic_stringIcNS_11char_traitsIcEENS_9allocatorIcEEED1Ev(%"class.std::__1::basic_string"* %roperand) #2
  call void @_ZNSt3__112basic_stringIcNS_11char_traitsIcEENS_9allocatorIcEEED1Ev(%"class.std::__1::basic_string"* %loperand) #2
  ret void

lpad47:                                           ; preds = %invoke.cont46
  %21 = landingpad { i8*, i32 }
          cleanup
  %22 = extractvalue { i8*, i32 } %21, 0
  store i8* %22, i8** %exn.slot, align 8
  %23 = extractvalue { i8*, i32 } %21, 1
  store i32 %23, i32* %ehselector.slot, align 4
  br label %ehcleanup68

lpad49:                                           ; preds = %invoke.cont48
  %24 = landingpad { i8*, i32 }
          cleanup
  %25 = extractvalue { i8*, i32 } %24, 0
  store i8* %25, i8** %exn.slot, align 8
  %26 = extractvalue { i8*, i32 } %24, 1
  store i32 %26, i32* %ehselector.slot, align 4
  br label %ehcleanup67

lpad51:                                           ; preds = %invoke.cont50
  %27 = landingpad { i8*, i32 }
          cleanup
  %28 = extractvalue { i8*, i32 } %27, 0
  store i8* %28, i8** %exn.slot, align 8
  %29 = extractvalue { i8*, i32 } %27, 1
  store i32 %29, i32* %ehselector.slot, align 4
  br label %ehcleanup66

lpad53:                                           ; preds = %invoke.cont52
  %30 = landingpad { i8*, i32 }
          cleanup
  %31 = extractvalue { i8*, i32 } %30, 0
  store i8* %31, i8** %exn.slot, align 8
  %32 = extractvalue { i8*, i32 } %30, 1
  store i32 %32, i32* %ehselector.slot, align 4
  br label %ehcleanup65

lpad55:                                           ; preds = %invoke.cont54
  %33 = landingpad { i8*, i32 }
          cleanup
  %34 = extractvalue { i8*, i32 } %33, 0
  store i8* %34, i8** %exn.slot, align 8
  %35 = extractvalue { i8*, i32 } %33, 1
  store i32 %35, i32* %ehselector.slot, align 4
  br label %ehcleanup64

lpad58:                                           ; preds = %invoke.cont56
  %36 = landingpad { i8*, i32 }
          cleanup
  %37 = extractvalue { i8*, i32 } %36, 0
  store i8* %37, i8** %exn.slot, align 8
  %38 = extractvalue { i8*, i32 } %36, 1
  store i32 %38, i32* %ehselector.slot, align 4
  br label %ehcleanup

lpad60:                                           ; preds = %invoke.cont59
  %39 = landingpad { i8*, i32 }
          cleanup
  %40 = extractvalue { i8*, i32 } %39, 0
  store i8* %40, i8** %exn.slot, align 8
  %41 = extractvalue { i8*, i32 } %39, 1
  store i32 %41, i32* %ehselector.slot, align 4
  call void @_ZNSt3__112basic_stringIcNS_11char_traitsIcEENS_9allocatorIcEEED1Ev(%"class.std::__1::basic_string"* %ref.tmp57) #2
  br label %ehcleanup

ehcleanup:                                        ; preds = %lpad60, %lpad58
  call void @_ZNSt3__112basic_stringIcNS_11char_traitsIcEENS_9allocatorIcEEED1Ev(%"class.std::__1::basic_string"* %ref.tmp40) #2
  br label %ehcleanup64

ehcleanup64:                                      ; preds = %ehcleanup, %lpad55
  call void @_ZNSt3__112basic_stringIcNS_11char_traitsIcEENS_9allocatorIcEEED1Ev(%"class.std::__1::basic_string"* %ref.tmp41) #2
  br label %ehcleanup65

ehcleanup65:                                      ; preds = %ehcleanup64, %lpad53
  call void @_ZNSt3__112basic_stringIcNS_11char_traitsIcEENS_9allocatorIcEEED1Ev(%"class.std::__1::basic_string"* %ref.tmp42) #2
  br label %ehcleanup66

ehcleanup66:                                      ; preds = %ehcleanup65, %lpad51
  call void @_ZNSt3__112basic_stringIcNS_11char_traitsIcEENS_9allocatorIcEEED1Ev(%"class.std::__1::basic_string"* %ref.tmp43) #2
  br label %ehcleanup67

ehcleanup67:                                      ; preds = %ehcleanup66, %lpad49
  call void @_ZNSt3__112basic_stringIcNS_11char_traitsIcEENS_9allocatorIcEEED1Ev(%"class.std::__1::basic_string"* %ref.tmp44) #2
  br label %ehcleanup68

ehcleanup68:                                      ; preds = %ehcleanup67, %lpad47
  call void @_ZNSt3__112basic_stringIcNS_11char_traitsIcEENS_9allocatorIcEEED1Ev(%"class.std::__1::basic_string"* %ref.tmp45) #2
  br label %ehcleanup85

lpad77:                                           ; preds = %invoke.cont80, %invoke.cont78, %invoke.cont76
  %42 = landingpad { i8*, i32 }
          cleanup
  %43 = extractvalue { i8*, i32 } %42, 0
  store i8* %43, i8** %exn.slot, align 8
  %44 = extractvalue { i8*, i32 } %42, 1
  store i32 %44, i32* %ehselector.slot, align 4
  call void @_ZNSt3__112basic_stringIcNS_11char_traitsIcEENS_9allocatorIcEEED1Ev(%"class.std::__1::basic_string"* %ref.tmp75) #2
  br label %ehcleanup85

ehcleanup85:                                      ; preds = %lpad77, %ehcleanup68, %lpad5
  call void @_ZNSt3__112basic_stringIcNS_11char_traitsIcEENS_9allocatorIcEEED1Ev(%"class.std::__1::basic_string"* %rvalue) #2
  call void @_ZNSt3__112basic_stringIcNS_11char_traitsIcEENS_9allocatorIcEEED1Ev(%"class.std::__1::basic_string"* %lvalue) #2
  call void @_ZNSt3__112basic_stringIcNS_11char_traitsIcEENS_9allocatorIcEEED1Ev(%"class.std::__1::basic_string"* %predicate) #2
  br label %ehcleanup88

ehcleanup88:                                      ; preds = %ehcleanup85, %lpad3
  call void @_ZNSt3__112basic_stringIcNS_11char_traitsIcEENS_9allocatorIcEEED1Ev(%"class.std::__1::basic_string"* %type) #2
  br label %ehcleanup89

ehcleanup89:                                      ; preds = %ehcleanup88, %lpad1
  call void @_ZNSt3__112basic_stringIcNS_11char_traitsIcEENS_9allocatorIcEEED1Ev(%"class.std::__1::basic_string"* %roperand) #2
  br label %ehcleanup90

ehcleanup90:                                      ; preds = %ehcleanup89, %lpad
  call void @_ZNSt3__112basic_stringIcNS_11char_traitsIcEENS_9allocatorIcEEED1Ev(%"class.std::__1::basic_string"* %loperand) #2
  br label %eh.resume

eh.resume:                                        ; preds = %ehcleanup90
  %exn = load i8*, i8** %exn.slot, align 8
  %sel = load i32, i32* %ehselector.slot, align 4
  %lpad.val = insertvalue { i8*, i32 } undef, i8* %exn, 0
  %lpad.val91 = insertvalue { i8*, i32 } %lpad.val, i32 %sel, 1
  resume { i8*, i32 } %lpad.val91
}

; Function Attrs: noinline optnone ssp uwtable
define internal void @_ZNSt3__112basic_stringIcNS_11char_traitsIcEENS_9allocatorIcEEEC1IDnEEPKc(%"class.std::__1::basic_string"* %this, i8* %__s) unnamed_addr #4 align 2 {
entry:
  %this.addr = alloca %"class.std::__1::basic_string"*, align 8
  %__s.addr = alloca i8*, align 8
  store %"class.std::__1::basic_string"* %this, %"class.std::__1::basic_string"** %this.addr, align 8
  store i8* %__s, i8** %__s.addr, align 8
  %this1 = load %"class.std::__1::basic_string"*, %"class.std::__1::basic_string"** %this.addr, align 8
  %0 = load i8*, i8** %__s.addr, align 8
  call void @_ZNSt3__112basic_stringIcNS_11char_traitsIcEENS_9allocatorIcEEEC2IDnEEPKc(%"class.std::__1::basic_string"* %this1, i8* %0)
  ret void
}

; Function Attrs: noinline optnone ssp uwtable
define internal %"class.std::__1::__tree_end_node"* @_ZNSt3__13mapINS_12basic_stringIcNS_11char_traitsIcEENS_9allocatorIcEEEES6_NS_4lessIS6_EENS4_INS_4pairIKS6_S6_EEEEE4findERSA_(%"class.std::__1::map"* %this, %"class.std::__1::basic_string"* dereferenceable(24) %__k) #4 align 2 {
entry:
  %retval = alloca %"class.std::__1::__map_iterator", align 8
  %this.addr = alloca %"class.std::__1::map"*, align 8
  %__k.addr = alloca %"class.std::__1::basic_string"*, align 8
  %agg.tmp = alloca %"class.std::__1::__tree_iterator", align 8
  store %"class.std::__1::map"* %this, %"class.std::__1::map"** %this.addr, align 8
  store %"class.std::__1::basic_string"* %__k, %"class.std::__1::basic_string"** %__k.addr, align 8
  %this1 = load %"class.std::__1::map"*, %"class.std::__1::map"** %this.addr, align 8
  %__tree_ = getelementptr inbounds %"class.std::__1::map", %"class.std::__1::map"* %this1, i32 0, i32 0
  %0 = load %"class.std::__1::basic_string"*, %"class.std::__1::basic_string"** %__k.addr, align 8
  %call = call %"class.std::__1::__tree_end_node"* @_ZNSt3__16__treeINS_12__value_typeINS_12basic_stringIcNS_11char_traitsIcEENS_9allocatorIcEEEES7_EENS_19__map_value_compareIS7_S8_NS_4lessIS7_EELb1EEENS5_IS8_EEE4findIS7_EENS_15__tree_iteratorIS8_PNS_11__tree_nodeIS8_PvEElEERKT_(%"class.std::__1::__tree"* %__tree_, %"class.std::__1::basic_string"* dereferenceable(24) %0)
  %coerce.dive = getelementptr inbounds %"class.std::__1::__tree_iterator", %"class.std::__1::__tree_iterator"* %agg.tmp, i32 0, i32 0
  store %"class.std::__1::__tree_end_node"* %call, %"class.std::__1::__tree_end_node"** %coerce.dive, align 8
  %coerce.dive2 = getelementptr inbounds %"class.std::__1::__tree_iterator", %"class.std::__1::__tree_iterator"* %agg.tmp, i32 0, i32 0
  %1 = load %"class.std::__1::__tree_end_node"*, %"class.std::__1::__tree_end_node"** %coerce.dive2, align 8
  call void @_ZNSt3__114__map_iteratorINS_15__tree_iteratorINS_12__value_typeINS_12basic_stringIcNS_11char_traitsIcEENS_9allocatorIcEEEES8_EEPNS_11__tree_nodeIS9_PvEElEEEC1ESE_(%"class.std::__1::__map_iterator"* %retval, %"class.std::__1::__tree_end_node"* %1) #2
  %coerce.dive3 = getelementptr inbounds %"class.std::__1::__map_iterator", %"class.std::__1::__map_iterator"* %retval, i32 0, i32 0
  %coerce.dive4 = getelementptr inbounds %"class.std::__1::__tree_iterator", %"class.std::__1::__tree_iterator"* %coerce.dive3, i32 0, i32 0
  %2 = load %"class.std::__1::__tree_end_node"*, %"class.std::__1::__tree_end_node"** %coerce.dive4, align 8
  ret %"class.std::__1::__tree_end_node"* %2
}

; Function Attrs: noinline optnone ssp uwtable
define internal zeroext i1 @_ZNSt3__1neERKNS_14__map_iteratorINS_15__tree_iteratorINS_12__value_typeINS_12basic_stringIcNS_11char_traitsIcEENS_9allocatorIcEEEES8_EEPNS_11__tree_nodeIS9_PvEElEEEESH_(%"class.std::__1::__map_iterator"* dereferenceable(8) %__x, %"class.std::__1::__map_iterator"* dereferenceable(8) %__y) #4 {
entry:
  %__x.addr = alloca %"class.std::__1::__map_iterator"*, align 8
  %__y.addr = alloca %"class.std::__1::__map_iterator"*, align 8
  store %"class.std::__1::__map_iterator"* %__x, %"class.std::__1::__map_iterator"** %__x.addr, align 8
  store %"class.std::__1::__map_iterator"* %__y, %"class.std::__1::__map_iterator"** %__y.addr, align 8
  %0 = load %"class.std::__1::__map_iterator"*, %"class.std::__1::__map_iterator"** %__x.addr, align 8
  %__i_ = getelementptr inbounds %"class.std::__1::__map_iterator", %"class.std::__1::__map_iterator"* %0, i32 0, i32 0
  %1 = load %"class.std::__1::__map_iterator"*, %"class.std::__1::__map_iterator"** %__y.addr, align 8
  %__i_1 = getelementptr inbounds %"class.std::__1::__map_iterator", %"class.std::__1::__map_iterator"* %1, i32 0, i32 0
  %call = call zeroext i1 @_ZNSt3__1neERKNS_15__tree_iteratorINS_12__value_typeINS_12basic_stringIcNS_11char_traitsIcEENS_9allocatorIcEEEES7_EEPNS_11__tree_nodeIS8_PvEElEESF_(%"class.std::__1::__tree_iterator"* dereferenceable(8) %__i_, %"class.std::__1::__tree_iterator"* dereferenceable(8) %__i_1)
  ret i1 %call
}

; Function Attrs: noinline nounwind optnone ssp uwtable
define internal %"class.std::__1::__tree_end_node"* @_ZNSt3__13mapINS_12basic_stringIcNS_11char_traitsIcEENS_9allocatorIcEEEES6_NS_4lessIS6_EENS4_INS_4pairIKS6_S6_EEEEE3endEv(%"class.std::__1::map"* %this) #1 align 2 {
entry:
  %retval = alloca %"class.std::__1::__map_iterator", align 8
  %this.addr = alloca %"class.std::__1::map"*, align 8
  %agg.tmp = alloca %"class.std::__1::__tree_iterator", align 8
  store %"class.std::__1::map"* %this, %"class.std::__1::map"** %this.addr, align 8
  %this1 = load %"class.std::__1::map"*, %"class.std::__1::map"** %this.addr, align 8
  %__tree_ = getelementptr inbounds %"class.std::__1::map", %"class.std::__1::map"* %this1, i32 0, i32 0
  %call = call %"class.std::__1::__tree_end_node"* @_ZNSt3__16__treeINS_12__value_typeINS_12basic_stringIcNS_11char_traitsIcEENS_9allocatorIcEEEES7_EENS_19__map_value_compareIS7_S8_NS_4lessIS7_EELb1EEENS5_IS8_EEE3endEv(%"class.std::__1::__tree"* %__tree_) #2
  %coerce.dive = getelementptr inbounds %"class.std::__1::__tree_iterator", %"class.std::__1::__tree_iterator"* %agg.tmp, i32 0, i32 0
  store %"class.std::__1::__tree_end_node"* %call, %"class.std::__1::__tree_end_node"** %coerce.dive, align 8
  %coerce.dive2 = getelementptr inbounds %"class.std::__1::__tree_iterator", %"class.std::__1::__tree_iterator"* %agg.tmp, i32 0, i32 0
  %0 = load %"class.std::__1::__tree_end_node"*, %"class.std::__1::__tree_end_node"** %coerce.dive2, align 8
  call void @_ZNSt3__114__map_iteratorINS_15__tree_iteratorINS_12__value_typeINS_12basic_stringIcNS_11char_traitsIcEENS_9allocatorIcEEEES8_EEPNS_11__tree_nodeIS9_PvEElEEEC1ESE_(%"class.std::__1::__map_iterator"* %retval, %"class.std::__1::__tree_end_node"* %0) #2
  %coerce.dive3 = getelementptr inbounds %"class.std::__1::__map_iterator", %"class.std::__1::__map_iterator"* %retval, i32 0, i32 0
  %coerce.dive4 = getelementptr inbounds %"class.std::__1::__tree_iterator", %"class.std::__1::__tree_iterator"* %coerce.dive3, i32 0, i32 0
  %1 = load %"class.std::__1::__tree_end_node"*, %"class.std::__1::__tree_end_node"** %coerce.dive4, align 8
  ret %"class.std::__1::__tree_end_node"* %1
}

; Function Attrs: noinline optnone ssp uwtable
define internal %"struct.std::__1::pair"* @_ZNKSt3__114__map_iteratorINS_15__tree_iteratorINS_12__value_typeINS_12basic_stringIcNS_11char_traitsIcEENS_9allocatorIcEEEES8_EEPNS_11__tree_nodeIS9_PvEElEEEptEv(%"class.std::__1::__map_iterator"* %this) #4 align 2 {
entry:
  %this.addr = alloca %"class.std::__1::__map_iterator"*, align 8
  store %"class.std::__1::__map_iterator"* %this, %"class.std::__1::__map_iterator"** %this.addr, align 8
  %this1 = load %"class.std::__1::__map_iterator"*, %"class.std::__1::__map_iterator"** %this.addr, align 8
  %__i_ = getelementptr inbounds %"class.std::__1::__map_iterator", %"class.std::__1::__map_iterator"* %this1, i32 0, i32 0
  %call = call %"struct.std::__1::__value_type"* @_ZNKSt3__115__tree_iteratorINS_12__value_typeINS_12basic_stringIcNS_11char_traitsIcEENS_9allocatorIcEEEES7_EEPNS_11__tree_nodeIS8_PvEElEptEv(%"class.std::__1::__tree_iterator"* %__i_)
  %call2 = call dereferenceable(48) %"struct.std::__1::pair"* @_ZNSt3__112__value_typeINS_12basic_stringIcNS_11char_traitsIcEENS_9allocatorIcEEEES6_E11__get_valueEv(%"struct.std::__1::__value_type"* %call)
  %call3 = call %"struct.std::__1::pair"* @_ZNSt3__114pointer_traitsIPNS_4pairIKNS_12basic_stringIcNS_11char_traitsIcEENS_9allocatorIcEEEES7_EEE10pointer_toERS9_(%"struct.std::__1::pair"* dereferenceable(48) %call2) #2
  ret %"struct.std::__1::pair"* %call3
}

declare dereferenceable(24) %"class.std::__1::basic_string"* @_ZNSt3__112basic_stringIcNS_11char_traitsIcEENS_9allocatorIcEEEaSERKS5_(%"class.std::__1::basic_string"*, %"class.std::__1::basic_string"* dereferenceable(24)) #5

; Function Attrs: argmemonly nounwind
declare void @llvm.memcpy.p0i8.p0i8.i64(i8* nocapture writeonly, i8* nocapture readonly, i64, i1) #9

; Function Attrs: noinline optnone ssp uwtable
define internal void @_ZNSt3__1plIcNS_11char_traitsIcEENS_9allocatorIcEEEENS_12basic_stringIT_T0_T1_EEOS9_RKS9_(%"class.std::__1::basic_string"* noalias sret %agg.result, %"class.std::__1::basic_string"* dereferenceable(24) %__lhs, %"class.std::__1::basic_string"* dereferenceable(24) %__rhs) #4 {
entry:
  %__lhs.addr = alloca %"class.std::__1::basic_string"*, align 8
  %__rhs.addr = alloca %"class.std::__1::basic_string"*, align 8
  store %"class.std::__1::basic_string"* %__lhs, %"class.std::__1::basic_string"** %__lhs.addr, align 8
  store %"class.std::__1::basic_string"* %__rhs, %"class.std::__1::basic_string"** %__rhs.addr, align 8
  %0 = load %"class.std::__1::basic_string"*, %"class.std::__1::basic_string"** %__lhs.addr, align 8
  %1 = load %"class.std::__1::basic_string"*, %"class.std::__1::basic_string"** %__rhs.addr, align 8
  %call = call dereferenceable(24) %"class.std::__1::basic_string"* @_ZNSt3__112basic_stringIcNS_11char_traitsIcEENS_9allocatorIcEEE6appendERKS5_(%"class.std::__1::basic_string"* %0, %"class.std::__1::basic_string"* dereferenceable(24) %1)
  %call1 = call dereferenceable(24) %"class.std::__1::basic_string"* @_ZNSt3__1L4moveIRNS_12basic_stringIcNS_11char_traitsIcEENS_9allocatorIcEEEEEEONS_16remove_referenceIT_E4typeEOS9_(%"class.std::__1::basic_string"* dereferenceable(24) %call) #2
  call void @_ZNSt3__112basic_stringIcNS_11char_traitsIcEENS_9allocatorIcEEEC1EOS5_(%"class.std::__1::basic_string"* %agg.result, %"class.std::__1::basic_string"* dereferenceable(24) %call1) #2
  ret void
}

declare void @_ZNSt3__1plIcNS_11char_traitsIcEENS_9allocatorIcEEEENS_12basic_stringIT_T0_T1_EEPKS6_RKS9_(%"class.std::__1::basic_string"* sret, i8*, %"class.std::__1::basic_string"* dereferenceable(24)) #5

; Function Attrs: noinline optnone ssp uwtable
define linkonce_odr dereferenceable(24) %"class.std::__1::basic_string"* @_ZNSt3__13mapINS_12basic_stringIcNS_11char_traitsIcEENS_9allocatorIcEEEES6_NS_4lessIS6_EENS4_INS_4pairIKS6_S6_EEEEEixEOS6_(%"class.std::__1::map"* %this, %"class.std::__1::basic_string"* dereferenceable(24) %__k) #4 align 2 {
entry:
  %this.addr = alloca %"class.std::__1::map"*, align 8
  %__k.addr = alloca %"class.std::__1::basic_string"*, align 8
  %ref.tmp = alloca %"struct.std::__1::pair.16", align 8
  %ref.tmp2 = alloca %"class.std::__1::tuple.24", align 8
  %ref.tmp6 = alloca %"class.std::__1::tuple.17", align 1
  %undef.agg.tmp = alloca %"class.std::__1::tuple.17", align 1
  store %"class.std::__1::map"* %this, %"class.std::__1::map"** %this.addr, align 8
  store %"class.std::__1::basic_string"* %__k, %"class.std::__1::basic_string"** %__k.addr, align 8
  %this1 = load %"class.std::__1::map"*, %"class.std::__1::map"** %this.addr, align 8
  %__tree_ = getelementptr inbounds %"class.std::__1::map", %"class.std::__1::map"* %this1, i32 0, i32 0
  %0 = load %"class.std::__1::basic_string"*, %"class.std::__1::basic_string"** %__k.addr, align 8
  %1 = load %"class.std::__1::basic_string"*, %"class.std::__1::basic_string"** %__k.addr, align 8
  %call = call dereferenceable(24) %"class.std::__1::basic_string"* @_ZNSt3__1L4moveIRNS_12basic_stringIcNS_11char_traitsIcEENS_9allocatorIcEEEEEEONS_16remove_referenceIT_E4typeEOS9_(%"class.std::__1::basic_string"* dereferenceable(24) %1) #2
  %call3 = call %"class.std::__1::basic_string"* @_ZNSt3__1L16forward_as_tupleIJNS_12basic_stringIcNS_11char_traitsIcEENS_9allocatorIcEEEEEEENS_5tupleIJDpOT_EEESA_(%"class.std::__1::basic_string"* dereferenceable(24) %call) #2
  %coerce.dive = getelementptr inbounds %"class.std::__1::tuple.24", %"class.std::__1::tuple.24"* %ref.tmp2, i32 0, i32 0
  %coerce.dive4 = getelementptr inbounds %"struct.std::__1::__tuple_impl.25", %"struct.std::__1::__tuple_impl.25"* %coerce.dive, i32 0, i32 0
  %coerce.dive5 = getelementptr inbounds %"class.std::__1::__tuple_leaf.26", %"class.std::__1::__tuple_leaf.26"* %coerce.dive4, i32 0, i32 0
  store %"class.std::__1::basic_string"* %call3, %"class.std::__1::basic_string"** %coerce.dive5, align 8
  call void @_ZNSt3__1L16forward_as_tupleIJEEENS_5tupleIJDpOT_EEES4_() #2
  %call7 = call { %"class.std::__1::__tree_end_node"*, i8 } @_ZNSt3__16__treeINS_12__value_typeINS_12basic_stringIcNS_11char_traitsIcEENS_9allocatorIcEEEES7_EENS_19__map_value_compareIS7_S8_NS_4lessIS7_EELb1EEENS5_IS8_EEE25__emplace_unique_key_argsIS7_JRKNS_21piecewise_construct_tENS_5tupleIJOS7_EEENSJ_IJEEEEEENS_4pairINS_15__tree_iteratorIS8_PNS_11__tree_nodeIS8_PvEElEEbEERKT_DpOT0_(%"class.std::__1::__tree"* %__tree_, %"class.std::__1::basic_string"* dereferenceable(24) %0, %"struct.std::__1::piecewise_construct_t"* dereferenceable(1) @_ZNSt3__1L19piecewise_constructE, %"class.std::__1::tuple.24"* dereferenceable(8) %ref.tmp2, %"class.std::__1::tuple.17"* dereferenceable(1) %ref.tmp6)
  %2 = bitcast %"struct.std::__1::pair.16"* %ref.tmp to { %"class.std::__1::__tree_end_node"*, i8 }*
  %3 = getelementptr inbounds { %"class.std::__1::__tree_end_node"*, i8 }, { %"class.std::__1::__tree_end_node"*, i8 }* %2, i32 0, i32 0
  %4 = extractvalue { %"class.std::__1::__tree_end_node"*, i8 } %call7, 0
  store %"class.std::__1::__tree_end_node"* %4, %"class.std::__1::__tree_end_node"** %3, align 8
  %5 = getelementptr inbounds { %"class.std::__1::__tree_end_node"*, i8 }, { %"class.std::__1::__tree_end_node"*, i8 }* %2, i32 0, i32 1
  %6 = extractvalue { %"class.std::__1::__tree_end_node"*, i8 } %call7, 1
  store i8 %6, i8* %5, align 8
  %first = getelementptr inbounds %"struct.std::__1::pair.16", %"struct.std::__1::pair.16"* %ref.tmp, i32 0, i32 0
  %call8 = call %"struct.std::__1::__value_type"* @_ZNKSt3__115__tree_iteratorINS_12__value_typeINS_12basic_stringIcNS_11char_traitsIcEENS_9allocatorIcEEEES7_EEPNS_11__tree_nodeIS8_PvEElEptEv(%"class.std::__1::__tree_iterator"* %first)
  %call9 = call dereferenceable(48) %"struct.std::__1::pair"* @_ZNSt3__112__value_typeINS_12basic_stringIcNS_11char_traitsIcEENS_9allocatorIcEEEES6_E11__get_valueEv(%"struct.std::__1::__value_type"* %call8)
  %second = getelementptr inbounds %"struct.std::__1::pair", %"struct.std::__1::pair"* %call9, i32 0, i32 1
  ret %"class.std::__1::basic_string"* %second
}

; Function Attrs: noinline nounwind optnone ssp uwtable
define internal dereferenceable(24) %"class.std::__1::basic_string"* @_ZNSt3__112basic_stringIcNS_11char_traitsIcEENS_9allocatorIcEEEaSEOS5_(%"class.std::__1::basic_string"* %this, %"class.std::__1::basic_string"* dereferenceable(24) %__str) #1 align 2 {
entry:
  %this.addr = alloca %"class.std::__1::basic_string"*, align 8
  %__str.addr = alloca %"class.std::__1::basic_string"*, align 8
  %agg.tmp = alloca %"struct.std::__1::integral_constant.15", align 1
  store %"class.std::__1::basic_string"* %this, %"class.std::__1::basic_string"** %this.addr, align 8
  store %"class.std::__1::basic_string"* %__str, %"class.std::__1::basic_string"** %__str.addr, align 8
  %this1 = load %"class.std::__1::basic_string"*, %"class.std::__1::basic_string"** %this.addr, align 8
  %0 = load %"class.std::__1::basic_string"*, %"class.std::__1::basic_string"** %__str.addr, align 8
  call void @_ZNSt3__112basic_stringIcNS_11char_traitsIcEENS_9allocatorIcEEE13__move_assignERS5_NS_17integral_constantIbLb1EEE(%"class.std::__1::basic_string"* %this1, %"class.std::__1::basic_string"* dereferenceable(24) %0) #2
  ret %"class.std::__1::basic_string"* %this1
}

; Function Attrs: noinline optnone ssp uwtable
define void @stg_update_select(i8* %key, i1 zeroext %condition, i8* %t_value, i8* %f_value, i8* %type_, i8* %cndName) #4 personality i8* bitcast (i32 (...)* @__gxx_personality_v0 to i8*) {
entry:
  %key.addr = alloca i8*, align 8
  %condition.addr = alloca i8, align 1
  %t_value.addr = alloca i8*, align 8
  %f_value.addr = alloca i8*, align 8
  %type_.addr = alloca i8*, align 8
  %cndName.addr = alloca i8*, align 8
  %tval = alloca %"class.std::__1::basic_string", align 8
  %fval = alloca %"class.std::__1::basic_string", align 8
  %exn.slot = alloca i8*
  %ehselector.slot = alloca i32
  %type = alloca %"class.std::__1::basic_string", align 8
  %t_val = alloca %"class.std::__1::basic_string", align 8
  %f_val = alloca %"class.std::__1::basic_string", align 8
  %itr = alloca %"class.std::__1::__map_iterator", align 8
  %ref.tmp = alloca %"class.std::__1::__map_iterator", align 8
  %ref.tmp17 = alloca %"class.std::__1::__map_iterator", align 8
  %ref.tmp22 = alloca %"class.std::__1::__map_iterator", align 8
  %ref.tmp39 = alloca %"class.std::__1::basic_string", align 8
  %ref.tmp47 = alloca %"class.std::__1::basic_string", align 8
  %ref.tmp61 = alloca %"class.std::__1::basic_string", align 8
  %value = alloca %"class.std::__1::basic_string", align 8
  %key_ = alloca %"class.std::__1::basic_string", align 8
  %ref.tmp72 = alloca %"class.std::__1::__map_iterator", align 8
  %ref.tmp78 = alloca %"class.std::__1::__map_iterator", align 8
  %ref.tmp93 = alloca %"class.std::__1::basic_string", align 8
  %ref.tmp94 = alloca %"class.std::__1::basic_string", align 8
  %ref.tmp100 = alloca %"class.std::__1::basic_string", align 8
  %ref.tmp101 = alloca %"class.std::__1::basic_string", align 8
  store i8* %key, i8** %key.addr, align 8
  %frombool = zext i1 %condition to i8
  store i8 %frombool, i8* %condition.addr, align 1
  store i8* %t_value, i8** %t_value.addr, align 8
  store i8* %f_value, i8** %f_value.addr, align 8
  store i8* %type_, i8** %type_.addr, align 8
  store i8* %cndName, i8** %cndName.addr, align 8
  %0 = load i8*, i8** %t_value.addr, align 8
  call void @_ZNSt3__112basic_stringIcNS_11char_traitsIcEENS_9allocatorIcEEEC1IDnEEPKc(%"class.std::__1::basic_string"* %tval, i8* %0)
  %1 = load i8*, i8** %f_value.addr, align 8
  invoke void @_ZNSt3__112basic_stringIcNS_11char_traitsIcEENS_9allocatorIcEEEC1IDnEEPKc(%"class.std::__1::basic_string"* %fval, i8* %1)
          to label %invoke.cont unwind label %lpad

invoke.cont:                                      ; preds = %entry
  %2 = load i8*, i8** %type_.addr, align 8
  invoke void @_ZNSt3__112basic_stringIcNS_11char_traitsIcEENS_9allocatorIcEEEC1IDnEEPKc(%"class.std::__1::basic_string"* %type, i8* %2)
          to label %invoke.cont2 unwind label %lpad1

invoke.cont2:                                     ; preds = %invoke.cont
  call void @_ZNSt3__112basic_stringIcNS_11char_traitsIcEENS_9allocatorIcEEEC1Ev(%"class.std::__1::basic_string"* %t_val) #2
  call void @_ZNSt3__112basic_stringIcNS_11char_traitsIcEENS_9allocatorIcEEEC1Ev(%"class.std::__1::basic_string"* %f_val) #2
  %call = invoke %"class.std::__1::__tree_end_node"* @_ZNSt3__13mapINS_12basic_stringIcNS_11char_traitsIcEENS_9allocatorIcEEEES6_NS_4lessIS6_EENS4_INS_4pairIKS6_S6_EEEEE4findERSA_(%"class.std::__1::map"* @sym_state, %"class.std::__1::basic_string"* dereferenceable(24) %tval)
          to label %invoke.cont4 unwind label %lpad3

invoke.cont4:                                     ; preds = %invoke.cont2
  %coerce.dive = getelementptr inbounds %"class.std::__1::__map_iterator", %"class.std::__1::__map_iterator"* %itr, i32 0, i32 0
  %coerce.dive5 = getelementptr inbounds %"class.std::__1::__tree_iterator", %"class.std::__1::__tree_iterator"* %coerce.dive, i32 0, i32 0
  store %"class.std::__1::__tree_end_node"* %call, %"class.std::__1::__tree_end_node"** %coerce.dive5, align 8
  %call6 = call %"class.std::__1::__tree_end_node"* @_ZNSt3__13mapINS_12basic_stringIcNS_11char_traitsIcEENS_9allocatorIcEEEES6_NS_4lessIS6_EENS4_INS_4pairIKS6_S6_EEEEE3endEv(%"class.std::__1::map"* @sym_state) #2
  %coerce.dive7 = getelementptr inbounds %"class.std::__1::__map_iterator", %"class.std::__1::__map_iterator"* %ref.tmp, i32 0, i32 0
  %coerce.dive8 = getelementptr inbounds %"class.std::__1::__tree_iterator", %"class.std::__1::__tree_iterator"* %coerce.dive7, i32 0, i32 0
  store %"class.std::__1::__tree_end_node"* %call6, %"class.std::__1::__tree_end_node"** %coerce.dive8, align 8
  %call10 = invoke zeroext i1 @_ZNSt3__1neERKNS_14__map_iteratorINS_15__tree_iteratorINS_12__value_typeINS_12basic_stringIcNS_11char_traitsIcEENS_9allocatorIcEEEES8_EEPNS_11__tree_nodeIS9_PvEElEEEESH_(%"class.std::__1::__map_iterator"* dereferenceable(8) %itr, %"class.std::__1::__map_iterator"* dereferenceable(8) %ref.tmp)
          to label %invoke.cont9 unwind label %lpad3

invoke.cont9:                                     ; preds = %invoke.cont4
  br i1 %call10, label %if.then, label %if.else

if.then:                                          ; preds = %invoke.cont9
  %call12 = invoke %"struct.std::__1::pair"* @_ZNKSt3__114__map_iteratorINS_15__tree_iteratorINS_12__value_typeINS_12basic_stringIcNS_11char_traitsIcEENS_9allocatorIcEEEES8_EEPNS_11__tree_nodeIS9_PvEElEEEptEv(%"class.std::__1::__map_iterator"* %itr)
          to label %invoke.cont11 unwind label %lpad3

invoke.cont11:                                    ; preds = %if.then
  %second = getelementptr inbounds %"struct.std::__1::pair", %"struct.std::__1::pair"* %call12, i32 0, i32 1
  %call14 = invoke dereferenceable(24) %"class.std::__1::basic_string"* @_ZNSt3__112basic_stringIcNS_11char_traitsIcEENS_9allocatorIcEEEaSERKS5_(%"class.std::__1::basic_string"* %t_val, %"class.std::__1::basic_string"* dereferenceable(24) %second)
          to label %invoke.cont13 unwind label %lpad3

invoke.cont13:                                    ; preds = %invoke.cont11
  br label %if.end

lpad:                                             ; preds = %entry
  %3 = landingpad { i8*, i32 }
          cleanup
  %4 = extractvalue { i8*, i32 } %3, 0
  store i8* %4, i8** %exn.slot, align 8
  %5 = extractvalue { i8*, i32 } %3, 1
  store i32 %5, i32* %ehselector.slot, align 4
  br label %ehcleanup116

lpad1:                                            ; preds = %invoke.cont
  %6 = landingpad { i8*, i32 }
          cleanup
  %7 = extractvalue { i8*, i32 } %6, 0
  store i8* %7, i8** %exn.slot, align 8
  %8 = extractvalue { i8*, i32 } %6, 1
  store i32 %8, i32* %ehselector.slot, align 4
  br label %ehcleanup115

lpad3:                                            ; preds = %invoke.cont59, %invoke.cont57, %invoke.cont55, %if.end54, %if.else46, %if.then38, %if.else34, %invoke.cont29, %if.then28, %invoke.cont18, %if.end, %if.else, %invoke.cont11, %if.then, %invoke.cont4, %invoke.cont2
  %9 = landingpad { i8*, i32 }
          cleanup
  %10 = extractvalue { i8*, i32 } %9, 0
  store i8* %10, i8** %exn.slot, align 8
  %11 = extractvalue { i8*, i32 } %9, 1
  store i32 %11, i32* %ehselector.slot, align 4
  br label %ehcleanup112

if.else:                                          ; preds = %invoke.cont9
  %call16 = invoke dereferenceable(24) %"class.std::__1::basic_string"* @_ZNSt3__112basic_stringIcNS_11char_traitsIcEENS_9allocatorIcEEEaSERKS5_(%"class.std::__1::basic_string"* %t_val, %"class.std::__1::basic_string"* dereferenceable(24) %tval)
          to label %invoke.cont15 unwind label %lpad3

invoke.cont15:                                    ; preds = %if.else
  br label %if.end

if.end:                                           ; preds = %invoke.cont15, %invoke.cont13
  %call19 = invoke %"class.std::__1::__tree_end_node"* @_ZNSt3__13mapINS_12basic_stringIcNS_11char_traitsIcEENS_9allocatorIcEEEES6_NS_4lessIS6_EENS4_INS_4pairIKS6_S6_EEEEE4findERSA_(%"class.std::__1::map"* @sym_state, %"class.std::__1::basic_string"* dereferenceable(24) %fval)
          to label %invoke.cont18 unwind label %lpad3

invoke.cont18:                                    ; preds = %if.end
  %coerce.dive20 = getelementptr inbounds %"class.std::__1::__map_iterator", %"class.std::__1::__map_iterator"* %ref.tmp17, i32 0, i32 0
  %coerce.dive21 = getelementptr inbounds %"class.std::__1::__tree_iterator", %"class.std::__1::__tree_iterator"* %coerce.dive20, i32 0, i32 0
  store %"class.std::__1::__tree_end_node"* %call19, %"class.std::__1::__tree_end_node"** %coerce.dive21, align 8
  %12 = bitcast %"class.std::__1::__map_iterator"* %itr to i8*
  %13 = bitcast %"class.std::__1::__map_iterator"* %ref.tmp17 to i8*
  call void @llvm.memcpy.p0i8.p0i8.i64(i8* align 8 %12, i8* align 8 %13, i64 8, i1 false)
  %call23 = call %"class.std::__1::__tree_end_node"* @_ZNSt3__13mapINS_12basic_stringIcNS_11char_traitsIcEENS_9allocatorIcEEEES6_NS_4lessIS6_EENS4_INS_4pairIKS6_S6_EEEEE3endEv(%"class.std::__1::map"* @sym_state) #2
  %coerce.dive24 = getelementptr inbounds %"class.std::__1::__map_iterator", %"class.std::__1::__map_iterator"* %ref.tmp22, i32 0, i32 0
  %coerce.dive25 = getelementptr inbounds %"class.std::__1::__tree_iterator", %"class.std::__1::__tree_iterator"* %coerce.dive24, i32 0, i32 0
  store %"class.std::__1::__tree_end_node"* %call23, %"class.std::__1::__tree_end_node"** %coerce.dive25, align 8
  %call27 = invoke zeroext i1 @_ZNSt3__1neERKNS_14__map_iteratorINS_15__tree_iteratorINS_12__value_typeINS_12basic_stringIcNS_11char_traitsIcEENS_9allocatorIcEEEES8_EEPNS_11__tree_nodeIS9_PvEElEEEESH_(%"class.std::__1::__map_iterator"* dereferenceable(8) %itr, %"class.std::__1::__map_iterator"* dereferenceable(8) %ref.tmp22)
          to label %invoke.cont26 unwind label %lpad3

invoke.cont26:                                    ; preds = %invoke.cont18
  br i1 %call27, label %if.then28, label %if.else34

if.then28:                                        ; preds = %invoke.cont26
  %call30 = invoke %"struct.std::__1::pair"* @_ZNKSt3__114__map_iteratorINS_15__tree_iteratorINS_12__value_typeINS_12basic_stringIcNS_11char_traitsIcEENS_9allocatorIcEEEES8_EEPNS_11__tree_nodeIS9_PvEElEEEptEv(%"class.std::__1::__map_iterator"* %itr)
          to label %invoke.cont29 unwind label %lpad3

invoke.cont29:                                    ; preds = %if.then28
  %second31 = getelementptr inbounds %"struct.std::__1::pair", %"struct.std::__1::pair"* %call30, i32 0, i32 1
  %call33 = invoke dereferenceable(24) %"class.std::__1::basic_string"* @_ZNSt3__112basic_stringIcNS_11char_traitsIcEENS_9allocatorIcEEEaSERKS5_(%"class.std::__1::basic_string"* %f_val, %"class.std::__1::basic_string"* dereferenceable(24) %second31)
          to label %invoke.cont32 unwind label %lpad3

invoke.cont32:                                    ; preds = %invoke.cont29
  br label %if.end37

if.else34:                                        ; preds = %invoke.cont26
  %call36 = invoke dereferenceable(24) %"class.std::__1::basic_string"* @_ZNSt3__112basic_stringIcNS_11char_traitsIcEENS_9allocatorIcEEEaSERKS5_(%"class.std::__1::basic_string"* %f_val, %"class.std::__1::basic_string"* dereferenceable(24) %fval)
          to label %invoke.cont35 unwind label %lpad3

invoke.cont35:                                    ; preds = %if.else34
  br label %if.end37

if.end37:                                         ; preds = %invoke.cont35, %invoke.cont32
  %14 = load i8, i8* %condition.addr, align 1
  %tobool = trunc i8 %14 to i1
  br i1 %tobool, label %if.then38, label %if.else46

if.then38:                                        ; preds = %if.end37
  %15 = load i8*, i8** %key.addr, align 8
  invoke void @_ZNSt3__112basic_stringIcNS_11char_traitsIcEENS_9allocatorIcEEEC1IDnEEPKc(%"class.std::__1::basic_string"* %ref.tmp39, i8* %15)
          to label %invoke.cont40 unwind label %lpad3

invoke.cont40:                                    ; preds = %if.then38
  %call43 = invoke dereferenceable(24) %"class.std::__1::basic_string"* @_ZNSt3__13mapINS_12basic_stringIcNS_11char_traitsIcEENS_9allocatorIcEEEES6_NS_4lessIS6_EENS4_INS_4pairIKS6_S6_EEEEEixEOS6_(%"class.std::__1::map"* @sym_state, %"class.std::__1::basic_string"* dereferenceable(24) %ref.tmp39)
          to label %invoke.cont42 unwind label %lpad41

invoke.cont42:                                    ; preds = %invoke.cont40
  %call45 = invoke dereferenceable(24) %"class.std::__1::basic_string"* @_ZNSt3__112basic_stringIcNS_11char_traitsIcEENS_9allocatorIcEEEaSERKS5_(%"class.std::__1::basic_string"* %call43, %"class.std::__1::basic_string"* dereferenceable(24) %t_val)
          to label %invoke.cont44 unwind label %lpad41

invoke.cont44:                                    ; preds = %invoke.cont42
  call void @_ZNSt3__112basic_stringIcNS_11char_traitsIcEENS_9allocatorIcEEED1Ev(%"class.std::__1::basic_string"* %ref.tmp39) #2
  br label %if.end54

lpad41:                                           ; preds = %invoke.cont42, %invoke.cont40
  %16 = landingpad { i8*, i32 }
          cleanup
  %17 = extractvalue { i8*, i32 } %16, 0
  store i8* %17, i8** %exn.slot, align 8
  %18 = extractvalue { i8*, i32 } %16, 1
  store i32 %18, i32* %ehselector.slot, align 4
  call void @_ZNSt3__112basic_stringIcNS_11char_traitsIcEENS_9allocatorIcEEED1Ev(%"class.std::__1::basic_string"* %ref.tmp39) #2
  br label %ehcleanup112

if.else46:                                        ; preds = %if.end37
  %19 = load i8*, i8** %key.addr, align 8
  invoke void @_ZNSt3__112basic_stringIcNS_11char_traitsIcEENS_9allocatorIcEEEC1IDnEEPKc(%"class.std::__1::basic_string"* %ref.tmp47, i8* %19)
          to label %invoke.cont48 unwind label %lpad3

invoke.cont48:                                    ; preds = %if.else46
  %call51 = invoke dereferenceable(24) %"class.std::__1::basic_string"* @_ZNSt3__13mapINS_12basic_stringIcNS_11char_traitsIcEENS_9allocatorIcEEEES6_NS_4lessIS6_EENS4_INS_4pairIKS6_S6_EEEEEixEOS6_(%"class.std::__1::map"* @sym_state, %"class.std::__1::basic_string"* dereferenceable(24) %ref.tmp47)
          to label %invoke.cont50 unwind label %lpad49

invoke.cont50:                                    ; preds = %invoke.cont48
  %call53 = invoke dereferenceable(24) %"class.std::__1::basic_string"* @_ZNSt3__112basic_stringIcNS_11char_traitsIcEENS_9allocatorIcEEEaSERKS5_(%"class.std::__1::basic_string"* %call51, %"class.std::__1::basic_string"* dereferenceable(24) %f_val)
          to label %invoke.cont52 unwind label %lpad49

invoke.cont52:                                    ; preds = %invoke.cont50
  call void @_ZNSt3__112basic_stringIcNS_11char_traitsIcEENS_9allocatorIcEEED1Ev(%"class.std::__1::basic_string"* %ref.tmp47) #2
  br label %if.end54

lpad49:                                           ; preds = %invoke.cont50, %invoke.cont48
  %20 = landingpad { i8*, i32 }
          cleanup
  %21 = extractvalue { i8*, i32 } %20, 0
  store i8* %21, i8** %exn.slot, align 8
  %22 = extractvalue { i8*, i32 } %20, 1
  store i32 %22, i32* %ehselector.slot, align 4
  call void @_ZNSt3__112basic_stringIcNS_11char_traitsIcEENS_9allocatorIcEEED1Ev(%"class.std::__1::basic_string"* %ref.tmp47) #2
  br label %ehcleanup112

if.end54:                                         ; preds = %invoke.cont52, %invoke.cont44
  %call56 = invoke dereferenceable(160) %"class.std::__1::basic_ostream"* @_ZNSt3__1lsINS_11char_traitsIcEEEERNS_13basic_ostreamIcT_EES6_PKc(%"class.std::__1::basic_ostream"* dereferenceable(160) bitcast (%"class.std::__1::basic_ofstream"* @stg_state to %"class.std::__1::basic_ostream"*), i8* getelementptr inbounds ([7 x i8], [7 x i8]* @.str.9, i32 0, i32 0))
          to label %invoke.cont55 unwind label %lpad3

invoke.cont55:                                    ; preds = %if.end54
  %23 = load i8*, i8** %key.addr, align 8
  %call58 = invoke dereferenceable(160) %"class.std::__1::basic_ostream"* @_ZNSt3__1lsINS_11char_traitsIcEEEERNS_13basic_ostreamIcT_EES6_PKc(%"class.std::__1::basic_ostream"* dereferenceable(160) %call56, i8* %23)
          to label %invoke.cont57 unwind label %lpad3

invoke.cont57:                                    ; preds = %invoke.cont55
  %call60 = invoke dereferenceable(160) %"class.std::__1::basic_ostream"* @_ZNSt3__1lsINS_11char_traitsIcEEEERNS_13basic_ostreamIcT_EES6_PKc(%"class.std::__1::basic_ostream"* dereferenceable(160) %call58, i8* getelementptr inbounds ([6 x i8], [6 x i8]* @.str.10, i32 0, i32 0))
          to label %invoke.cont59 unwind label %lpad3

invoke.cont59:                                    ; preds = %invoke.cont57
  %24 = load i8*, i8** %key.addr, align 8
  invoke void @_ZNSt3__112basic_stringIcNS_11char_traitsIcEENS_9allocatorIcEEEC1IDnEEPKc(%"class.std::__1::basic_string"* %ref.tmp61, i8* %24)
          to label %invoke.cont62 unwind label %lpad3

invoke.cont62:                                    ; preds = %invoke.cont59
  %call65 = invoke dereferenceable(24) %"class.std::__1::basic_string"* @_ZNSt3__13mapINS_12basic_stringIcNS_11char_traitsIcEENS_9allocatorIcEEEES6_NS_4lessIS6_EENS4_INS_4pairIKS6_S6_EEEEEixEOS6_(%"class.std::__1::map"* @sym_state, %"class.std::__1::basic_string"* dereferenceable(24) %ref.tmp61)
          to label %invoke.cont64 unwind label %lpad63

invoke.cont64:                                    ; preds = %invoke.cont62
  %call67 = invoke dereferenceable(160) %"class.std::__1::basic_ostream"* @_ZNSt3__1lsIcNS_11char_traitsIcEENS_9allocatorIcEEEERNS_13basic_ostreamIT_T0_EES9_RKNS_12basic_stringIS6_S7_T1_EE(%"class.std::__1::basic_ostream"* dereferenceable(160) %call60, %"class.std::__1::basic_string"* dereferenceable(24) %call65)
          to label %invoke.cont66 unwind label %lpad63

invoke.cont66:                                    ; preds = %invoke.cont64
  %call69 = invoke dereferenceable(160) %"class.std::__1::basic_ostream"* @_ZNSt3__1lsINS_11char_traitsIcEEEERNS_13basic_ostreamIcT_EES6_PKc(%"class.std::__1::basic_ostream"* dereferenceable(160) %call67, i8* getelementptr inbounds ([3 x i8], [3 x i8]* @.str.11, i32 0, i32 0))
          to label %invoke.cont68 unwind label %lpad63

invoke.cont68:                                    ; preds = %invoke.cont66
  call void @_ZNSt3__112basic_stringIcNS_11char_traitsIcEENS_9allocatorIcEEED1Ev(%"class.std::__1::basic_string"* %ref.tmp61) #2
  call void @_ZNSt3__112basic_stringIcNS_11char_traitsIcEENS_9allocatorIcEEEC1Ev(%"class.std::__1::basic_string"* %value) #2
  %25 = load i8*, i8** %cndName.addr, align 8
  invoke void @_ZNSt3__112basic_stringIcNS_11char_traitsIcEENS_9allocatorIcEEEC1IDnEEPKc(%"class.std::__1::basic_string"* %key_, i8* %25)
          to label %invoke.cont71 unwind label %lpad70

invoke.cont71:                                    ; preds = %invoke.cont68
  %call75 = invoke %"class.std::__1::__tree_end_node"* @_ZNSt3__13mapINS_12basic_stringIcNS_11char_traitsIcEENS_9allocatorIcEEEES6_NS_4lessIS6_EENS4_INS_4pairIKS6_S6_EEEEE4findERSA_(%"class.std::__1::map"* @sym_state, %"class.std::__1::basic_string"* dereferenceable(24) %key_)
          to label %invoke.cont74 unwind label %lpad73

invoke.cont74:                                    ; preds = %invoke.cont71
  %coerce.dive76 = getelementptr inbounds %"class.std::__1::__map_iterator", %"class.std::__1::__map_iterator"* %ref.tmp72, i32 0, i32 0
  %coerce.dive77 = getelementptr inbounds %"class.std::__1::__tree_iterator", %"class.std::__1::__tree_iterator"* %coerce.dive76, i32 0, i32 0
  store %"class.std::__1::__tree_end_node"* %call75, %"class.std::__1::__tree_end_node"** %coerce.dive77, align 8
  %26 = bitcast %"class.std::__1::__map_iterator"* %itr to i8*
  %27 = bitcast %"class.std::__1::__map_iterator"* %ref.tmp72 to i8*
  call void @llvm.memcpy.p0i8.p0i8.i64(i8* align 8 %26, i8* align 8 %27, i64 8, i1 false)
  %call79 = call %"class.std::__1::__tree_end_node"* @_ZNSt3__13mapINS_12basic_stringIcNS_11char_traitsIcEENS_9allocatorIcEEEES6_NS_4lessIS6_EENS4_INS_4pairIKS6_S6_EEEEE3endEv(%"class.std::__1::map"* @sym_state) #2
  %coerce.dive80 = getelementptr inbounds %"class.std::__1::__map_iterator", %"class.std::__1::__map_iterator"* %ref.tmp78, i32 0, i32 0
  %coerce.dive81 = getelementptr inbounds %"class.std::__1::__tree_iterator", %"class.std::__1::__tree_iterator"* %coerce.dive80, i32 0, i32 0
  store %"class.std::__1::__tree_end_node"* %call79, %"class.std::__1::__tree_end_node"** %coerce.dive81, align 8
  %call83 = invoke zeroext i1 @_ZNSt3__1neERKNS_14__map_iteratorINS_15__tree_iteratorINS_12__value_typeINS_12basic_stringIcNS_11char_traitsIcEENS_9allocatorIcEEEES8_EEPNS_11__tree_nodeIS9_PvEElEEEESH_(%"class.std::__1::__map_iterator"* dereferenceable(8) %itr, %"class.std::__1::__map_iterator"* dereferenceable(8) %ref.tmp78)
          to label %invoke.cont82 unwind label %lpad73

invoke.cont82:                                    ; preds = %invoke.cont74
  br i1 %call83, label %if.then84, label %if.end90

if.then84:                                        ; preds = %invoke.cont82
  %call86 = invoke %"struct.std::__1::pair"* @_ZNKSt3__114__map_iteratorINS_15__tree_iteratorINS_12__value_typeINS_12basic_stringIcNS_11char_traitsIcEENS_9allocatorIcEEEES8_EEPNS_11__tree_nodeIS9_PvEElEEEptEv(%"class.std::__1::__map_iterator"* %itr)
          to label %invoke.cont85 unwind label %lpad73

invoke.cont85:                                    ; preds = %if.then84
  %second87 = getelementptr inbounds %"struct.std::__1::pair", %"struct.std::__1::pair"* %call86, i32 0, i32 1
  %call89 = invoke dereferenceable(24) %"class.std::__1::basic_string"* @_ZNSt3__112basic_stringIcNS_11char_traitsIcEENS_9allocatorIcEEEaSERKS5_(%"class.std::__1::basic_string"* %value, %"class.std::__1::basic_string"* dereferenceable(24) %second87)
          to label %invoke.cont88 unwind label %lpad73

invoke.cont88:                                    ; preds = %invoke.cont85
  br label %if.end90

lpad63:                                           ; preds = %invoke.cont66, %invoke.cont64, %invoke.cont62
  %28 = landingpad { i8*, i32 }
          cleanup
  %29 = extractvalue { i8*, i32 } %28, 0
  store i8* %29, i8** %exn.slot, align 8
  %30 = extractvalue { i8*, i32 } %28, 1
  store i32 %30, i32* %ehselector.slot, align 4
  call void @_ZNSt3__112basic_stringIcNS_11char_traitsIcEENS_9allocatorIcEEED1Ev(%"class.std::__1::basic_string"* %ref.tmp61) #2
  br label %ehcleanup112

lpad70:                                           ; preds = %invoke.cont68
  %31 = landingpad { i8*, i32 }
          cleanup
  %32 = extractvalue { i8*, i32 } %31, 0
  store i8* %32, i8** %exn.slot, align 8
  %33 = extractvalue { i8*, i32 } %31, 1
  store i32 %33, i32* %ehselector.slot, align 4
  br label %ehcleanup111

lpad73:                                           ; preds = %if.end99, %if.then92, %invoke.cont85, %if.then84, %invoke.cont74, %invoke.cont71
  %34 = landingpad { i8*, i32 }
          cleanup
  %35 = extractvalue { i8*, i32 } %34, 0
  store i8* %35, i8** %exn.slot, align 8
  %36 = extractvalue { i8*, i32 } %34, 1
  store i32 %36, i32* %ehselector.slot, align 4
  br label %ehcleanup110

if.end90:                                         ; preds = %invoke.cont88, %invoke.cont82
  %37 = load i8, i8* %condition.addr, align 1
  %tobool91 = trunc i8 %37 to i1
  br i1 %tobool91, label %if.end99, label %if.then92

if.then92:                                        ; preds = %if.end90
  invoke void @_ZNSt3__1plIcNS_11char_traitsIcEENS_9allocatorIcEEEENS_12basic_stringIT_T0_T1_EEPKS6_RKS9_(%"class.std::__1::basic_string"* sret %ref.tmp94, i8* getelementptr inbounds ([6 x i8], [6 x i8]* @.str.23, i32 0, i32 0), %"class.std::__1::basic_string"* dereferenceable(24) %value)
          to label %invoke.cont95 unwind label %lpad73

invoke.cont95:                                    ; preds = %if.then92
  invoke void @_ZNSt3__1plIcNS_11char_traitsIcEENS_9allocatorIcEEEENS_12basic_stringIT_T0_T1_EEOS9_PKS6_(%"class.std::__1::basic_string"* sret %ref.tmp93, %"class.std::__1::basic_string"* dereferenceable(24) %ref.tmp94, i8* getelementptr inbounds ([2 x i8], [2 x i8]* @.str.8, i32 0, i32 0))
          to label %invoke.cont97 unwind label %lpad96

invoke.cont97:                                    ; preds = %invoke.cont95
  %call98 = call dereferenceable(24) %"class.std::__1::basic_string"* @_ZNSt3__112basic_stringIcNS_11char_traitsIcEENS_9allocatorIcEEEaSEOS5_(%"class.std::__1::basic_string"* %value, %"class.std::__1::basic_string"* dereferenceable(24) %ref.tmp93) #2
  call void @_ZNSt3__112basic_stringIcNS_11char_traitsIcEENS_9allocatorIcEEED1Ev(%"class.std::__1::basic_string"* %ref.tmp93) #2
  call void @_ZNSt3__112basic_stringIcNS_11char_traitsIcEENS_9allocatorIcEEED1Ev(%"class.std::__1::basic_string"* %ref.tmp94) #2
  br label %if.end99

lpad96:                                           ; preds = %invoke.cont95
  %38 = landingpad { i8*, i32 }
          cleanup
  %39 = extractvalue { i8*, i32 } %38, 0
  store i8* %39, i8** %exn.slot, align 8
  %40 = extractvalue { i8*, i32 } %38, 1
  store i32 %40, i32* %ehselector.slot, align 4
  call void @_ZNSt3__112basic_stringIcNS_11char_traitsIcEENS_9allocatorIcEEED1Ev(%"class.std::__1::basic_string"* %ref.tmp94) #2
  br label %ehcleanup110

if.end99:                                         ; preds = %invoke.cont97, %if.end90
  %41 = load i32, i32* @path_condition_count, align 4
  invoke void @_ZNSt3__19to_stringEi(%"class.std::__1::basic_string"* sret %ref.tmp101, i32 %41)
          to label %invoke.cont102 unwind label %lpad73

invoke.cont102:                                   ; preds = %if.end99
  invoke void @_ZNSt3__1plIcNS_11char_traitsIcEENS_9allocatorIcEEEENS_12basic_stringIT_T0_T1_EEPKS6_OS9_(%"class.std::__1::basic_string"* sret %ref.tmp100, i8* getelementptr inbounds ([3 x i8], [3 x i8]* @.str.24, i32 0, i32 0), %"class.std::__1::basic_string"* dereferenceable(24) %ref.tmp101)
          to label %invoke.cont104 unwind label %lpad103

invoke.cont104:                                   ; preds = %invoke.cont102
  %call107 = invoke dereferenceable(24) %"class.std::__1::basic_string"* @_ZNSt3__13mapINS_12basic_stringIcNS_11char_traitsIcEENS_9allocatorIcEEEES6_NS_4lessIS6_EENS4_INS_4pairIKS6_S6_EEEEEixEOS6_(%"class.std::__1::map"* @path_conditions, %"class.std::__1::basic_string"* dereferenceable(24) %ref.tmp100)
          to label %invoke.cont106 unwind label %lpad105

invoke.cont106:                                   ; preds = %invoke.cont104
  %call109 = invoke dereferenceable(24) %"class.std::__1::basic_string"* @_ZNSt3__112basic_stringIcNS_11char_traitsIcEENS_9allocatorIcEEEaSERKS5_(%"class.std::__1::basic_string"* %call107, %"class.std::__1::basic_string"* dereferenceable(24) %value)
          to label %invoke.cont108 unwind label %lpad105

invoke.cont108:                                   ; preds = %invoke.cont106
  call void @_ZNSt3__112basic_stringIcNS_11char_traitsIcEENS_9allocatorIcEEED1Ev(%"class.std::__1::basic_string"* %ref.tmp100) #2
  call void @_ZNSt3__112basic_stringIcNS_11char_traitsIcEENS_9allocatorIcEEED1Ev(%"class.std::__1::basic_string"* %ref.tmp101) #2
  %42 = load i32, i32* @path_condition_count, align 4
  %inc = add nsw i32 %42, 1
  store i32 %inc, i32* @path_condition_count, align 4
  call void @_ZNSt3__112basic_stringIcNS_11char_traitsIcEENS_9allocatorIcEEED1Ev(%"class.std::__1::basic_string"* %key_) #2
  call void @_ZNSt3__112basic_stringIcNS_11char_traitsIcEENS_9allocatorIcEEED1Ev(%"class.std::__1::basic_string"* %value) #2
  call void @_ZNSt3__112basic_stringIcNS_11char_traitsIcEENS_9allocatorIcEEED1Ev(%"class.std::__1::basic_string"* %f_val) #2
  call void @_ZNSt3__112basic_stringIcNS_11char_traitsIcEENS_9allocatorIcEEED1Ev(%"class.std::__1::basic_string"* %t_val) #2
  call void @_ZNSt3__112basic_stringIcNS_11char_traitsIcEENS_9allocatorIcEEED1Ev(%"class.std::__1::basic_string"* %type) #2
  call void @_ZNSt3__112basic_stringIcNS_11char_traitsIcEENS_9allocatorIcEEED1Ev(%"class.std::__1::basic_string"* %fval) #2
  call void @_ZNSt3__112basic_stringIcNS_11char_traitsIcEENS_9allocatorIcEEED1Ev(%"class.std::__1::basic_string"* %tval) #2
  ret void

lpad103:                                          ; preds = %invoke.cont102
  %43 = landingpad { i8*, i32 }
          cleanup
  %44 = extractvalue { i8*, i32 } %43, 0
  store i8* %44, i8** %exn.slot, align 8
  %45 = extractvalue { i8*, i32 } %43, 1
  store i32 %45, i32* %ehselector.slot, align 4
  br label %ehcleanup

lpad105:                                          ; preds = %invoke.cont106, %invoke.cont104
  %46 = landingpad { i8*, i32 }
          cleanup
  %47 = extractvalue { i8*, i32 } %46, 0
  store i8* %47, i8** %exn.slot, align 8
  %48 = extractvalue { i8*, i32 } %46, 1
  store i32 %48, i32* %ehselector.slot, align 4
  call void @_ZNSt3__112basic_stringIcNS_11char_traitsIcEENS_9allocatorIcEEED1Ev(%"class.std::__1::basic_string"* %ref.tmp100) #2
  br label %ehcleanup

ehcleanup:                                        ; preds = %lpad105, %lpad103
  call void @_ZNSt3__112basic_stringIcNS_11char_traitsIcEENS_9allocatorIcEEED1Ev(%"class.std::__1::basic_string"* %ref.tmp101) #2
  br label %ehcleanup110

ehcleanup110:                                     ; preds = %ehcleanup, %lpad96, %lpad73
  call void @_ZNSt3__112basic_stringIcNS_11char_traitsIcEENS_9allocatorIcEEED1Ev(%"class.std::__1::basic_string"* %key_) #2
  br label %ehcleanup111

ehcleanup111:                                     ; preds = %ehcleanup110, %lpad70
  call void @_ZNSt3__112basic_stringIcNS_11char_traitsIcEENS_9allocatorIcEEED1Ev(%"class.std::__1::basic_string"* %value) #2
  br label %ehcleanup112

ehcleanup112:                                     ; preds = %ehcleanup111, %lpad63, %lpad49, %lpad41, %lpad3
  call void @_ZNSt3__112basic_stringIcNS_11char_traitsIcEENS_9allocatorIcEEED1Ev(%"class.std::__1::basic_string"* %f_val) #2
  call void @_ZNSt3__112basic_stringIcNS_11char_traitsIcEENS_9allocatorIcEEED1Ev(%"class.std::__1::basic_string"* %t_val) #2
  call void @_ZNSt3__112basic_stringIcNS_11char_traitsIcEENS_9allocatorIcEEED1Ev(%"class.std::__1::basic_string"* %type) #2
  br label %ehcleanup115

ehcleanup115:                                     ; preds = %ehcleanup112, %lpad1
  call void @_ZNSt3__112basic_stringIcNS_11char_traitsIcEENS_9allocatorIcEEED1Ev(%"class.std::__1::basic_string"* %fval) #2
  br label %ehcleanup116

ehcleanup116:                                     ; preds = %ehcleanup115, %lpad
  call void @_ZNSt3__112basic_stringIcNS_11char_traitsIcEENS_9allocatorIcEEED1Ev(%"class.std::__1::basic_string"* %tval) #2
  br label %eh.resume

eh.resume:                                        ; preds = %ehcleanup116
  %exn = load i8*, i8** %exn.slot, align 8
  %sel = load i32, i32* %ehselector.slot, align 4
  %lpad.val = insertvalue { i8*, i32 } undef, i8* %exn, 0
  %lpad.val117 = insertvalue { i8*, i32 } %lpad.val, i32 %sel, 1
  resume { i8*, i32 } %lpad.val117
}

declare void @_ZNSt3__19to_stringEi(%"class.std::__1::basic_string"* sret, i32) #5

; Function Attrs: noinline optnone ssp uwtable
define void @stg_update_op(i8* %key, i8* %lhs, i8* %op, i8* %rhs) #4 personality i8* bitcast (i32 (...)* @__gxx_personality_v0 to i8*) {
entry:
  %key.addr = alloca i8*, align 8
  %lhs.addr = alloca i8*, align 8
  %op.addr = alloca i8*, align 8
  %rhs.addr = alloca i8*, align 8
  %loperand = alloca %"class.std::__1::basic_string", align 8
  %roperand = alloca %"class.std::__1::basic_string", align 8
  %exn.slot = alloca i8*
  %ehselector.slot = alloca i32
  %oper = alloca %"class.std::__1::basic_string", align 8
  %lvalue = alloca %"class.std::__1::basic_string", align 8
  %rvalue = alloca %"class.std::__1::basic_string", align 8
  %itr = alloca %"class.std::__1::__map_iterator", align 8
  %ref.tmp = alloca %"class.std::__1::__map_iterator", align 8
  %ref.tmp17 = alloca %"class.std::__1::__map_iterator", align 8
  %ref.tmp22 = alloca %"class.std::__1::__map_iterator", align 8
  %ref.tmp38 = alloca %"class.std::__1::basic_string", align 8
  %ref.tmp39 = alloca %"class.std::__1::basic_string", align 8
  %ref.tmp40 = alloca %"class.std::__1::basic_string", align 8
  %ref.tmp41 = alloca %"class.std::__1::basic_string", align 8
  %ref.tmp42 = alloca %"class.std::__1::basic_string", align 8
  %ref.tmp43 = alloca %"class.std::__1::basic_string", align 8
  %ref.tmp55 = alloca %"class.std::__1::basic_string", align 8
  %ref.tmp73 = alloca %"class.std::__1::basic_string", align 8
  store i8* %key, i8** %key.addr, align 8
  store i8* %lhs, i8** %lhs.addr, align 8
  store i8* %op, i8** %op.addr, align 8
  store i8* %rhs, i8** %rhs.addr, align 8
  %0 = load i8*, i8** %lhs.addr, align 8
  call void @_ZNSt3__112basic_stringIcNS_11char_traitsIcEENS_9allocatorIcEEEC1IDnEEPKc(%"class.std::__1::basic_string"* %loperand, i8* %0)
  %1 = load i8*, i8** %rhs.addr, align 8
  invoke void @_ZNSt3__112basic_stringIcNS_11char_traitsIcEENS_9allocatorIcEEEC1IDnEEPKc(%"class.std::__1::basic_string"* %roperand, i8* %1)
          to label %invoke.cont unwind label %lpad

invoke.cont:                                      ; preds = %entry
  %2 = load i8*, i8** %op.addr, align 8
  invoke void @_ZNSt3__112basic_stringIcNS_11char_traitsIcEENS_9allocatorIcEEEC1IDnEEPKc(%"class.std::__1::basic_string"* %oper, i8* %2)
          to label %invoke.cont2 unwind label %lpad1

invoke.cont2:                                     ; preds = %invoke.cont
  call void @_ZNSt3__112basic_stringIcNS_11char_traitsIcEENS_9allocatorIcEEEC1Ev(%"class.std::__1::basic_string"* %lvalue) #2
  call void @_ZNSt3__112basic_stringIcNS_11char_traitsIcEENS_9allocatorIcEEEC1Ev(%"class.std::__1::basic_string"* %rvalue) #2
  %call = invoke %"class.std::__1::__tree_end_node"* @_ZNSt3__13mapINS_12basic_stringIcNS_11char_traitsIcEENS_9allocatorIcEEEES6_NS_4lessIS6_EENS4_INS_4pairIKS6_S6_EEEEE4findERSA_(%"class.std::__1::map"* @sym_state, %"class.std::__1::basic_string"* dereferenceable(24) %loperand)
          to label %invoke.cont4 unwind label %lpad3

invoke.cont4:                                     ; preds = %invoke.cont2
  %coerce.dive = getelementptr inbounds %"class.std::__1::__map_iterator", %"class.std::__1::__map_iterator"* %itr, i32 0, i32 0
  %coerce.dive5 = getelementptr inbounds %"class.std::__1::__tree_iterator", %"class.std::__1::__tree_iterator"* %coerce.dive, i32 0, i32 0
  store %"class.std::__1::__tree_end_node"* %call, %"class.std::__1::__tree_end_node"** %coerce.dive5, align 8
  %call6 = call %"class.std::__1::__tree_end_node"* @_ZNSt3__13mapINS_12basic_stringIcNS_11char_traitsIcEENS_9allocatorIcEEEES6_NS_4lessIS6_EENS4_INS_4pairIKS6_S6_EEEEE3endEv(%"class.std::__1::map"* @sym_state) #2
  %coerce.dive7 = getelementptr inbounds %"class.std::__1::__map_iterator", %"class.std::__1::__map_iterator"* %ref.tmp, i32 0, i32 0
  %coerce.dive8 = getelementptr inbounds %"class.std::__1::__tree_iterator", %"class.std::__1::__tree_iterator"* %coerce.dive7, i32 0, i32 0
  store %"class.std::__1::__tree_end_node"* %call6, %"class.std::__1::__tree_end_node"** %coerce.dive8, align 8
  %call10 = invoke zeroext i1 @_ZNSt3__1neERKNS_14__map_iteratorINS_15__tree_iteratorINS_12__value_typeINS_12basic_stringIcNS_11char_traitsIcEENS_9allocatorIcEEEES8_EEPNS_11__tree_nodeIS9_PvEElEEEESH_(%"class.std::__1::__map_iterator"* dereferenceable(8) %itr, %"class.std::__1::__map_iterator"* dereferenceable(8) %ref.tmp)
          to label %invoke.cont9 unwind label %lpad3

invoke.cont9:                                     ; preds = %invoke.cont4
  br i1 %call10, label %if.then, label %if.else

if.then:                                          ; preds = %invoke.cont9
  %call12 = invoke %"struct.std::__1::pair"* @_ZNKSt3__114__map_iteratorINS_15__tree_iteratorINS_12__value_typeINS_12basic_stringIcNS_11char_traitsIcEENS_9allocatorIcEEEES8_EEPNS_11__tree_nodeIS9_PvEElEEEptEv(%"class.std::__1::__map_iterator"* %itr)
          to label %invoke.cont11 unwind label %lpad3

invoke.cont11:                                    ; preds = %if.then
  %second = getelementptr inbounds %"struct.std::__1::pair", %"struct.std::__1::pair"* %call12, i32 0, i32 1
  %call14 = invoke dereferenceable(24) %"class.std::__1::basic_string"* @_ZNSt3__112basic_stringIcNS_11char_traitsIcEENS_9allocatorIcEEEaSERKS5_(%"class.std::__1::basic_string"* %lvalue, %"class.std::__1::basic_string"* dereferenceable(24) %second)
          to label %invoke.cont13 unwind label %lpad3

invoke.cont13:                                    ; preds = %invoke.cont11
  br label %if.end

lpad:                                             ; preds = %entry
  %3 = landingpad { i8*, i32 }
          cleanup
  %4 = extractvalue { i8*, i32 } %3, 0
  store i8* %4, i8** %exn.slot, align 8
  %5 = extractvalue { i8*, i32 } %3, 1
  store i32 %5, i32* %ehselector.slot, align 4
  br label %ehcleanup87

lpad1:                                            ; preds = %invoke.cont
  %6 = landingpad { i8*, i32 }
          cleanup
  %7 = extractvalue { i8*, i32 } %6, 0
  store i8* %7, i8** %exn.slot, align 8
  %8 = extractvalue { i8*, i32 } %6, 1
  store i32 %8, i32* %ehselector.slot, align 4
  br label %ehcleanup86

lpad3:                                            ; preds = %invoke.cont71, %invoke.cont69, %invoke.cont67, %invoke.cont59, %if.end37, %if.else34, %invoke.cont29, %if.then28, %invoke.cont18, %if.end, %if.else, %invoke.cont11, %if.then, %invoke.cont4, %invoke.cont2
  %9 = landingpad { i8*, i32 }
          cleanup
  %10 = extractvalue { i8*, i32 } %9, 0
  store i8* %10, i8** %exn.slot, align 8
  %11 = extractvalue { i8*, i32 } %9, 1
  store i32 %11, i32* %ehselector.slot, align 4
  br label %ehcleanup83

if.else:                                          ; preds = %invoke.cont9
  %call16 = invoke dereferenceable(24) %"class.std::__1::basic_string"* @_ZNSt3__112basic_stringIcNS_11char_traitsIcEENS_9allocatorIcEEEaSERKS5_(%"class.std::__1::basic_string"* %lvalue, %"class.std::__1::basic_string"* dereferenceable(24) %loperand)
          to label %invoke.cont15 unwind label %lpad3

invoke.cont15:                                    ; preds = %if.else
  br label %if.end

if.end:                                           ; preds = %invoke.cont15, %invoke.cont13
  %call19 = invoke %"class.std::__1::__tree_end_node"* @_ZNSt3__13mapINS_12basic_stringIcNS_11char_traitsIcEENS_9allocatorIcEEEES6_NS_4lessIS6_EENS4_INS_4pairIKS6_S6_EEEEE4findERSA_(%"class.std::__1::map"* @sym_state, %"class.std::__1::basic_string"* dereferenceable(24) %roperand)
          to label %invoke.cont18 unwind label %lpad3

invoke.cont18:                                    ; preds = %if.end
  %coerce.dive20 = getelementptr inbounds %"class.std::__1::__map_iterator", %"class.std::__1::__map_iterator"* %ref.tmp17, i32 0, i32 0
  %coerce.dive21 = getelementptr inbounds %"class.std::__1::__tree_iterator", %"class.std::__1::__tree_iterator"* %coerce.dive20, i32 0, i32 0
  store %"class.std::__1::__tree_end_node"* %call19, %"class.std::__1::__tree_end_node"** %coerce.dive21, align 8
  %12 = bitcast %"class.std::__1::__map_iterator"* %itr to i8*
  %13 = bitcast %"class.std::__1::__map_iterator"* %ref.tmp17 to i8*
  call void @llvm.memcpy.p0i8.p0i8.i64(i8* align 8 %12, i8* align 8 %13, i64 8, i1 false)
  %call23 = call %"class.std::__1::__tree_end_node"* @_ZNSt3__13mapINS_12basic_stringIcNS_11char_traitsIcEENS_9allocatorIcEEEES6_NS_4lessIS6_EENS4_INS_4pairIKS6_S6_EEEEE3endEv(%"class.std::__1::map"* @sym_state) #2
  %coerce.dive24 = getelementptr inbounds %"class.std::__1::__map_iterator", %"class.std::__1::__map_iterator"* %ref.tmp22, i32 0, i32 0
  %coerce.dive25 = getelementptr inbounds %"class.std::__1::__tree_iterator", %"class.std::__1::__tree_iterator"* %coerce.dive24, i32 0, i32 0
  store %"class.std::__1::__tree_end_node"* %call23, %"class.std::__1::__tree_end_node"** %coerce.dive25, align 8
  %call27 = invoke zeroext i1 @_ZNSt3__1neERKNS_14__map_iteratorINS_15__tree_iteratorINS_12__value_typeINS_12basic_stringIcNS_11char_traitsIcEENS_9allocatorIcEEEES8_EEPNS_11__tree_nodeIS9_PvEElEEEESH_(%"class.std::__1::__map_iterator"* dereferenceable(8) %itr, %"class.std::__1::__map_iterator"* dereferenceable(8) %ref.tmp22)
          to label %invoke.cont26 unwind label %lpad3

invoke.cont26:                                    ; preds = %invoke.cont18
  br i1 %call27, label %if.then28, label %if.else34

if.then28:                                        ; preds = %invoke.cont26
  %call30 = invoke %"struct.std::__1::pair"* @_ZNKSt3__114__map_iteratorINS_15__tree_iteratorINS_12__value_typeINS_12basic_stringIcNS_11char_traitsIcEENS_9allocatorIcEEEES8_EEPNS_11__tree_nodeIS9_PvEElEEEptEv(%"class.std::__1::__map_iterator"* %itr)
          to label %invoke.cont29 unwind label %lpad3

invoke.cont29:                                    ; preds = %if.then28
  %second31 = getelementptr inbounds %"struct.std::__1::pair", %"struct.std::__1::pair"* %call30, i32 0, i32 1
  %call33 = invoke dereferenceable(24) %"class.std::__1::basic_string"* @_ZNSt3__112basic_stringIcNS_11char_traitsIcEENS_9allocatorIcEEEaSERKS5_(%"class.std::__1::basic_string"* %rvalue, %"class.std::__1::basic_string"* dereferenceable(24) %second31)
          to label %invoke.cont32 unwind label %lpad3

invoke.cont32:                                    ; preds = %invoke.cont29
  br label %if.end37

if.else34:                                        ; preds = %invoke.cont26
  %call36 = invoke dereferenceable(24) %"class.std::__1::basic_string"* @_ZNSt3__112basic_stringIcNS_11char_traitsIcEENS_9allocatorIcEEEaSERKS5_(%"class.std::__1::basic_string"* %rvalue, %"class.std::__1::basic_string"* dereferenceable(24) %roperand)
          to label %invoke.cont35 unwind label %lpad3

invoke.cont35:                                    ; preds = %if.else34
  br label %if.end37

if.end37:                                         ; preds = %invoke.cont35, %invoke.cont32
  invoke void @_ZNSt3__1plIcNS_11char_traitsIcEENS_9allocatorIcEEEENS_12basic_stringIT_T0_T1_EEPKS6_RKS9_(%"class.std::__1::basic_string"* sret %ref.tmp43, i8* getelementptr inbounds ([2 x i8], [2 x i8]* @.str.21, i32 0, i32 0), %"class.std::__1::basic_string"* dereferenceable(24) %oper)
          to label %invoke.cont44 unwind label %lpad3

invoke.cont44:                                    ; preds = %if.end37
  invoke void @_ZNSt3__1plIcNS_11char_traitsIcEENS_9allocatorIcEEEENS_12basic_stringIT_T0_T1_EEOS9_PKS6_(%"class.std::__1::basic_string"* sret %ref.tmp42, %"class.std::__1::basic_string"* dereferenceable(24) %ref.tmp43, i8* getelementptr inbounds ([2 x i8], [2 x i8]* @.str.22, i32 0, i32 0))
          to label %invoke.cont46 unwind label %lpad45

invoke.cont46:                                    ; preds = %invoke.cont44
  invoke void @_ZNSt3__1plIcNS_11char_traitsIcEENS_9allocatorIcEEEENS_12basic_stringIT_T0_T1_EEOS9_RKS9_(%"class.std::__1::basic_string"* sret %ref.tmp41, %"class.std::__1::basic_string"* dereferenceable(24) %ref.tmp42, %"class.std::__1::basic_string"* dereferenceable(24) %lvalue)
          to label %invoke.cont48 unwind label %lpad47

invoke.cont48:                                    ; preds = %invoke.cont46
  invoke void @_ZNSt3__1plIcNS_11char_traitsIcEENS_9allocatorIcEEEENS_12basic_stringIT_T0_T1_EEOS9_PKS6_(%"class.std::__1::basic_string"* sret %ref.tmp40, %"class.std::__1::basic_string"* dereferenceable(24) %ref.tmp41, i8* getelementptr inbounds ([2 x i8], [2 x i8]* @.str.22, i32 0, i32 0))
          to label %invoke.cont50 unwind label %lpad49

invoke.cont50:                                    ; preds = %invoke.cont48
  invoke void @_ZNSt3__1plIcNS_11char_traitsIcEENS_9allocatorIcEEEENS_12basic_stringIT_T0_T1_EEOS9_RKS9_(%"class.std::__1::basic_string"* sret %ref.tmp39, %"class.std::__1::basic_string"* dereferenceable(24) %ref.tmp40, %"class.std::__1::basic_string"* dereferenceable(24) %rvalue)
          to label %invoke.cont52 unwind label %lpad51

invoke.cont52:                                    ; preds = %invoke.cont50
  invoke void @_ZNSt3__1plIcNS_11char_traitsIcEENS_9allocatorIcEEEENS_12basic_stringIT_T0_T1_EEOS9_PKS6_(%"class.std::__1::basic_string"* sret %ref.tmp38, %"class.std::__1::basic_string"* dereferenceable(24) %ref.tmp39, i8* getelementptr inbounds ([2 x i8], [2 x i8]* @.str.8, i32 0, i32 0))
          to label %invoke.cont54 unwind label %lpad53

invoke.cont54:                                    ; preds = %invoke.cont52
  %14 = load i8*, i8** %key.addr, align 8
  invoke void @_ZNSt3__112basic_stringIcNS_11char_traitsIcEENS_9allocatorIcEEEC1IDnEEPKc(%"class.std::__1::basic_string"* %ref.tmp55, i8* %14)
          to label %invoke.cont57 unwind label %lpad56

invoke.cont57:                                    ; preds = %invoke.cont54
  %call60 = invoke dereferenceable(24) %"class.std::__1::basic_string"* @_ZNSt3__13mapINS_12basic_stringIcNS_11char_traitsIcEENS_9allocatorIcEEEES6_NS_4lessIS6_EENS4_INS_4pairIKS6_S6_EEEEEixEOS6_(%"class.std::__1::map"* @sym_state, %"class.std::__1::basic_string"* dereferenceable(24) %ref.tmp55)
          to label %invoke.cont59 unwind label %lpad58

invoke.cont59:                                    ; preds = %invoke.cont57
  %call61 = call dereferenceable(24) %"class.std::__1::basic_string"* @_ZNSt3__112basic_stringIcNS_11char_traitsIcEENS_9allocatorIcEEEaSEOS5_(%"class.std::__1::basic_string"* %call60, %"class.std::__1::basic_string"* dereferenceable(24) %ref.tmp38) #2
  call void @_ZNSt3__112basic_stringIcNS_11char_traitsIcEENS_9allocatorIcEEED1Ev(%"class.std::__1::basic_string"* %ref.tmp55) #2
  call void @_ZNSt3__112basic_stringIcNS_11char_traitsIcEENS_9allocatorIcEEED1Ev(%"class.std::__1::basic_string"* %ref.tmp38) #2
  call void @_ZNSt3__112basic_stringIcNS_11char_traitsIcEENS_9allocatorIcEEED1Ev(%"class.std::__1::basic_string"* %ref.tmp39) #2
  call void @_ZNSt3__112basic_stringIcNS_11char_traitsIcEENS_9allocatorIcEEED1Ev(%"class.std::__1::basic_string"* %ref.tmp40) #2
  call void @_ZNSt3__112basic_stringIcNS_11char_traitsIcEENS_9allocatorIcEEED1Ev(%"class.std::__1::basic_string"* %ref.tmp41) #2
  call void @_ZNSt3__112basic_stringIcNS_11char_traitsIcEENS_9allocatorIcEEED1Ev(%"class.std::__1::basic_string"* %ref.tmp42) #2
  call void @_ZNSt3__112basic_stringIcNS_11char_traitsIcEENS_9allocatorIcEEED1Ev(%"class.std::__1::basic_string"* %ref.tmp43) #2
  %call68 = invoke dereferenceable(160) %"class.std::__1::basic_ostream"* @_ZNSt3__1lsINS_11char_traitsIcEEEERNS_13basic_ostreamIcT_EES6_PKc(%"class.std::__1::basic_ostream"* dereferenceable(160) bitcast (%"class.std::__1::basic_ofstream"* @stg_state to %"class.std::__1::basic_ostream"*), i8* getelementptr inbounds ([7 x i8], [7 x i8]* @.str.9, i32 0, i32 0))
          to label %invoke.cont67 unwind label %lpad3

invoke.cont67:                                    ; preds = %invoke.cont59
  %15 = load i8*, i8** %key.addr, align 8
  %call70 = invoke dereferenceable(160) %"class.std::__1::basic_ostream"* @_ZNSt3__1lsINS_11char_traitsIcEEEERNS_13basic_ostreamIcT_EES6_PKc(%"class.std::__1::basic_ostream"* dereferenceable(160) %call68, i8* %15)
          to label %invoke.cont69 unwind label %lpad3

invoke.cont69:                                    ; preds = %invoke.cont67
  %call72 = invoke dereferenceable(160) %"class.std::__1::basic_ostream"* @_ZNSt3__1lsINS_11char_traitsIcEEEERNS_13basic_ostreamIcT_EES6_PKc(%"class.std::__1::basic_ostream"* dereferenceable(160) %call70, i8* getelementptr inbounds ([6 x i8], [6 x i8]* @.str.10, i32 0, i32 0))
          to label %invoke.cont71 unwind label %lpad3

invoke.cont71:                                    ; preds = %invoke.cont69
  %16 = load i8*, i8** %key.addr, align 8
  invoke void @_ZNSt3__112basic_stringIcNS_11char_traitsIcEENS_9allocatorIcEEEC1IDnEEPKc(%"class.std::__1::basic_string"* %ref.tmp73, i8* %16)
          to label %invoke.cont74 unwind label %lpad3

invoke.cont74:                                    ; preds = %invoke.cont71
  %call77 = invoke dereferenceable(24) %"class.std::__1::basic_string"* @_ZNSt3__13mapINS_12basic_stringIcNS_11char_traitsIcEENS_9allocatorIcEEEES6_NS_4lessIS6_EENS4_INS_4pairIKS6_S6_EEEEEixEOS6_(%"class.std::__1::map"* @sym_state, %"class.std::__1::basic_string"* dereferenceable(24) %ref.tmp73)
          to label %invoke.cont76 unwind label %lpad75

invoke.cont76:                                    ; preds = %invoke.cont74
  %call79 = invoke dereferenceable(160) %"class.std::__1::basic_ostream"* @_ZNSt3__1lsIcNS_11char_traitsIcEENS_9allocatorIcEEEERNS_13basic_ostreamIT_T0_EES9_RKNS_12basic_stringIS6_S7_T1_EE(%"class.std::__1::basic_ostream"* dereferenceable(160) %call72, %"class.std::__1::basic_string"* dereferenceable(24) %call77)
          to label %invoke.cont78 unwind label %lpad75

invoke.cont78:                                    ; preds = %invoke.cont76
  %call81 = invoke dereferenceable(160) %"class.std::__1::basic_ostream"* @_ZNSt3__1lsINS_11char_traitsIcEEEERNS_13basic_ostreamIcT_EES6_PKc(%"class.std::__1::basic_ostream"* dereferenceable(160) %call79, i8* getelementptr inbounds ([3 x i8], [3 x i8]* @.str.11, i32 0, i32 0))
          to label %invoke.cont80 unwind label %lpad75

invoke.cont80:                                    ; preds = %invoke.cont78
  call void @_ZNSt3__112basic_stringIcNS_11char_traitsIcEENS_9allocatorIcEEED1Ev(%"class.std::__1::basic_string"* %ref.tmp73) #2
  call void @_ZNSt3__112basic_stringIcNS_11char_traitsIcEENS_9allocatorIcEEED1Ev(%"class.std::__1::basic_string"* %rvalue) #2
  call void @_ZNSt3__112basic_stringIcNS_11char_traitsIcEENS_9allocatorIcEEED1Ev(%"class.std::__1::basic_string"* %lvalue) #2
  call void @_ZNSt3__112basic_stringIcNS_11char_traitsIcEENS_9allocatorIcEEED1Ev(%"class.std::__1::basic_string"* %oper) #2
  call void @_ZNSt3__112basic_stringIcNS_11char_traitsIcEENS_9allocatorIcEEED1Ev(%"class.std::__1::basic_string"* %roperand) #2
  call void @_ZNSt3__112basic_stringIcNS_11char_traitsIcEENS_9allocatorIcEEED1Ev(%"class.std::__1::basic_string"* %loperand) #2
  ret void

lpad45:                                           ; preds = %invoke.cont44
  %17 = landingpad { i8*, i32 }
          cleanup
  %18 = extractvalue { i8*, i32 } %17, 0
  store i8* %18, i8** %exn.slot, align 8
  %19 = extractvalue { i8*, i32 } %17, 1
  store i32 %19, i32* %ehselector.slot, align 4
  br label %ehcleanup66

lpad47:                                           ; preds = %invoke.cont46
  %20 = landingpad { i8*, i32 }
          cleanup
  %21 = extractvalue { i8*, i32 } %20, 0
  store i8* %21, i8** %exn.slot, align 8
  %22 = extractvalue { i8*, i32 } %20, 1
  store i32 %22, i32* %ehselector.slot, align 4
  br label %ehcleanup65

lpad49:                                           ; preds = %invoke.cont48
  %23 = landingpad { i8*, i32 }
          cleanup
  %24 = extractvalue { i8*, i32 } %23, 0
  store i8* %24, i8** %exn.slot, align 8
  %25 = extractvalue { i8*, i32 } %23, 1
  store i32 %25, i32* %ehselector.slot, align 4
  br label %ehcleanup64

lpad51:                                           ; preds = %invoke.cont50
  %26 = landingpad { i8*, i32 }
          cleanup
  %27 = extractvalue { i8*, i32 } %26, 0
  store i8* %27, i8** %exn.slot, align 8
  %28 = extractvalue { i8*, i32 } %26, 1
  store i32 %28, i32* %ehselector.slot, align 4
  br label %ehcleanup63

lpad53:                                           ; preds = %invoke.cont52
  %29 = landingpad { i8*, i32 }
          cleanup
  %30 = extractvalue { i8*, i32 } %29, 0
  store i8* %30, i8** %exn.slot, align 8
  %31 = extractvalue { i8*, i32 } %29, 1
  store i32 %31, i32* %ehselector.slot, align 4
  br label %ehcleanup62

lpad56:                                           ; preds = %invoke.cont54
  %32 = landingpad { i8*, i32 }
          cleanup
  %33 = extractvalue { i8*, i32 } %32, 0
  store i8* %33, i8** %exn.slot, align 8
  %34 = extractvalue { i8*, i32 } %32, 1
  store i32 %34, i32* %ehselector.slot, align 4
  br label %ehcleanup

lpad58:                                           ; preds = %invoke.cont57
  %35 = landingpad { i8*, i32 }
          cleanup
  %36 = extractvalue { i8*, i32 } %35, 0
  store i8* %36, i8** %exn.slot, align 8
  %37 = extractvalue { i8*, i32 } %35, 1
  store i32 %37, i32* %ehselector.slot, align 4
  call void @_ZNSt3__112basic_stringIcNS_11char_traitsIcEENS_9allocatorIcEEED1Ev(%"class.std::__1::basic_string"* %ref.tmp55) #2
  br label %ehcleanup

ehcleanup:                                        ; preds = %lpad58, %lpad56
  call void @_ZNSt3__112basic_stringIcNS_11char_traitsIcEENS_9allocatorIcEEED1Ev(%"class.std::__1::basic_string"* %ref.tmp38) #2
  br label %ehcleanup62

ehcleanup62:                                      ; preds = %ehcleanup, %lpad53
  call void @_ZNSt3__112basic_stringIcNS_11char_traitsIcEENS_9allocatorIcEEED1Ev(%"class.std::__1::basic_string"* %ref.tmp39) #2
  br label %ehcleanup63

ehcleanup63:                                      ; preds = %ehcleanup62, %lpad51
  call void @_ZNSt3__112basic_stringIcNS_11char_traitsIcEENS_9allocatorIcEEED1Ev(%"class.std::__1::basic_string"* %ref.tmp40) #2
  br label %ehcleanup64

ehcleanup64:                                      ; preds = %ehcleanup63, %lpad49
  call void @_ZNSt3__112basic_stringIcNS_11char_traitsIcEENS_9allocatorIcEEED1Ev(%"class.std::__1::basic_string"* %ref.tmp41) #2
  br label %ehcleanup65

ehcleanup65:                                      ; preds = %ehcleanup64, %lpad47
  call void @_ZNSt3__112basic_stringIcNS_11char_traitsIcEENS_9allocatorIcEEED1Ev(%"class.std::__1::basic_string"* %ref.tmp42) #2
  br label %ehcleanup66

ehcleanup66:                                      ; preds = %ehcleanup65, %lpad45
  call void @_ZNSt3__112basic_stringIcNS_11char_traitsIcEENS_9allocatorIcEEED1Ev(%"class.std::__1::basic_string"* %ref.tmp43) #2
  br label %ehcleanup83

lpad75:                                           ; preds = %invoke.cont78, %invoke.cont76, %invoke.cont74
  %38 = landingpad { i8*, i32 }
          cleanup
  %39 = extractvalue { i8*, i32 } %38, 0
  store i8* %39, i8** %exn.slot, align 8
  %40 = extractvalue { i8*, i32 } %38, 1
  store i32 %40, i32* %ehselector.slot, align 4
  call void @_ZNSt3__112basic_stringIcNS_11char_traitsIcEENS_9allocatorIcEEED1Ev(%"class.std::__1::basic_string"* %ref.tmp73) #2
  br label %ehcleanup83

ehcleanup83:                                      ; preds = %lpad75, %ehcleanup66, %lpad3
  call void @_ZNSt3__112basic_stringIcNS_11char_traitsIcEENS_9allocatorIcEEED1Ev(%"class.std::__1::basic_string"* %rvalue) #2
  call void @_ZNSt3__112basic_stringIcNS_11char_traitsIcEENS_9allocatorIcEEED1Ev(%"class.std::__1::basic_string"* %lvalue) #2
  call void @_ZNSt3__112basic_stringIcNS_11char_traitsIcEENS_9allocatorIcEEED1Ev(%"class.std::__1::basic_string"* %oper) #2
  br label %ehcleanup86

ehcleanup86:                                      ; preds = %ehcleanup83, %lpad1
  call void @_ZNSt3__112basic_stringIcNS_11char_traitsIcEENS_9allocatorIcEEED1Ev(%"class.std::__1::basic_string"* %roperand) #2
  br label %ehcleanup87

ehcleanup87:                                      ; preds = %ehcleanup86, %lpad
  call void @_ZNSt3__112basic_stringIcNS_11char_traitsIcEENS_9allocatorIcEEED1Ev(%"class.std::__1::basic_string"* %loperand) #2
  br label %eh.resume

eh.resume:                                        ; preds = %ehcleanup87
  %exn = load i8*, i8** %exn.slot, align 8
  %sel = load i32, i32* %ehselector.slot, align 4
  %lpad.val = insertvalue { i8*, i32 } undef, i8* %exn, 0
  %lpad.val88 = insertvalue { i8*, i32 } %lpad.val, i32 %sel, 1
  resume { i8*, i32 } %lpad.val88
}

; Function Attrs: noinline optnone ssp uwtable
define void @stg_update_load_i32(i32* %addr, i8* %val) #4 personality i8* bitcast (i32 (...)* @__gxx_personality_v0 to i8*) {
entry:
  %addr.addr = alloca i32*, align 8
  %val.addr = alloca i8*, align 8
  %loadaddress = alloca %"class.std::__1::basic_stringstream", align 8
  %exn.slot = alloca i8*
  %ehselector.slot = alloca i32
  %key = alloca %"class.std::__1::basic_string", align 8
  %ref.tmp = alloca %"class.std::__1::basic_string", align 8
  %ref.tmp1 = alloca %"class.std::__1::basic_string", align 8
  %value = alloca %"class.std::__1::basic_string", align 8
  %itr = alloca %"class.std::__1::__map_iterator", align 8
  %ref.tmp13 = alloca %"class.std::__1::__map_iterator", align 8
  %ref.tmp23 = alloca %"class.std::__1::basic_string", align 8
  %ref.tmp24 = alloca %"class.std::__1::basic_string", align 8
  %ref.tmp25 = alloca %"class.std::__1::basic_string", align 8
  %ref.tmp34 = alloca %"class.std::__1::basic_string", align 8
  store i32* %addr, i32** %addr.addr, align 8
  store i8* %val, i8** %val.addr, align 8
  call void @_ZNSt3__118basic_stringstreamIcNS_11char_traitsIcEENS_9allocatorIcEEEC1Ej(%"class.std::__1::basic_stringstream"* %loadaddress, i32 24)
  %0 = bitcast %"class.std::__1::basic_stringstream"* %loadaddress to i8*
  %add.ptr = getelementptr inbounds i8, i8* %0, i64 16
  %1 = bitcast i8* %add.ptr to %"class.std::__1::basic_ostream"*
  %2 = load i32*, i32** %addr.addr, align 8
  %3 = bitcast i32* %2 to i8*
  %call = invoke dereferenceable(160) %"class.std::__1::basic_ostream"* @_ZNSt3__113basic_ostreamIcNS_11char_traitsIcEEElsEPKv(%"class.std::__1::basic_ostream"* %1, i8* %3)
          to label %invoke.cont unwind label %lpad

invoke.cont:                                      ; preds = %entry
  invoke void @_ZNKSt3__118basic_stringstreamIcNS_11char_traitsIcEENS_9allocatorIcEEE3strEv(%"class.std::__1::basic_string"* sret %ref.tmp1, %"class.std::__1::basic_stringstream"* %loadaddress)
          to label %invoke.cont2 unwind label %lpad

invoke.cont2:                                     ; preds = %invoke.cont
  invoke void @_ZNSt3__1plIcNS_11char_traitsIcEENS_9allocatorIcEEEENS_12basic_stringIT_T0_T1_EEPKS6_OS9_(%"class.std::__1::basic_string"* sret %ref.tmp, i8* getelementptr inbounds ([3 x i8], [3 x i8]* @.str, i32 0, i32 0), %"class.std::__1::basic_string"* dereferenceable(24) %ref.tmp1)
          to label %invoke.cont4 unwind label %lpad3

invoke.cont4:                                     ; preds = %invoke.cont2
  invoke void @_ZNSt3__1plIcNS_11char_traitsIcEENS_9allocatorIcEEEENS_12basic_stringIT_T0_T1_EEOS9_PKS6_(%"class.std::__1::basic_string"* sret %key, %"class.std::__1::basic_string"* dereferenceable(24) %ref.tmp, i8* getelementptr inbounds ([2 x i8], [2 x i8]* @.str.8, i32 0, i32 0))
          to label %invoke.cont6 unwind label %lpad5

invoke.cont6:                                     ; preds = %invoke.cont4
  call void @_ZNSt3__112basic_stringIcNS_11char_traitsIcEENS_9allocatorIcEEED1Ev(%"class.std::__1::basic_string"* %ref.tmp) #2
  call void @_ZNSt3__112basic_stringIcNS_11char_traitsIcEENS_9allocatorIcEEED1Ev(%"class.std::__1::basic_string"* %ref.tmp1) #2
  %4 = load i8*, i8** %val.addr, align 8
  invoke void @_ZNSt3__112basic_stringIcNS_11char_traitsIcEENS_9allocatorIcEEEC1IDnEEPKc(%"class.std::__1::basic_string"* %value, i8* %4)
          to label %invoke.cont8 unwind label %lpad7

invoke.cont8:                                     ; preds = %invoke.cont6
  %call11 = invoke %"class.std::__1::__tree_end_node"* @_ZNSt3__13mapINS_12basic_stringIcNS_11char_traitsIcEENS_9allocatorIcEEEES6_NS_4lessIS6_EENS4_INS_4pairIKS6_S6_EEEEE4findERSA_(%"class.std::__1::map"* @sym_state, %"class.std::__1::basic_string"* dereferenceable(24) %key)
          to label %invoke.cont10 unwind label %lpad9

invoke.cont10:                                    ; preds = %invoke.cont8
  %coerce.dive = getelementptr inbounds %"class.std::__1::__map_iterator", %"class.std::__1::__map_iterator"* %itr, i32 0, i32 0
  %coerce.dive12 = getelementptr inbounds %"class.std::__1::__tree_iterator", %"class.std::__1::__tree_iterator"* %coerce.dive, i32 0, i32 0
  store %"class.std::__1::__tree_end_node"* %call11, %"class.std::__1::__tree_end_node"** %coerce.dive12, align 8
  %call14 = call %"class.std::__1::__tree_end_node"* @_ZNSt3__13mapINS_12basic_stringIcNS_11char_traitsIcEENS_9allocatorIcEEEES6_NS_4lessIS6_EENS4_INS_4pairIKS6_S6_EEEEE3endEv(%"class.std::__1::map"* @sym_state) #2
  %coerce.dive15 = getelementptr inbounds %"class.std::__1::__map_iterator", %"class.std::__1::__map_iterator"* %ref.tmp13, i32 0, i32 0
  %coerce.dive16 = getelementptr inbounds %"class.std::__1::__tree_iterator", %"class.std::__1::__tree_iterator"* %coerce.dive15, i32 0, i32 0
  store %"class.std::__1::__tree_end_node"* %call14, %"class.std::__1::__tree_end_node"** %coerce.dive16, align 8
  %call18 = invoke zeroext i1 @_ZNSt3__1neERKNS_14__map_iteratorINS_15__tree_iteratorINS_12__value_typeINS_12basic_stringIcNS_11char_traitsIcEENS_9allocatorIcEEEES8_EEPNS_11__tree_nodeIS9_PvEElEEEESH_(%"class.std::__1::__map_iterator"* dereferenceable(8) %itr, %"class.std::__1::__map_iterator"* dereferenceable(8) %ref.tmp13)
          to label %invoke.cont17 unwind label %lpad9

invoke.cont17:                                    ; preds = %invoke.cont10
  br i1 %call18, label %if.then, label %if.else

if.then:                                          ; preds = %invoke.cont17
  %call20 = invoke %"struct.std::__1::pair"* @_ZNKSt3__114__map_iteratorINS_15__tree_iteratorINS_12__value_typeINS_12basic_stringIcNS_11char_traitsIcEENS_9allocatorIcEEEES8_EEPNS_11__tree_nodeIS9_PvEElEEEptEv(%"class.std::__1::__map_iterator"* %itr)
          to label %invoke.cont19 unwind label %lpad9

invoke.cont19:                                    ; preds = %if.then
  %second = getelementptr inbounds %"struct.std::__1::pair", %"struct.std::__1::pair"* %call20, i32 0, i32 1
  %call22 = invoke dereferenceable(24) %"class.std::__1::basic_string"* @_ZNSt3__112basic_stringIcNS_11char_traitsIcEENS_9allocatorIcEEEaSERKS5_(%"class.std::__1::basic_string"* %key, %"class.std::__1::basic_string"* dereferenceable(24) %second)
          to label %invoke.cont21 unwind label %lpad9

invoke.cont21:                                    ; preds = %invoke.cont19
  br label %if.end

lpad:                                             ; preds = %invoke.cont, %entry
  %5 = landingpad { i8*, i32 }
          cleanup
  %6 = extractvalue { i8*, i32 } %5, 0
  store i8* %6, i8** %exn.slot, align 8
  %7 = extractvalue { i8*, i32 } %5, 1
  store i32 %7, i32* %ehselector.slot, align 4
  br label %ehcleanup54

lpad3:                                            ; preds = %invoke.cont2
  %8 = landingpad { i8*, i32 }
          cleanup
  %9 = extractvalue { i8*, i32 } %8, 0
  store i8* %9, i8** %exn.slot, align 8
  %10 = extractvalue { i8*, i32 } %8, 1
  store i32 %10, i32* %ehselector.slot, align 4
  br label %ehcleanup

lpad5:                                            ; preds = %invoke.cont4
  %11 = landingpad { i8*, i32 }
          cleanup
  %12 = extractvalue { i8*, i32 } %11, 0
  store i8* %12, i8** %exn.slot, align 8
  %13 = extractvalue { i8*, i32 } %11, 1
  store i32 %13, i32* %ehselector.slot, align 4
  call void @_ZNSt3__112basic_stringIcNS_11char_traitsIcEENS_9allocatorIcEEED1Ev(%"class.std::__1::basic_string"* %ref.tmp) #2
  br label %ehcleanup

ehcleanup:                                        ; preds = %lpad5, %lpad3
  call void @_ZNSt3__112basic_stringIcNS_11char_traitsIcEENS_9allocatorIcEEED1Ev(%"class.std::__1::basic_string"* %ref.tmp1) #2
  br label %ehcleanup54

lpad7:                                            ; preds = %invoke.cont6
  %14 = landingpad { i8*, i32 }
          cleanup
  %15 = extractvalue { i8*, i32 } %14, 0
  store i8* %15, i8** %exn.slot, align 8
  %16 = extractvalue { i8*, i32 } %14, 1
  store i32 %16, i32* %ehselector.slot, align 4
  br label %ehcleanup53

lpad9:                                            ; preds = %invoke.cont48, %invoke.cont46, %invoke.cont44, %invoke.cont42, %invoke.cont39, %if.end, %if.else, %invoke.cont19, %if.then, %invoke.cont10, %invoke.cont8
  %17 = landingpad { i8*, i32 }
          cleanup
  %18 = extractvalue { i8*, i32 } %17, 0
  store i8* %18, i8** %exn.slot, align 8
  %19 = extractvalue { i8*, i32 } %17, 1
  store i32 %19, i32* %ehselector.slot, align 4
  br label %ehcleanup52

if.else:                                          ; preds = %invoke.cont17
  %20 = load i32*, i32** %addr.addr, align 8
  %21 = load i32, i32* %20, align 4
  invoke void @_ZNSt3__19to_stringEi(%"class.std::__1::basic_string"* sret %ref.tmp25, i32 %21)
          to label %invoke.cont26 unwind label %lpad9

invoke.cont26:                                    ; preds = %if.else
  invoke void @_ZNSt3__1plIcNS_11char_traitsIcEENS_9allocatorIcEEEENS_12basic_stringIT_T0_T1_EEPKS6_OS9_(%"class.std::__1::basic_string"* sret %ref.tmp24, i8* getelementptr inbounds ([6 x i8], [6 x i8]* @.str.25, i32 0, i32 0), %"class.std::__1::basic_string"* dereferenceable(24) %ref.tmp25)
          to label %invoke.cont28 unwind label %lpad27

invoke.cont28:                                    ; preds = %invoke.cont26
  invoke void @_ZNSt3__1plIcNS_11char_traitsIcEENS_9allocatorIcEEEENS_12basic_stringIT_T0_T1_EEOS9_PKS6_(%"class.std::__1::basic_string"* sret %ref.tmp23, %"class.std::__1::basic_string"* dereferenceable(24) %ref.tmp24, i8* getelementptr inbounds ([2 x i8], [2 x i8]* @.str.8, i32 0, i32 0))
          to label %invoke.cont30 unwind label %lpad29

invoke.cont30:                                    ; preds = %invoke.cont28
  %call31 = call dereferenceable(24) %"class.std::__1::basic_string"* @_ZNSt3__112basic_stringIcNS_11char_traitsIcEENS_9allocatorIcEEEaSEOS5_(%"class.std::__1::basic_string"* %key, %"class.std::__1::basic_string"* dereferenceable(24) %ref.tmp23) #2
  call void @_ZNSt3__112basic_stringIcNS_11char_traitsIcEENS_9allocatorIcEEED1Ev(%"class.std::__1::basic_string"* %ref.tmp23) #2
  call void @_ZNSt3__112basic_stringIcNS_11char_traitsIcEENS_9allocatorIcEEED1Ev(%"class.std::__1::basic_string"* %ref.tmp24) #2
  call void @_ZNSt3__112basic_stringIcNS_11char_traitsIcEENS_9allocatorIcEEED1Ev(%"class.std::__1::basic_string"* %ref.tmp25) #2
  br label %if.end

lpad27:                                           ; preds = %invoke.cont26
  %22 = landingpad { i8*, i32 }
          cleanup
  %23 = extractvalue { i8*, i32 } %22, 0
  store i8* %23, i8** %exn.slot, align 8
  %24 = extractvalue { i8*, i32 } %22, 1
  store i32 %24, i32* %ehselector.slot, align 4
  br label %ehcleanup33

lpad29:                                           ; preds = %invoke.cont28
  %25 = landingpad { i8*, i32 }
          cleanup
  %26 = extractvalue { i8*, i32 } %25, 0
  store i8* %26, i8** %exn.slot, align 8
  %27 = extractvalue { i8*, i32 } %25, 1
  store i32 %27, i32* %ehselector.slot, align 4
  call void @_ZNSt3__112basic_stringIcNS_11char_traitsIcEENS_9allocatorIcEEED1Ev(%"class.std::__1::basic_string"* %ref.tmp24) #2
  br label %ehcleanup33

ehcleanup33:                                      ; preds = %lpad29, %lpad27
  call void @_ZNSt3__112basic_stringIcNS_11char_traitsIcEENS_9allocatorIcEEED1Ev(%"class.std::__1::basic_string"* %ref.tmp25) #2
  br label %ehcleanup52

if.end:                                           ; preds = %invoke.cont30, %invoke.cont21
  %28 = load i8*, i8** %val.addr, align 8
  invoke void @_ZNSt3__112basic_stringIcNS_11char_traitsIcEENS_9allocatorIcEEEC1IDnEEPKc(%"class.std::__1::basic_string"* %ref.tmp34, i8* %28)
          to label %invoke.cont35 unwind label %lpad9

invoke.cont35:                                    ; preds = %if.end
  %call38 = invoke dereferenceable(24) %"class.std::__1::basic_string"* @_ZNSt3__13mapINS_12basic_stringIcNS_11char_traitsIcEENS_9allocatorIcEEEES6_NS_4lessIS6_EENS4_INS_4pairIKS6_S6_EEEEEixEOS6_(%"class.std::__1::map"* @sym_state, %"class.std::__1::basic_string"* dereferenceable(24) %ref.tmp34)
          to label %invoke.cont37 unwind label %lpad36

invoke.cont37:                                    ; preds = %invoke.cont35
  %call40 = invoke dereferenceable(24) %"class.std::__1::basic_string"* @_ZNSt3__112basic_stringIcNS_11char_traitsIcEENS_9allocatorIcEEEaSERKS5_(%"class.std::__1::basic_string"* %call38, %"class.std::__1::basic_string"* dereferenceable(24) %key)
          to label %invoke.cont39 unwind label %lpad36

invoke.cont39:                                    ; preds = %invoke.cont37
  call void @_ZNSt3__112basic_stringIcNS_11char_traitsIcEENS_9allocatorIcEEED1Ev(%"class.std::__1::basic_string"* %ref.tmp34) #2
  %call43 = invoke dereferenceable(160) %"class.std::__1::basic_ostream"* @_ZNSt3__1lsINS_11char_traitsIcEEEERNS_13basic_ostreamIcT_EES6_PKc(%"class.std::__1::basic_ostream"* dereferenceable(160) bitcast (%"class.std::__1::basic_ofstream"* @stg_state to %"class.std::__1::basic_ostream"*), i8* getelementptr inbounds ([7 x i8], [7 x i8]* @.str.9, i32 0, i32 0))
          to label %invoke.cont42 unwind label %lpad9

invoke.cont42:                                    ; preds = %invoke.cont39
  %29 = load i8*, i8** %val.addr, align 8
  %call45 = invoke dereferenceable(160) %"class.std::__1::basic_ostream"* @_ZNSt3__1lsINS_11char_traitsIcEEEERNS_13basic_ostreamIcT_EES6_PKc(%"class.std::__1::basic_ostream"* dereferenceable(160) %call43, i8* %29)
          to label %invoke.cont44 unwind label %lpad9

invoke.cont44:                                    ; preds = %invoke.cont42
  %call47 = invoke dereferenceable(160) %"class.std::__1::basic_ostream"* @_ZNSt3__1lsINS_11char_traitsIcEEEERNS_13basic_ostreamIcT_EES6_PKc(%"class.std::__1::basic_ostream"* dereferenceable(160) %call45, i8* getelementptr inbounds ([6 x i8], [6 x i8]* @.str.10, i32 0, i32 0))
          to label %invoke.cont46 unwind label %lpad9

invoke.cont46:                                    ; preds = %invoke.cont44
  %call49 = invoke dereferenceable(160) %"class.std::__1::basic_ostream"* @_ZNSt3__1lsIcNS_11char_traitsIcEENS_9allocatorIcEEEERNS_13basic_ostreamIT_T0_EES9_RKNS_12basic_stringIS6_S7_T1_EE(%"class.std::__1::basic_ostream"* dereferenceable(160) %call47, %"class.std::__1::basic_string"* dereferenceable(24) %key)
          to label %invoke.cont48 unwind label %lpad9

invoke.cont48:                                    ; preds = %invoke.cont46
  %call51 = invoke dereferenceable(160) %"class.std::__1::basic_ostream"* @_ZNSt3__1lsINS_11char_traitsIcEEEERNS_13basic_ostreamIcT_EES6_PKc(%"class.std::__1::basic_ostream"* dereferenceable(160) %call49, i8* getelementptr inbounds ([3 x i8], [3 x i8]* @.str.11, i32 0, i32 0))
          to label %invoke.cont50 unwind label %lpad9

invoke.cont50:                                    ; preds = %invoke.cont48
  call void @_ZNSt3__112basic_stringIcNS_11char_traitsIcEENS_9allocatorIcEEED1Ev(%"class.std::__1::basic_string"* %value) #2
  call void @_ZNSt3__112basic_stringIcNS_11char_traitsIcEENS_9allocatorIcEEED1Ev(%"class.std::__1::basic_string"* %key) #2
  call void @_ZNSt3__118basic_stringstreamIcNS_11char_traitsIcEENS_9allocatorIcEEED1Ev(%"class.std::__1::basic_stringstream"* %loadaddress) #2
  ret void

lpad36:                                           ; preds = %invoke.cont37, %invoke.cont35
  %30 = landingpad { i8*, i32 }
          cleanup
  %31 = extractvalue { i8*, i32 } %30, 0
  store i8* %31, i8** %exn.slot, align 8
  %32 = extractvalue { i8*, i32 } %30, 1
  store i32 %32, i32* %ehselector.slot, align 4
  call void @_ZNSt3__112basic_stringIcNS_11char_traitsIcEENS_9allocatorIcEEED1Ev(%"class.std::__1::basic_string"* %ref.tmp34) #2
  br label %ehcleanup52

ehcleanup52:                                      ; preds = %lpad36, %ehcleanup33, %lpad9
  call void @_ZNSt3__112basic_stringIcNS_11char_traitsIcEENS_9allocatorIcEEED1Ev(%"class.std::__1::basic_string"* %value) #2
  br label %ehcleanup53

ehcleanup53:                                      ; preds = %ehcleanup52, %lpad7
  call void @_ZNSt3__112basic_stringIcNS_11char_traitsIcEENS_9allocatorIcEEED1Ev(%"class.std::__1::basic_string"* %key) #2
  br label %ehcleanup54

ehcleanup54:                                      ; preds = %ehcleanup53, %ehcleanup, %lpad
  call void @_ZNSt3__118basic_stringstreamIcNS_11char_traitsIcEENS_9allocatorIcEEED1Ev(%"class.std::__1::basic_stringstream"* %loadaddress) #2
  br label %eh.resume

eh.resume:                                        ; preds = %ehcleanup54
  %exn = load i8*, i8** %exn.slot, align 8
  %sel = load i32, i32* %ehselector.slot, align 4
  %lpad.val = insertvalue { i8*, i32 } undef, i8* %exn, 0
  %lpad.val55 = insertvalue { i8*, i32 } %lpad.val, i32 %sel, 1
  resume { i8*, i32 } %lpad.val55
}

; Function Attrs: noinline optnone ssp uwtable
define void @_Z21stg_update_user_inputNSt3__112basic_stringIcNS_11char_traitsIcEENS_9allocatorIcEEEES5_S5_(%"class.std::__1::basic_string"* %address, %"class.std::__1::basic_string"* %value, %"class.std::__1::basic_string"* %type) #4 personality i8* bitcast (i32 (...)* @__gxx_personality_v0 to i8*) {
entry:
  %itr = alloca %"class.std::__1::__map_iterator", align 8
  %ref.tmp = alloca %"class.std::__1::basic_string", align 8
  %ref.tmp6 = alloca %"class.std::__1::basic_string", align 8
  %exn.slot = alloca i8*
  %ehselector.slot = alloca i32
  %ref.tmp11 = alloca %"class.std::__1::__map_iterator", align 8
  %sym_name = alloca %"class.std::__1::basic_string", align 8
  %key = alloca %"class.std::__1::basic_string", align 8
  %ref.tmp29 = alloca %"class.std::__1::basic_string", align 8
  %val = alloca %"class.std::__1::basic_string", align 8
  %ref.tmp33 = alloca %"class.std::__1::basic_string", align 8
  %ref.tmp34 = alloca %"class.std::__1::basic_string", align 8
  %ref.tmp35 = alloca %"class.std::__1::basic_string", align 8
  %call = call dereferenceable(160) %"class.std::__1::basic_ostream"* @_ZNSt3__1lsIcNS_11char_traitsIcEENS_9allocatorIcEEEERNS_13basic_ostreamIT_T0_EES9_RKNS_12basic_stringIS6_S7_T1_EE(%"class.std::__1::basic_ostream"* dereferenceable(160) @_ZNSt3__14coutE, %"class.std::__1::basic_string"* dereferenceable(24) %address)
  %call1 = call dereferenceable(160) %"class.std::__1::basic_ostream"* @_ZNSt3__1lsINS_11char_traitsIcEEEERNS_13basic_ostreamIcT_EES6_PKc(%"class.std::__1::basic_ostream"* dereferenceable(160) %call, i8* getelementptr inbounds ([5 x i8], [5 x i8]* @.str.26, i32 0, i32 0))
  %call2 = call dereferenceable(160) %"class.std::__1::basic_ostream"* @_ZNSt3__1lsIcNS_11char_traitsIcEENS_9allocatorIcEEEERNS_13basic_ostreamIT_T0_EES9_RKNS_12basic_stringIS6_S7_T1_EE(%"class.std::__1::basic_ostream"* dereferenceable(160) %call1, %"class.std::__1::basic_string"* dereferenceable(24) %value)
  %call3 = call dereferenceable(160) %"class.std::__1::basic_ostream"* @_ZNSt3__1lsINS_11char_traitsIcEEEERNS_13basic_ostreamIcT_EES6_PKc(%"class.std::__1::basic_ostream"* dereferenceable(160) %call2, i8* getelementptr inbounds ([2 x i8], [2 x i8]* @.str.22, i32 0, i32 0))
  %call4 = call dereferenceable(160) %"class.std::__1::basic_ostream"* @_ZNSt3__1lsIcNS_11char_traitsIcEENS_9allocatorIcEEEERNS_13basic_ostreamIT_T0_EES9_RKNS_12basic_stringIS6_S7_T1_EE(%"class.std::__1::basic_ostream"* dereferenceable(160) %call3, %"class.std::__1::basic_string"* dereferenceable(24) %type)
  %call5 = call dereferenceable(160) %"class.std::__1::basic_ostream"* @_ZNSt3__1lsINS_11char_traitsIcEEEERNS_13basic_ostreamIcT_EES6_PKc(%"class.std::__1::basic_ostream"* dereferenceable(160) %call4, i8* getelementptr inbounds ([2 x i8], [2 x i8]* @.str.27, i32 0, i32 0))
  call void @_ZNSt3__1plIcNS_11char_traitsIcEENS_9allocatorIcEEEENS_12basic_stringIT_T0_T1_EEPKS6_RKS9_(%"class.std::__1::basic_string"* sret %ref.tmp6, i8* getelementptr inbounds ([3 x i8], [3 x i8]* @.str, i32 0, i32 0), %"class.std::__1::basic_string"* dereferenceable(24) %address)
  invoke void @_ZNSt3__1plIcNS_11char_traitsIcEENS_9allocatorIcEEEENS_12basic_stringIT_T0_T1_EEOS9_PKS6_(%"class.std::__1::basic_string"* sret %ref.tmp, %"class.std::__1::basic_string"* dereferenceable(24) %ref.tmp6, i8* getelementptr inbounds ([2 x i8], [2 x i8]* @.str.8, i32 0, i32 0))
          to label %invoke.cont unwind label %lpad

invoke.cont:                                      ; preds = %entry
  %call9 = invoke %"class.std::__1::__tree_end_node"* @_ZNSt3__13mapINS_12basic_stringIcNS_11char_traitsIcEENS_9allocatorIcEEEES6_NS_4lessIS6_EENS4_INS_4pairIKS6_S6_EEEEE4findERSA_(%"class.std::__1::map"* @sym_var_map, %"class.std::__1::basic_string"* dereferenceable(24) %ref.tmp)
          to label %invoke.cont8 unwind label %lpad7

invoke.cont8:                                     ; preds = %invoke.cont
  %coerce.dive = getelementptr inbounds %"class.std::__1::__map_iterator", %"class.std::__1::__map_iterator"* %itr, i32 0, i32 0
  %coerce.dive10 = getelementptr inbounds %"class.std::__1::__tree_iterator", %"class.std::__1::__tree_iterator"* %coerce.dive, i32 0, i32 0
  store %"class.std::__1::__tree_end_node"* %call9, %"class.std::__1::__tree_end_node"** %coerce.dive10, align 8
  call void @_ZNSt3__112basic_stringIcNS_11char_traitsIcEENS_9allocatorIcEEED1Ev(%"class.std::__1::basic_string"* %ref.tmp) #2
  call void @_ZNSt3__112basic_stringIcNS_11char_traitsIcEENS_9allocatorIcEEED1Ev(%"class.std::__1::basic_string"* %ref.tmp6) #2
  %call12 = call %"class.std::__1::__tree_end_node"* @_ZNSt3__13mapINS_12basic_stringIcNS_11char_traitsIcEENS_9allocatorIcEEEES6_NS_4lessIS6_EENS4_INS_4pairIKS6_S6_EEEEE3endEv(%"class.std::__1::map"* @sym_var_map) #2
  %coerce.dive13 = getelementptr inbounds %"class.std::__1::__map_iterator", %"class.std::__1::__map_iterator"* %ref.tmp11, i32 0, i32 0
  %coerce.dive14 = getelementptr inbounds %"class.std::__1::__tree_iterator", %"class.std::__1::__tree_iterator"* %coerce.dive13, i32 0, i32 0
  store %"class.std::__1::__tree_end_node"* %call12, %"class.std::__1::__tree_end_node"** %coerce.dive14, align 8
  %call15 = call zeroext i1 @_ZNSt3__1neERKNS_14__map_iteratorINS_15__tree_iteratorINS_12__value_typeINS_12basic_stringIcNS_11char_traitsIcEENS_9allocatorIcEEEES8_EEPNS_11__tree_nodeIS9_PvEElEEEESH_(%"class.std::__1::__map_iterator"* dereferenceable(8) %itr, %"class.std::__1::__map_iterator"* dereferenceable(8) %ref.tmp11)
  br i1 %call15, label %if.then, label %if.else28

if.then:                                          ; preds = %invoke.cont8
  %call16 = call %"struct.std::__1::pair"* @_ZNKSt3__114__map_iteratorINS_15__tree_iteratorINS_12__value_typeINS_12basic_stringIcNS_11char_traitsIcEENS_9allocatorIcEEEES8_EEPNS_11__tree_nodeIS9_PvEElEEEptEv(%"class.std::__1::__map_iterator"* %itr)
  %second = getelementptr inbounds %"struct.std::__1::pair", %"struct.std::__1::pair"* %call16, i32 0, i32 1
  call void @_ZNSt3__112basic_stringIcNS_11char_traitsIcEENS_9allocatorIcEEEC1ERKS5_(%"class.std::__1::basic_string"* %sym_name, %"class.std::__1::basic_string"* dereferenceable(24) %second)
  %0 = load i8, i8* @needComma, align 1
  %tobool = trunc i8 %0 to i1
  br i1 %tobool, label %if.then17, label %if.else

if.then17:                                        ; preds = %if.then
  %call20 = invoke dereferenceable(160) %"class.std::__1::basic_ostream"* @_ZNSt3__1lsINS_11char_traitsIcEEEERNS_13basic_ostreamIcT_EES6_PKc(%"class.std::__1::basic_ostream"* dereferenceable(160) bitcast (%"class.std::__1::basic_ofstream"* @stg_pc to %"class.std::__1::basic_ostream"*), i8* getelementptr inbounds ([3 x i8], [3 x i8]* @.str.12, i32 0, i32 0))
          to label %invoke.cont19 unwind label %lpad18

invoke.cont19:                                    ; preds = %if.then17
  br label %if.end

lpad:                                             ; preds = %entry
  %1 = landingpad { i8*, i32 }
          cleanup
  %2 = extractvalue { i8*, i32 } %1, 0
  store i8* %2, i8** %exn.slot, align 8
  %3 = extractvalue { i8*, i32 } %1, 1
  store i32 %3, i32* %ehselector.slot, align 4
  br label %ehcleanup

lpad7:                                            ; preds = %invoke.cont
  %4 = landingpad { i8*, i32 }
          cleanup
  %5 = extractvalue { i8*, i32 } %4, 0
  store i8* %5, i8** %exn.slot, align 8
  %6 = extractvalue { i8*, i32 } %4, 1
  store i32 %6, i32* %ehselector.slot, align 4
  call void @_ZNSt3__112basic_stringIcNS_11char_traitsIcEENS_9allocatorIcEEED1Ev(%"class.std::__1::basic_string"* %ref.tmp) #2
  br label %ehcleanup

ehcleanup:                                        ; preds = %lpad7, %lpad
  call void @_ZNSt3__112basic_stringIcNS_11char_traitsIcEENS_9allocatorIcEEED1Ev(%"class.std::__1::basic_string"* %ref.tmp6) #2
  br label %eh.resume

lpad18:                                           ; preds = %invoke.cont23, %invoke.cont21, %if.end, %if.then17
  %7 = landingpad { i8*, i32 }
          cleanup
  %8 = extractvalue { i8*, i32 } %7, 0
  store i8* %8, i8** %exn.slot, align 8
  %9 = extractvalue { i8*, i32 } %7, 1
  store i32 %9, i32* %ehselector.slot, align 4
  call void @_ZNSt3__112basic_stringIcNS_11char_traitsIcEENS_9allocatorIcEEED1Ev(%"class.std::__1::basic_string"* %sym_name) #2
  br label %eh.resume

if.else:                                          ; preds = %if.then
  store i8 1, i8* @needComma, align 1
  br label %if.end

if.end:                                           ; preds = %if.else, %invoke.cont19
  %call22 = invoke dereferenceable(160) %"class.std::__1::basic_ostream"* @_ZNSt3__1lsIcNS_11char_traitsIcEENS_9allocatorIcEEEERNS_13basic_ostreamIT_T0_EES9_RKNS_12basic_stringIS6_S7_T1_EE(%"class.std::__1::basic_ostream"* dereferenceable(160) bitcast (%"class.std::__1::basic_ofstream"* @stg_pc to %"class.std::__1::basic_ostream"*), %"class.std::__1::basic_string"* dereferenceable(24) %sym_name)
          to label %invoke.cont21 unwind label %lpad18

invoke.cont21:                                    ; preds = %if.end
  %call24 = invoke dereferenceable(160) %"class.std::__1::basic_ostream"* @_ZNSt3__1lsINS_11char_traitsIcEEEERNS_13basic_ostreamIcT_EES6_PKc(%"class.std::__1::basic_ostream"* dereferenceable(160) %call22, i8* getelementptr inbounds ([4 x i8], [4 x i8]* @.str.28, i32 0, i32 0))
          to label %invoke.cont23 unwind label %lpad18

invoke.cont23:                                    ; preds = %invoke.cont21
  %call26 = invoke dereferenceable(160) %"class.std::__1::basic_ostream"* @_ZNSt3__1lsIcNS_11char_traitsIcEENS_9allocatorIcEEEERNS_13basic_ostreamIT_T0_EES9_RKNS_12basic_stringIS6_S7_T1_EE(%"class.std::__1::basic_ostream"* dereferenceable(160) %call24, %"class.std::__1::basic_string"* dereferenceable(24) %type)
          to label %invoke.cont25 unwind label %lpad18

invoke.cont25:                                    ; preds = %invoke.cont23
  call void @_ZNSt3__112basic_stringIcNS_11char_traitsIcEENS_9allocatorIcEEED1Ev(%"class.std::__1::basic_string"* %sym_name) #2
  br label %if.end64

if.else28:                                        ; preds = %invoke.cont8
  call void @_ZNSt3__1plIcNS_11char_traitsIcEENS_9allocatorIcEEEENS_12basic_stringIT_T0_T1_EEPKS6_RKS9_(%"class.std::__1::basic_string"* sret %ref.tmp29, i8* getelementptr inbounds ([3 x i8], [3 x i8]* @.str, i32 0, i32 0), %"class.std::__1::basic_string"* dereferenceable(24) %address)
  invoke void @_ZNSt3__1plIcNS_11char_traitsIcEENS_9allocatorIcEEEENS_12basic_stringIT_T0_T1_EEOS9_PKS6_(%"class.std::__1::basic_string"* sret %key, %"class.std::__1::basic_string"* dereferenceable(24) %ref.tmp29, i8* getelementptr inbounds ([2 x i8], [2 x i8]* @.str.8, i32 0, i32 0))
          to label %invoke.cont31 unwind label %lpad30

invoke.cont31:                                    ; preds = %if.else28
  call void @_ZNSt3__112basic_stringIcNS_11char_traitsIcEENS_9allocatorIcEEED1Ev(%"class.std::__1::basic_string"* %ref.tmp29) #2
  invoke void @_ZNSt3__1plIcNS_11char_traitsIcEENS_9allocatorIcEEEENS_12basic_stringIT_T0_T1_EEPKS6_RKS9_(%"class.std::__1::basic_string"* sret %ref.tmp35, i8* getelementptr inbounds ([3 x i8], [3 x i8]* @.str.29, i32 0, i32 0), %"class.std::__1::basic_string"* dereferenceable(24) %type)
          to label %invoke.cont37 unwind label %lpad36

invoke.cont37:                                    ; preds = %invoke.cont31
  invoke void @_ZNSt3__1plIcNS_11char_traitsIcEENS_9allocatorIcEEEENS_12basic_stringIT_T0_T1_EEOS9_PKS6_(%"class.std::__1::basic_string"* sret %ref.tmp34, %"class.std::__1::basic_string"* dereferenceable(24) %ref.tmp35, i8* getelementptr inbounds ([2 x i8], [2 x i8]* @.str.22, i32 0, i32 0))
          to label %invoke.cont39 unwind label %lpad38

invoke.cont39:                                    ; preds = %invoke.cont37
  invoke void @_ZNSt3__1plIcNS_11char_traitsIcEENS_9allocatorIcEEEENS_12basic_stringIT_T0_T1_EEOS9_RKS9_(%"class.std::__1::basic_string"* sret %ref.tmp33, %"class.std::__1::basic_string"* dereferenceable(24) %ref.tmp34, %"class.std::__1::basic_string"* dereferenceable(24) %value)
          to label %invoke.cont41 unwind label %lpad40

invoke.cont41:                                    ; preds = %invoke.cont39
  invoke void @_ZNSt3__1plIcNS_11char_traitsIcEENS_9allocatorIcEEEENS_12basic_stringIT_T0_T1_EEOS9_PKS6_(%"class.std::__1::basic_string"* sret %val, %"class.std::__1::basic_string"* dereferenceable(24) %ref.tmp33, i8* getelementptr inbounds ([2 x i8], [2 x i8]* @.str.8, i32 0, i32 0))
          to label %invoke.cont43 unwind label %lpad42

invoke.cont43:                                    ; preds = %invoke.cont41
  call void @_ZNSt3__112basic_stringIcNS_11char_traitsIcEENS_9allocatorIcEEED1Ev(%"class.std::__1::basic_string"* %ref.tmp33) #2
  call void @_ZNSt3__112basic_stringIcNS_11char_traitsIcEENS_9allocatorIcEEED1Ev(%"class.std::__1::basic_string"* %ref.tmp34) #2
  call void @_ZNSt3__112basic_stringIcNS_11char_traitsIcEENS_9allocatorIcEEED1Ev(%"class.std::__1::basic_string"* %ref.tmp35) #2
  %call49 = invoke dereferenceable(24) %"class.std::__1::basic_string"* @_ZNSt3__13mapINS_12basic_stringIcNS_11char_traitsIcEENS_9allocatorIcEEEES6_NS_4lessIS6_EENS4_INS_4pairIKS6_S6_EEEEEixERSA_(%"class.std::__1::map"* @sym_state, %"class.std::__1::basic_string"* dereferenceable(24) %key)
          to label %invoke.cont48 unwind label %lpad47

invoke.cont48:                                    ; preds = %invoke.cont43
  %call51 = invoke dereferenceable(24) %"class.std::__1::basic_string"* @_ZNSt3__112basic_stringIcNS_11char_traitsIcEENS_9allocatorIcEEEaSERKS5_(%"class.std::__1::basic_string"* %call49, %"class.std::__1::basic_string"* dereferenceable(24) %val)
          to label %invoke.cont50 unwind label %lpad47

invoke.cont50:                                    ; preds = %invoke.cont48
  %call53 = invoke dereferenceable(160) %"class.std::__1::basic_ostream"* @_ZNSt3__1lsINS_11char_traitsIcEEEERNS_13basic_ostreamIcT_EES6_PKc(%"class.std::__1::basic_ostream"* dereferenceable(160) bitcast (%"class.std::__1::basic_ofstream"* @stg_state to %"class.std::__1::basic_ostream"*), i8* getelementptr inbounds ([7 x i8], [7 x i8]* @.str.9, i32 0, i32 0))
          to label %invoke.cont52 unwind label %lpad47

invoke.cont52:                                    ; preds = %invoke.cont50
  %call55 = invoke dereferenceable(160) %"class.std::__1::basic_ostream"* @_ZNSt3__1lsIcNS_11char_traitsIcEENS_9allocatorIcEEEERNS_13basic_ostreamIT_T0_EES9_RKNS_12basic_stringIS6_S7_T1_EE(%"class.std::__1::basic_ostream"* dereferenceable(160) %call53, %"class.std::__1::basic_string"* dereferenceable(24) %val)
          to label %invoke.cont54 unwind label %lpad47

invoke.cont54:                                    ; preds = %invoke.cont52
  %call57 = invoke dereferenceable(160) %"class.std::__1::basic_ostream"* @_ZNSt3__1lsINS_11char_traitsIcEEEERNS_13basic_ostreamIcT_EES6_PKc(%"class.std::__1::basic_ostream"* dereferenceable(160) %call55, i8* getelementptr inbounds ([6 x i8], [6 x i8]* @.str.10, i32 0, i32 0))
          to label %invoke.cont56 unwind label %lpad47

invoke.cont56:                                    ; preds = %invoke.cont54
  %call59 = invoke dereferenceable(160) %"class.std::__1::basic_ostream"* @_ZNSt3__1lsIcNS_11char_traitsIcEENS_9allocatorIcEEEERNS_13basic_ostreamIT_T0_EES9_RKNS_12basic_stringIS6_S7_T1_EE(%"class.std::__1::basic_ostream"* dereferenceable(160) %call57, %"class.std::__1::basic_string"* dereferenceable(24) %val)
          to label %invoke.cont58 unwind label %lpad47

invoke.cont58:                                    ; preds = %invoke.cont56
  %call61 = invoke dereferenceable(160) %"class.std::__1::basic_ostream"* @_ZNSt3__1lsINS_11char_traitsIcEEEERNS_13basic_ostreamIcT_EES6_PKc(%"class.std::__1::basic_ostream"* dereferenceable(160) %call59, i8* getelementptr inbounds ([3 x i8], [3 x i8]* @.str.11, i32 0, i32 0))
          to label %invoke.cont60 unwind label %lpad47

invoke.cont60:                                    ; preds = %invoke.cont58
  call void @_ZNSt3__112basic_stringIcNS_11char_traitsIcEENS_9allocatorIcEEED1Ev(%"class.std::__1::basic_string"* %val) #2
  call void @_ZNSt3__112basic_stringIcNS_11char_traitsIcEENS_9allocatorIcEEED1Ev(%"class.std::__1::basic_string"* %key) #2
  br label %if.end64

lpad30:                                           ; preds = %if.else28
  %10 = landingpad { i8*, i32 }
          cleanup
  %11 = extractvalue { i8*, i32 } %10, 0
  store i8* %11, i8** %exn.slot, align 8
  %12 = extractvalue { i8*, i32 } %10, 1
  store i32 %12, i32* %ehselector.slot, align 4
  call void @_ZNSt3__112basic_stringIcNS_11char_traitsIcEENS_9allocatorIcEEED1Ev(%"class.std::__1::basic_string"* %ref.tmp29) #2
  br label %eh.resume

lpad36:                                           ; preds = %invoke.cont31
  %13 = landingpad { i8*, i32 }
          cleanup
  %14 = extractvalue { i8*, i32 } %13, 0
  store i8* %14, i8** %exn.slot, align 8
  %15 = extractvalue { i8*, i32 } %13, 1
  store i32 %15, i32* %ehselector.slot, align 4
  br label %ehcleanup63

lpad38:                                           ; preds = %invoke.cont37
  %16 = landingpad { i8*, i32 }
          cleanup
  %17 = extractvalue { i8*, i32 } %16, 0
  store i8* %17, i8** %exn.slot, align 8
  %18 = extractvalue { i8*, i32 } %16, 1
  store i32 %18, i32* %ehselector.slot, align 4
  br label %ehcleanup46

lpad40:                                           ; preds = %invoke.cont39
  %19 = landingpad { i8*, i32 }
          cleanup
  %20 = extractvalue { i8*, i32 } %19, 0
  store i8* %20, i8** %exn.slot, align 8
  %21 = extractvalue { i8*, i32 } %19, 1
  store i32 %21, i32* %ehselector.slot, align 4
  br label %ehcleanup45

lpad42:                                           ; preds = %invoke.cont41
  %22 = landingpad { i8*, i32 }
          cleanup
  %23 = extractvalue { i8*, i32 } %22, 0
  store i8* %23, i8** %exn.slot, align 8
  %24 = extractvalue { i8*, i32 } %22, 1
  store i32 %24, i32* %ehselector.slot, align 4
  call void @_ZNSt3__112basic_stringIcNS_11char_traitsIcEENS_9allocatorIcEEED1Ev(%"class.std::__1::basic_string"* %ref.tmp33) #2
  br label %ehcleanup45

ehcleanup45:                                      ; preds = %lpad42, %lpad40
  call void @_ZNSt3__112basic_stringIcNS_11char_traitsIcEENS_9allocatorIcEEED1Ev(%"class.std::__1::basic_string"* %ref.tmp34) #2
  br label %ehcleanup46

ehcleanup46:                                      ; preds = %ehcleanup45, %lpad38
  call void @_ZNSt3__112basic_stringIcNS_11char_traitsIcEENS_9allocatorIcEEED1Ev(%"class.std::__1::basic_string"* %ref.tmp35) #2
  br label %ehcleanup63

lpad47:                                           ; preds = %invoke.cont58, %invoke.cont56, %invoke.cont54, %invoke.cont52, %invoke.cont50, %invoke.cont48, %invoke.cont43
  %25 = landingpad { i8*, i32 }
          cleanup
  %26 = extractvalue { i8*, i32 } %25, 0
  store i8* %26, i8** %exn.slot, align 8
  %27 = extractvalue { i8*, i32 } %25, 1
  store i32 %27, i32* %ehselector.slot, align 4
  call void @_ZNSt3__112basic_stringIcNS_11char_traitsIcEENS_9allocatorIcEEED1Ev(%"class.std::__1::basic_string"* %val) #2
  br label %ehcleanup63

ehcleanup63:                                      ; preds = %lpad47, %ehcleanup46, %lpad36
  call void @_ZNSt3__112basic_stringIcNS_11char_traitsIcEENS_9allocatorIcEEED1Ev(%"class.std::__1::basic_string"* %key) #2
  br label %eh.resume

if.end64:                                         ; preds = %invoke.cont60, %invoke.cont25
  ret void

eh.resume:                                        ; preds = %ehcleanup63, %lpad30, %lpad18, %ehcleanup
  %exn = load i8*, i8** %exn.slot, align 8
  %sel = load i32, i32* %ehselector.slot, align 4
  %lpad.val = insertvalue { i8*, i32 } undef, i8* %exn, 0
  %lpad.val65 = insertvalue { i8*, i32 } %lpad.val, i32 %sel, 1
  resume { i8*, i32 } %lpad.val65
}

declare void @_ZNSt3__112basic_stringIcNS_11char_traitsIcEENS_9allocatorIcEEEC1ERKS5_(%"class.std::__1::basic_string"*, %"class.std::__1::basic_string"* dereferenceable(24)) unnamed_addr #5

; Function Attrs: noinline optnone ssp uwtable
define void @stg_update_input_float(float* %addr) #4 personality i8* bitcast (i32 (...)* @__gxx_personality_v0 to i8*) {
entry:
  %addr.addr = alloca float*, align 8
  %address = alloca %"class.std::__1::basic_stringstream", align 8
  %exn.slot = alloca i8*
  %ehselector.slot = alloca i32
  %address_ = alloca %"class.std::__1::basic_string", align 8
  %value_ = alloca %"class.std::__1::basic_string", align 8
  %agg.tmp = alloca %"class.std::__1::basic_string", align 8
  %agg.tmp6 = alloca %"class.std::__1::basic_string", align 8
  %agg.tmp9 = alloca %"class.std::__1::basic_string", align 8
  store float* %addr, float** %addr.addr, align 8
  call void @_ZNSt3__118basic_stringstreamIcNS_11char_traitsIcEENS_9allocatorIcEEEC1Ej(%"class.std::__1::basic_stringstream"* %address, i32 24)
  %0 = bitcast %"class.std::__1::basic_stringstream"* %address to i8*
  %add.ptr = getelementptr inbounds i8, i8* %0, i64 16
  %1 = bitcast i8* %add.ptr to %"class.std::__1::basic_ostream"*
  %2 = load float*, float** %addr.addr, align 8
  %3 = bitcast float* %2 to i8*
  %call = invoke dereferenceable(160) %"class.std::__1::basic_ostream"* @_ZNSt3__113basic_ostreamIcNS_11char_traitsIcEEElsEPKv(%"class.std::__1::basic_ostream"* %1, i8* %3)
          to label %invoke.cont unwind label %lpad

invoke.cont:                                      ; preds = %entry
  invoke void @_ZNKSt3__118basic_stringstreamIcNS_11char_traitsIcEENS_9allocatorIcEEE3strEv(%"class.std::__1::basic_string"* sret %address_, %"class.std::__1::basic_stringstream"* %address)
          to label %invoke.cont1 unwind label %lpad

invoke.cont1:                                     ; preds = %invoke.cont
  %4 = load float*, float** %addr.addr, align 8
  %5 = load float, float* %4, align 4
  invoke void @_ZNSt3__19to_stringEf(%"class.std::__1::basic_string"* sret %value_, float %5)
          to label %invoke.cont3 unwind label %lpad2

invoke.cont3:                                     ; preds = %invoke.cont1
  invoke void @_ZNSt3__112basic_stringIcNS_11char_traitsIcEENS_9allocatorIcEEEC1ERKS5_(%"class.std::__1::basic_string"* %agg.tmp, %"class.std::__1::basic_string"* dereferenceable(24) %address_)
          to label %invoke.cont5 unwind label %lpad4

invoke.cont5:                                     ; preds = %invoke.cont3
  invoke void @_ZNSt3__112basic_stringIcNS_11char_traitsIcEENS_9allocatorIcEEEC1ERKS5_(%"class.std::__1::basic_string"* %agg.tmp6, %"class.std::__1::basic_string"* dereferenceable(24) %value_)
          to label %invoke.cont8 unwind label %lpad7

invoke.cont8:                                     ; preds = %invoke.cont5
  invoke void @_ZNSt3__112basic_stringIcNS_11char_traitsIcEENS_9allocatorIcEEEC1IDnEEPKc(%"class.std::__1::basic_string"* %agg.tmp9, i8* getelementptr inbounds ([6 x i8], [6 x i8]* @.str.17, i32 0, i32 0))
          to label %invoke.cont11 unwind label %lpad10

invoke.cont11:                                    ; preds = %invoke.cont8
  invoke void @_Z21stg_update_user_inputNSt3__112basic_stringIcNS_11char_traitsIcEENS_9allocatorIcEEEES5_S5_(%"class.std::__1::basic_string"* %agg.tmp, %"class.std::__1::basic_string"* %agg.tmp6, %"class.std::__1::basic_string"* %agg.tmp9)
          to label %invoke.cont13 unwind label %lpad12

invoke.cont13:                                    ; preds = %invoke.cont11
  call void @_ZNSt3__112basic_stringIcNS_11char_traitsIcEENS_9allocatorIcEEED1Ev(%"class.std::__1::basic_string"* %agg.tmp9) #2
  call void @_ZNSt3__112basic_stringIcNS_11char_traitsIcEENS_9allocatorIcEEED1Ev(%"class.std::__1::basic_string"* %agg.tmp6) #2
  call void @_ZNSt3__112basic_stringIcNS_11char_traitsIcEENS_9allocatorIcEEED1Ev(%"class.std::__1::basic_string"* %agg.tmp) #2
  call void @_ZNSt3__112basic_stringIcNS_11char_traitsIcEENS_9allocatorIcEEED1Ev(%"class.std::__1::basic_string"* %value_) #2
  call void @_ZNSt3__112basic_stringIcNS_11char_traitsIcEENS_9allocatorIcEEED1Ev(%"class.std::__1::basic_string"* %address_) #2
  call void @_ZNSt3__118basic_stringstreamIcNS_11char_traitsIcEENS_9allocatorIcEEED1Ev(%"class.std::__1::basic_stringstream"* %address) #2
  ret void

lpad:                                             ; preds = %invoke.cont, %entry
  %6 = landingpad { i8*, i32 }
          cleanup
  %7 = extractvalue { i8*, i32 } %6, 0
  store i8* %7, i8** %exn.slot, align 8
  %8 = extractvalue { i8*, i32 } %6, 1
  store i32 %8, i32* %ehselector.slot, align 4
  br label %ehcleanup17

lpad2:                                            ; preds = %invoke.cont1
  %9 = landingpad { i8*, i32 }
          cleanup
  %10 = extractvalue { i8*, i32 } %9, 0
  store i8* %10, i8** %exn.slot, align 8
  %11 = extractvalue { i8*, i32 } %9, 1
  store i32 %11, i32* %ehselector.slot, align 4
  br label %ehcleanup16

lpad4:                                            ; preds = %invoke.cont3
  %12 = landingpad { i8*, i32 }
          cleanup
  %13 = extractvalue { i8*, i32 } %12, 0
  store i8* %13, i8** %exn.slot, align 8
  %14 = extractvalue { i8*, i32 } %12, 1
  store i32 %14, i32* %ehselector.slot, align 4
  br label %ehcleanup15

lpad7:                                            ; preds = %invoke.cont5
  %15 = landingpad { i8*, i32 }
          cleanup
  %16 = extractvalue { i8*, i32 } %15, 0
  store i8* %16, i8** %exn.slot, align 8
  %17 = extractvalue { i8*, i32 } %15, 1
  store i32 %17, i32* %ehselector.slot, align 4
  br label %ehcleanup14

lpad10:                                           ; preds = %invoke.cont8
  %18 = landingpad { i8*, i32 }
          cleanup
  %19 = extractvalue { i8*, i32 } %18, 0
  store i8* %19, i8** %exn.slot, align 8
  %20 = extractvalue { i8*, i32 } %18, 1
  store i32 %20, i32* %ehselector.slot, align 4
  br label %ehcleanup

lpad12:                                           ; preds = %invoke.cont11
  %21 = landingpad { i8*, i32 }
          cleanup
  %22 = extractvalue { i8*, i32 } %21, 0
  store i8* %22, i8** %exn.slot, align 8
  %23 = extractvalue { i8*, i32 } %21, 1
  store i32 %23, i32* %ehselector.slot, align 4
  call void @_ZNSt3__112basic_stringIcNS_11char_traitsIcEENS_9allocatorIcEEED1Ev(%"class.std::__1::basic_string"* %agg.tmp9) #2
  br label %ehcleanup

ehcleanup:                                        ; preds = %lpad12, %lpad10
  call void @_ZNSt3__112basic_stringIcNS_11char_traitsIcEENS_9allocatorIcEEED1Ev(%"class.std::__1::basic_string"* %agg.tmp6) #2
  br label %ehcleanup14

ehcleanup14:                                      ; preds = %ehcleanup, %lpad7
  call void @_ZNSt3__112basic_stringIcNS_11char_traitsIcEENS_9allocatorIcEEED1Ev(%"class.std::__1::basic_string"* %agg.tmp) #2
  br label %ehcleanup15

ehcleanup15:                                      ; preds = %ehcleanup14, %lpad4
  call void @_ZNSt3__112basic_stringIcNS_11char_traitsIcEENS_9allocatorIcEEED1Ev(%"class.std::__1::basic_string"* %value_) #2
  br label %ehcleanup16

ehcleanup16:                                      ; preds = %ehcleanup15, %lpad2
  call void @_ZNSt3__112basic_stringIcNS_11char_traitsIcEENS_9allocatorIcEEED1Ev(%"class.std::__1::basic_string"* %address_) #2
  br label %ehcleanup17

ehcleanup17:                                      ; preds = %ehcleanup16, %lpad
  call void @_ZNSt3__118basic_stringstreamIcNS_11char_traitsIcEENS_9allocatorIcEEED1Ev(%"class.std::__1::basic_stringstream"* %address) #2
  br label %eh.resume

eh.resume:                                        ; preds = %ehcleanup17
  %exn = load i8*, i8** %exn.slot, align 8
  %sel = load i32, i32* %ehselector.slot, align 4
  %lpad.val = insertvalue { i8*, i32 } undef, i8* %exn, 0
  %lpad.val18 = insertvalue { i8*, i32 } %lpad.val, i32 %sel, 1
  resume { i8*, i32 } %lpad.val18
}

declare void @_ZNSt3__19to_stringEf(%"class.std::__1::basic_string"* sret, float) #5

; Function Attrs: noinline optnone ssp uwtable
define void @stg_update_input_i32(i32* %addr) #4 personality i8* bitcast (i32 (...)* @__gxx_personality_v0 to i8*) {
entry:
  %addr.addr = alloca i32*, align 8
  %address = alloca %"class.std::__1::basic_stringstream", align 8
  %exn.slot = alloca i8*
  %ehselector.slot = alloca i32
  %address_ = alloca %"class.std::__1::basic_string", align 8
  %value_ = alloca %"class.std::__1::basic_string", align 8
  %agg.tmp = alloca %"class.std::__1::basic_string", align 8
  %agg.tmp6 = alloca %"class.std::__1::basic_string", align 8
  %agg.tmp9 = alloca %"class.std::__1::basic_string", align 8
  store i32* %addr, i32** %addr.addr, align 8
  call void @_ZNSt3__118basic_stringstreamIcNS_11char_traitsIcEENS_9allocatorIcEEEC1Ej(%"class.std::__1::basic_stringstream"* %address, i32 24)
  %0 = bitcast %"class.std::__1::basic_stringstream"* %address to i8*
  %add.ptr = getelementptr inbounds i8, i8* %0, i64 16
  %1 = bitcast i8* %add.ptr to %"class.std::__1::basic_ostream"*
  %2 = load i32*, i32** %addr.addr, align 8
  %3 = bitcast i32* %2 to i8*
