; ModuleID = 'test.bc'
source_filename = "test.cpp"
target datalayout = "e-m:o-i64:64-f80:128-n8:16:32:64-S128"
target triple = "x86_64-apple-macosx10.14.0"

%"class.testing::TestInfo" = type { %"class.std::__1::basic_string", %"class.std::__1::basic_string", %"class.std::__1::unique_ptr", %"class.std::__1::unique_ptr", %"struct.testing::internal::CodeLocation", i8*, i8, i8, i8, i8, %"class.testing::internal::TestFactoryBase"*, %"class.testing::TestResult" }
%"class.std::__1::basic_string" = type { %"class.std::__1::__compressed_pair" }
%"class.std::__1::__compressed_pair" = type { %"struct.std::__1::__compressed_pair_elem" }
%"struct.std::__1::__compressed_pair_elem" = type { %"struct.std::__1::basic_string<char, std::__1::char_traits<char>, std::__1::allocator<char> >::__rep" }
%"struct.std::__1::basic_string<char, std::__1::char_traits<char>, std::__1::allocator<char> >::__rep" = type { %union.anon }
%union.anon = type { %"struct.std::__1::basic_string<char, std::__1::char_traits<char>, std::__1::allocator<char> >::__long" }
%"struct.std::__1::basic_string<char, std::__1::char_traits<char>, std::__1::allocator<char> >::__long" = type { i64, i64, i8* }
%"class.std::__1::unique_ptr" = type { %"class.std::__1::__compressed_pair.2" }
%"class.std::__1::__compressed_pair.2" = type { %"struct.std::__1::__compressed_pair_elem.3" }
%"struct.std::__1::__compressed_pair_elem.3" = type { %"class.std::__1::basic_string"* }
%"struct.testing::internal::CodeLocation" = type <{ %"class.std::__1::basic_string", i32, [4 x i8] }>
%"class.testing::internal::TestFactoryBase" = type { i32 (...)** }
%"class.testing::TestResult" = type { %"class.testing::internal::Mutex", %"class.std::__1::vector", %"class.std::__1::vector.10", i32, i64, i64 }
%"class.testing::internal::Mutex" = type { %"class.testing::internal::MutexBase" }
%"class.testing::internal::MutexBase" = type { %struct._opaque_pthread_mutex_t, i8, %struct._opaque_pthread_t* }
%struct._opaque_pthread_mutex_t = type { i64, [56 x i8] }
%struct._opaque_pthread_t = type { i64, %struct.__darwin_pthread_handler_rec*, [8176 x i8] }
%struct.__darwin_pthread_handler_rec = type { void (i8*)*, i8*, %struct.__darwin_pthread_handler_rec* }
%"class.std::__1::vector" = type { %"class.std::__1::__vector_base" }
%"class.std::__1::__vector_base" = type { %"class.testing::TestPartResult"*, %"class.testing::TestPartResult"*, %"class.std::__1::__compressed_pair.5" }
%"class.testing::TestPartResult" = type { i32, %"class.std::__1::basic_string", i32, %"class.std::__1::basic_string", %"class.std::__1::basic_string" }
%"class.std::__1::__compressed_pair.5" = type { %"struct.std::__1::__compressed_pair_elem.6" }
%"struct.std::__1::__compressed_pair_elem.6" = type { %"class.testing::TestPartResult"* }
%"class.std::__1::vector.10" = type { %"class.std::__1::__vector_base.11" }
%"class.std::__1::__vector_base.11" = type { %"class.testing::TestProperty"*, %"class.testing::TestProperty"*, %"class.std::__1::__compressed_pair.12" }
%"class.testing::TestProperty" = type { %"class.std::__1::basic_string", %"class.std::__1::basic_string" }
%"class.std::__1::__compressed_pair.12" = type { %"struct.std::__1::__compressed_pair_elem.13" }
%"struct.std::__1::__compressed_pair_elem.13" = type { %"class.testing::TestProperty"* }
%"class.std::__1::locale::id" = type <{ %"struct.std::__1::once_flag", i32, [4 x i8] }>
%"struct.std::__1::once_flag" = type { i64 }
%"class.std::__1::basic_ostream" = type { i32 (...)**, %"class.std::__1::basic_ios.base" }
%"class.std::__1::basic_ios.base" = type <{ %"class.std::__1::ios_base", %"class.std::__1::basic_ostream"*, i32 }>
%"class.std::__1::ios_base" = type { i32 (...)**, i32, i64, i64, i32, i32, i8*, i8*, void (i32, %"class.std::__1::ios_base"*, i32)**, i32*, i64, i64, i64*, i64, i64, i8**, i64, i64 }
%"class.testing::internal::TestFactoryImpl" = type { %"class.testing::internal::TestFactoryBase" }
%"class.testing::internal::GTestLog" = type { i32 }
%class.foo_test1_Test = type { %"class.testing::Test" }
%"class.testing::Test" = type { i32 (...)**, %"class.std::__1::unique_ptr.17" }
%"class.std::__1::unique_ptr.17" = type { %"class.std::__1::__compressed_pair.18" }
%"class.std::__1::__compressed_pair.18" = type { %"struct.std::__1::__compressed_pair_elem.19" }
%"struct.std::__1::__compressed_pair_elem.19" = type { %"class.testing::internal::GTestFlagSaver"* }
%"class.testing::internal::GTestFlagSaver" = type opaque
%"class.testing::AssertionResult" = type { i8, %"class.std::__1::unique_ptr.23" }
%"class.std::__1::unique_ptr.23" = type { %"class.std::__1::__compressed_pair.24" }
%"class.std::__1::__compressed_pair.24" = type { %"struct.std::__1::__compressed_pair_elem.25" }
%"struct.std::__1::__compressed_pair_elem.25" = type { %"class.std::__1::basic_string"* }
%"class.testing::Message" = type { %"class.std::__1::unique_ptr.29" }
%"class.std::__1::unique_ptr.29" = type { %"class.std::__1::__compressed_pair.30" }
%"class.std::__1::__compressed_pair.30" = type { %"struct.std::__1::__compressed_pair_elem.31" }
%"struct.std::__1::__compressed_pair_elem.31" = type { %"class.std::__1::basic_stringstream"* }
%"class.std::__1::basic_stringstream" = type { %"class.std::__1::basic_iostream.base", %"class.std::__1::basic_stringbuf", %"class.std::__1::basic_ios.base" }
%"class.std::__1::basic_iostream.base" = type { %"class.std::__1::basic_istream.base", %"class.std::__1::basic_ostream.base" }
%"class.std::__1::basic_istream.base" = type { i32 (...)**, i64 }
%"class.std::__1::basic_ostream.base" = type { i32 (...)** }
%"class.std::__1::basic_stringbuf" = type <{ %"class.std::__1::basic_streambuf", %"class.std::__1::basic_string", i8*, i32, [4 x i8] }>
%"class.std::__1::basic_streambuf" = type { i32 (...)**, %"class.std::__1::locale", i8*, i8*, i8*, i8*, i8*, i8* }
%"class.std::__1::locale" = type { %"class.std::__1::locale::__imp"* }
%"class.std::__1::locale::__imp" = type opaque
%"class.testing::internal::AssertHelper" = type { %"struct.testing::internal::AssertHelper::AssertHelperData"* }
%"struct.testing::internal::AssertHelper::AssertHelperData" = type { i32, i8*, i32, %"class.std::__1::basic_string" }
%"class.testing::UnitTest" = type { i32 (...)**, %"class.testing::internal::Mutex", %"class.testing::internal::UnitTestImpl"* }
%"class.testing::internal::UnitTestImpl" = type opaque
%"struct.testing::Test::Setup_should_be_spelled_SetUp" = type { i8 }
%"struct.std::__1::basic_string<char, std::__1::char_traits<char>, std::__1::allocator<char> >::__short" = type { %union.anon.0, [23 x i8] }
%union.anon.0 = type { i8 }
%"struct.std::__1::default_delete.33" = type { i8 }
%"struct.std::__1::__compressed_pair_elem.32" = type { i8 }
%"struct.std::__1::default_delete.27" = type { i8 }
%"struct.std::__1::__compressed_pair_elem.26" = type { i8 }
%"class.std::__1::__basic_string_common" = type { i8 }
%"struct.std::__1::__compressed_pair_elem.1" = type { i8 }
%"class.std::__1::allocator" = type { i8 }
%"class.std::__1::basic_ostream<char, std::__1::char_traits<char> >::sentry" = type { i8, %"class.std::__1::basic_ostream"* }
%"class.std::__1::ostreambuf_iterator" = type { %"class.std::__1::basic_streambuf"* }
%"class.std::__1::basic_ios" = type <{ %"class.std::__1::ios_base", %"class.std::__1::basic_ostream"*, i32, [4 x i8] }>
%"struct.std::__1::iterator" = type { i8 }
%"class.std::__1::ctype" = type <{ %"class.std::__1::locale::facet", i32*, i8, [7 x i8] }>
%"class.std::__1::locale::facet" = type { %"class.std::__1::__shared_count" }
%"class.std::__1::__shared_count" = type { i32 (...)**, i64 }
%"class.std::__1::basic_iostream" = type { %"class.std::__1::basic_istream.base", %"class.std::__1::basic_ostream.base", %"class.std::__1::basic_ios.base" }
%"class.std::__1::basic_istream" = type { i32 (...)**, i64, %"class.std::__1::basic_ios.base" }
%"class.std::__1::fpos" = type { %union.__mbstate_t, i64 }
%union.__mbstate_t = type { i64, [120 x i8] }
%"struct.std::__1::basic_string<char, std::__1::char_traits<char>, std::__1::allocator<char> >::__raw" = type { [3 x i64] }
%"struct.std::__1::__less" = type { i8 }
%"struct.testing::internal::WrapPrinterType" = type { i8 }
%"struct.std::__1::__second_tag" = type { i8 }
%"struct.std::__1::random_access_iterator_tag" = type { i8 }
%"struct.std::__1::integral_constant" = type { i8 }
%"struct.std::__1::__has_max_size" = type { i8 }
%"class.std::length_error" = type { %"class.std::logic_error" }
%"class.std::logic_error" = type { %"class.std::exception", %"class.std::__1::__libcpp_refstring" }
%"class.std::exception" = type { i32 (...)** }
%"class.std::__1::__libcpp_refstring" = type { i8* }

@.str = private unnamed_addr constant [8 x i8] c"uniform\00", align 1
@uniform = global i8* getelementptr inbounds ([8 x i8], [8 x i8]* @.str, i32 0, i32 0), align 8
@_ZN14foo_test1_Test10test_info_E = global %"class.testing::TestInfo"* null, align 8
@.str.1 = private unnamed_addr constant [4 x i8] c"foo\00", align 1
@.str.2 = private unnamed_addr constant [6 x i8] c"test1\00", align 1
@.str.3 = private unnamed_addr constant [9 x i8] c"test.cpp\00", align 1
@.str.4 = private unnamed_addr constant [2 x i8] c"M\00", align 1
@.str.5 = private unnamed_addr constant [2 x i8] c"P\00", align 1
@.str.6 = private unnamed_addr constant [3 x i8] c"10\00", align 1
@.str.7 = private unnamed_addr constant [7 x i8] c"result\00", align 1
@_ZTV14foo_test1_Test = unnamed_addr constant { [8 x i8*] } { [8 x i8*] [i8* null, i8* bitcast ({ i8*, i8*, i8* }* @_ZTI14foo_test1_Test to i8*), i8* bitcast (void (%class.foo_test1_Test*)* @_ZN14foo_test1_TestD1Ev to i8*), i8* bitcast (void (%class.foo_test1_Test*)* @_ZN14foo_test1_TestD0Ev to i8*), i8* bitcast (void (%"class.testing::Test"*)* @_ZN7testing4Test5SetUpEv to i8*), i8* bitcast (void (%"class.testing::Test"*)* @_ZN7testing4Test8TearDownEv to i8*), i8* bitcast (void (%class.foo_test1_Test*)* @_ZN14foo_test1_Test8TestBodyEv to i8*), i8* bitcast (%"struct.testing::Test::Setup_should_be_spelled_SetUp"* (%"class.testing::Test"*)* @_ZN7testing4Test5SetupEv to i8*)] }, align 8
@_ZTVN10__cxxabiv120__si_class_type_infoE = external global i8*
@_ZTS14foo_test1_Test = constant [17 x i8] c"14foo_test1_Test\00"
@_ZTIN7testing4TestE = external constant i8*
@_ZTI14foo_test1_Test = constant { i8*, i8*, i8* } { i8* bitcast (i8** getelementptr inbounds (i8*, i8** @_ZTVN10__cxxabiv120__si_class_type_infoE, i64 2) to i8*), i8* getelementptr inbounds ([17 x i8], [17 x i8]* @_ZTS14foo_test1_Test, i32 0, i32 0), i8* bitcast (i8** @_ZTIN7testing4TestE to i8*) }
@_ZTVN7testing8internal15TestFactoryImplI14foo_test1_TestEE = linkonce_odr unnamed_addr constant { [5 x i8*] } { [5 x i8*] [i8* null, i8* bitcast ({ i8*, i8*, i8* }* @_ZTIN7testing8internal15TestFactoryImplI14foo_test1_TestEE to i8*), i8* bitcast (void (%"class.testing::internal::TestFactoryImpl"*)* @_ZN7testing8internal15TestFactoryImplI14foo_test1_TestED1Ev to i8*), i8* bitcast (void (%"class.testing::internal::TestFactoryImpl"*)* @_ZN7testing8internal15TestFactoryImplI14foo_test1_TestED0Ev to i8*), i8* bitcast (%"class.testing::Test"* (%"class.testing::internal::TestFactoryImpl"*)* @_ZN7testing8internal15TestFactoryImplI14foo_test1_TestE10CreateTestEv to i8*)] }, align 8
@_ZTSN7testing8internal15TestFactoryImplI14foo_test1_TestEE = linkonce_odr constant [55 x i8] c"N7testing8internal15TestFactoryImplI14foo_test1_TestEE\00"
@_ZTVN10__cxxabiv117__class_type_infoE = external global i8*
@_ZTSN7testing8internal15TestFactoryBaseE = linkonce_odr constant [37 x i8] c"N7testing8internal15TestFactoryBaseE\00"
@_ZTIN7testing8internal15TestFactoryBaseE = linkonce_odr constant { i8*, i8* } { i8* bitcast (i8** getelementptr inbounds (i8*, i8** @_ZTVN10__cxxabiv117__class_type_infoE, i64 2) to i8*), i8* getelementptr inbounds ([37 x i8], [37 x i8]* @_ZTSN7testing8internal15TestFactoryBaseE, i32 0, i32 0) }
@_ZTIN7testing8internal15TestFactoryImplI14foo_test1_TestEE = linkonce_odr constant { i8*, i8*, i8* } { i8* bitcast (i8** getelementptr inbounds (i8*, i8** @_ZTVN10__cxxabiv120__si_class_type_infoE, i64 2) to i8*), i8* getelementptr inbounds ([55 x i8], [55 x i8]* @_ZTSN7testing8internal15TestFactoryImplI14foo_test1_TestEE, i32 0, i32 0), i8* bitcast ({ i8*, i8* }* @_ZTIN7testing8internal15TestFactoryBaseE to i8*) }
@_ZTVN7testing8internal15TestFactoryBaseE = linkonce_odr unnamed_addr constant { [5 x i8*] } { [5 x i8*] [i8* null, i8* bitcast ({ i8*, i8* }* @_ZTIN7testing8internal15TestFactoryBaseE to i8*), i8* bitcast (void (%"class.testing::internal::TestFactoryBase"*)* @_ZN7testing8internal15TestFactoryBaseD1Ev to i8*), i8* bitcast (void (%"class.testing::internal::TestFactoryBase"*)* @_ZN7testing8internal15TestFactoryBaseD0Ev to i8*), i8* bitcast (void ()* @__cxa_pure_virtual to i8*)] }, align 8
@.str.8 = private unnamed_addr constant [1 x i8] zeroinitializer, align 1
@.str.9 = private unnamed_addr constant [51 x i8] c"/usr/local/include/gtest/internal/gtest-internal.h\00", align 1
@.str.10 = private unnamed_addr constant [51 x i8] c"Condition !test_case_fp || !test_suite_fp failed. \00", align 1
@.str.11 = private unnamed_addr constant [107 x i8] c"Test can not provide both SetUpTestSuite and SetUpTestCase, please make sure there is only one present at \00", align 1
@.str.12 = private unnamed_addr constant [2 x i8] c":\00", align 1
@_ZNSt3__15ctypeIcE2idE = external global %"class.std::__1::locale::id", align 8
@_ZNSt3__14cerrE = external global %"class.std::__1::basic_ostream", align 8
@.str.13 = private unnamed_addr constant [112 x i8] c"Test can not provide both TearDownTestSuite and TearDownTestCase, please make sure there is only one present at\00", align 1
@_ZTVNSt3__118basic_stringstreamIcNS_11char_traitsIcEENS_9allocatorIcEEEE = linkonce_odr unnamed_addr constant { [5 x i8*], [5 x i8*], [5 x i8*] } { [5 x i8*] [i8* inttoptr (i64 128 to i8*), i8* null, i8* bitcast ({ i8*, i8*, i8* }* @_ZTINSt3__118basic_stringstreamIcNS_11char_traitsIcEENS_9allocatorIcEEEE to i8*), i8* bitcast (void (%"class.std::__1::basic_stringstream"*)* @_ZNSt3__118basic_stringstreamIcNS_11char_traitsIcEENS_9allocatorIcEEED1Ev to i8*), i8* bitcast (void (%"class.std::__1::basic_stringstream"*)* @_ZNSt3__118basic_stringstreamIcNS_11char_traitsIcEENS_9allocatorIcEEED0Ev to i8*)], [5 x i8*] [i8* inttoptr (i64 112 to i8*), i8* inttoptr (i64 -16 to i8*), i8* bitcast ({ i8*, i8*, i8* }* @_ZTINSt3__118basic_stringstreamIcNS_11char_traitsIcEENS_9allocatorIcEEEE to i8*), i8* bitcast (void (%"class.std::__1::basic_stringstream"*)* @_ZThn16_NSt3__118basic_stringstreamIcNS_11char_traitsIcEENS_9allocatorIcEEED1Ev to i8*), i8* bitcast (void (%"class.std::__1::basic_stringstream"*)* @_ZThn16_NSt3__118basic_stringstreamIcNS_11char_traitsIcEENS_9allocatorIcEEED0Ev to i8*)], [5 x i8*] [i8* inttoptr (i64 -128 to i8*), i8* inttoptr (i64 -128 to i8*), i8* bitcast ({ i8*, i8*, i8* }* @_ZTINSt3__118basic_stringstreamIcNS_11char_traitsIcEENS_9allocatorIcEEEE to i8*), i8* bitcast (void (%"class.std::__1::basic_stringstream"*)* @_ZTv0_n24_NSt3__118basic_stringstreamIcNS_11char_traitsIcEENS_9allocatorIcEEED1Ev to i8*), i8* bitcast (void (%"class.std::__1::basic_stringstream"*)* @_ZTv0_n24_NSt3__118basic_stringstreamIcNS_11char_traitsIcEENS_9allocatorIcEEED0Ev to i8*)] }, align 8
@_ZTTNSt3__118basic_stringstreamIcNS_11char_traitsIcEENS_9allocatorIcEEEE = linkonce_odr unnamed_addr constant [10 x i8*] [i8* bitcast (i8** getelementptr inbounds ({ [5 x i8*], [5 x i8*], [5 x i8*] }, { [5 x i8*], [5 x i8*], [5 x i8*] }* @_ZTVNSt3__118basic_stringstreamIcNS_11char_traitsIcEENS_9allocatorIcEEEE, i32 0, inrange i32 0, i32 3) to i8*), i8* bitcast (i8** getelementptr inbounds ({ [5 x i8*], [5 x i8*], [5 x i8*] }, { [5 x i8*], [5 x i8*], [5 x i8*] }* @_ZTCNSt3__118basic_stringstreamIcNS_11char_traitsIcEENS_9allocatorIcEEEE0_NS_14basic_iostreamIcS2_EE, i32 0, inrange i32 0, i32 3) to i8*), i8* bitcast (i8** getelementptr inbounds ({ [5 x i8*], [5 x i8*] }, { [5 x i8*], [5 x i8*] }* @_ZTCNSt3__118basic_stringstreamIcNS_11char_traitsIcEENS_9allocatorIcEEEE0_NS_13basic_istreamIcS2_EE, i32 0, inrange i32 0, i32 3) to i8*), i8* bitcast (i8** getelementptr inbounds ({ [5 x i8*], [5 x i8*] }, { [5 x i8*], [5 x i8*] }* @_ZTCNSt3__118basic_stringstreamIcNS_11char_traitsIcEENS_9allocatorIcEEEE0_NS_13basic_istreamIcS2_EE, i32 0, inrange i32 1, i32 3) to i8*), i8* bitcast (i8** getelementptr inbounds ({ [5 x i8*], [5 x i8*] }, { [5 x i8*], [5 x i8*] }* @_ZTCNSt3__118basic_stringstreamIcNS_11char_traitsIcEENS_9allocatorIcEEEE16_NS_13basic_ostreamIcS2_EE, i32 0, inrange i32 0, i32 3) to i8*), i8* bitcast (i8** getelementptr inbounds ({ [5 x i8*], [5 x i8*] }, { [5 x i8*], [5 x i8*] }* @_ZTCNSt3__118basic_stringstreamIcNS_11char_traitsIcEENS_9allocatorIcEEEE16_NS_13basic_ostreamIcS2_EE, i32 0, inrange i32 1, i32 3) to i8*), i8* bitcast (i8** getelementptr inbounds ({ [5 x i8*], [5 x i8*], [5 x i8*] }, { [5 x i8*], [5 x i8*], [5 x i8*] }* @_ZTCNSt3__118basic_stringstreamIcNS_11char_traitsIcEENS_9allocatorIcEEEE0_NS_14basic_iostreamIcS2_EE, i32 0, inrange i32 2, i32 3) to i8*), i8* bitcast (i8** getelementptr inbounds ({ [5 x i8*], [5 x i8*], [5 x i8*] }, { [5 x i8*], [5 x i8*], [5 x i8*] }* @_ZTCNSt3__118basic_stringstreamIcNS_11char_traitsIcEENS_9allocatorIcEEEE0_NS_14basic_iostreamIcS2_EE, i32 0, inrange i32 1, i32 3) to i8*), i8* bitcast (i8** getelementptr inbounds ({ [5 x i8*], [5 x i8*], [5 x i8*] }, { [5 x i8*], [5 x i8*], [5 x i8*] }* @_ZTVNSt3__118basic_stringstreamIcNS_11char_traitsIcEENS_9allocatorIcEEEE, i32 0, inrange i32 2, i32 3) to i8*), i8* bitcast (i8** getelementptr inbounds ({ [5 x i8*], [5 x i8*], [5 x i8*] }, { [5 x i8*], [5 x i8*], [5 x i8*] }* @_ZTVNSt3__118basic_stringstreamIcNS_11char_traitsIcEENS_9allocatorIcEEEE, i32 0, inrange i32 1, i32 3) to i8*)]
@_ZTCNSt3__118basic_stringstreamIcNS_11char_traitsIcEENS_9allocatorIcEEEE0_NS_14basic_iostreamIcS2_EE = linkonce_odr unnamed_addr constant { [5 x i8*], [5 x i8*], [5 x i8*] } { [5 x i8*] [i8* inttoptr (i64 128 to i8*), i8* null, i8* bitcast (i8** @_ZTINSt3__114basic_iostreamIcNS_11char_traitsIcEEEE to i8*), i8* bitcast (void (%"class.std::__1::basic_iostream"*)* @_ZNSt3__114basic_iostreamIcNS_11char_traitsIcEEED1Ev to i8*), i8* bitcast (void (%"class.std::__1::basic_iostream"*)* @_ZNSt3__114basic_iostreamIcNS_11char_traitsIcEEED0Ev to i8*)], [5 x i8*] [i8* inttoptr (i64 112 to i8*), i8* inttoptr (i64 -16 to i8*), i8* bitcast (i8** @_ZTINSt3__114basic_iostreamIcNS_11char_traitsIcEEEE to i8*), i8* bitcast (void (%"class.std::__1::basic_iostream"*)* @_ZThn16_NSt3__114basic_iostreamIcNS_11char_traitsIcEEED1Ev to i8*), i8* bitcast (void (%"class.std::__1::basic_iostream"*)* @_ZThn16_NSt3__114basic_iostreamIcNS_11char_traitsIcEEED0Ev to i8*)], [5 x i8*] [i8* inttoptr (i64 -128 to i8*), i8* inttoptr (i64 -128 to i8*), i8* bitcast (i8** @_ZTINSt3__114basic_iostreamIcNS_11char_traitsIcEEEE to i8*), i8* bitcast (void (%"class.std::__1::basic_iostream"*)* @_ZTv0_n24_NSt3__114basic_iostreamIcNS_11char_traitsIcEEED1Ev to i8*), i8* bitcast (void (%"class.std::__1::basic_iostream"*)* @_ZTv0_n24_NSt3__114basic_iostreamIcNS_11char_traitsIcEEED0Ev to i8*)] }
@_ZTINSt3__114basic_iostreamIcNS_11char_traitsIcEEEE = external constant i8*
@_ZTCNSt3__118basic_stringstreamIcNS_11char_traitsIcEENS_9allocatorIcEEEE0_NS_13basic_istreamIcS2_EE = linkonce_odr unnamed_addr constant { [5 x i8*], [5 x i8*] } { [5 x i8*] [i8* inttoptr (i64 128 to i8*), i8* null, i8* bitcast (i8** @_ZTINSt3__113basic_istreamIcNS_11char_traitsIcEEEE to i8*), i8* bitcast (void (%"class.std::__1::basic_istream"*)* @_ZNSt3__113basic_istreamIcNS_11char_traitsIcEEED1Ev to i8*), i8* bitcast (void (%"class.std::__1::basic_istream"*)* @_ZNSt3__113basic_istreamIcNS_11char_traitsIcEEED0Ev to i8*)], [5 x i8*] [i8* inttoptr (i64 -128 to i8*), i8* inttoptr (i64 -128 to i8*), i8* bitcast (i8** @_ZTINSt3__113basic_istreamIcNS_11char_traitsIcEEEE to i8*), i8* bitcast (void (%"class.std::__1::basic_istream"*)* @_ZTv0_n24_NSt3__113basic_istreamIcNS_11char_traitsIcEEED1Ev to i8*), i8* bitcast (void (%"class.std::__1::basic_istream"*)* @_ZTv0_n24_NSt3__113basic_istreamIcNS_11char_traitsIcEEED0Ev to i8*)] }
@_ZTINSt3__113basic_istreamIcNS_11char_traitsIcEEEE = external constant i8*
@_ZTCNSt3__118basic_stringstreamIcNS_11char_traitsIcEENS_9allocatorIcEEEE16_NS_13basic_ostreamIcS2_EE = linkonce_odr unnamed_addr constant { [5 x i8*], [5 x i8*] } { [5 x i8*] [i8* inttoptr (i64 112 to i8*), i8* null, i8* bitcast (i8** @_ZTINSt3__113basic_ostreamIcNS_11char_traitsIcEEEE to i8*), i8* bitcast (void (%"class.std::__1::basic_ostream"*)* @_ZNSt3__113basic_ostreamIcNS_11char_traitsIcEEED1Ev to i8*), i8* bitcast (void (%"class.std::__1::basic_ostream"*)* @_ZNSt3__113basic_ostreamIcNS_11char_traitsIcEEED0Ev to i8*)], [5 x i8*] [i8* inttoptr (i64 -112 to i8*), i8* inttoptr (i64 -112 to i8*), i8* bitcast (i8** @_ZTINSt3__113basic_ostreamIcNS_11char_traitsIcEEEE to i8*), i8* bitcast (void (%"class.std::__1::basic_ostream"*)* @_ZTv0_n24_NSt3__113basic_ostreamIcNS_11char_traitsIcEEED1Ev to i8*), i8* bitcast (void (%"class.std::__1::basic_ostream"*)* @_ZTv0_n24_NSt3__113basic_ostreamIcNS_11char_traitsIcEEED0Ev to i8*)] }
@_ZTINSt3__113basic_ostreamIcNS_11char_traitsIcEEEE = external constant i8*
@_ZTSNSt3__118basic_stringstreamIcNS_11char_traitsIcEENS_9allocatorIcEEEE = linkonce_odr constant [69 x i8] c"NSt3__118basic_stringstreamIcNS_11char_traitsIcEENS_9allocatorIcEEEE\00"
@_ZTINSt3__118basic_stringstreamIcNS_11char_traitsIcEENS_9allocatorIcEEEE = linkonce_odr constant { i8*, i8*, i8* } { i8* bitcast (i8** getelementptr inbounds (i8*, i8** @_ZTVN10__cxxabiv120__si_class_type_infoE, i64 2) to i8*), i8* getelementptr inbounds ([69 x i8], [69 x i8]* @_ZTSNSt3__118basic_stringstreamIcNS_11char_traitsIcEENS_9allocatorIcEEEE, i32 0, i32 0), i8* bitcast (i8** @_ZTINSt3__114basic_iostreamIcNS_11char_traitsIcEEEE to i8*) }
@_ZTVNSt3__19basic_iosIcNS_11char_traitsIcEEEE = external unnamed_addr constant { [4 x i8*] }
@_ZTVNSt3__18ios_baseE = external unnamed_addr constant { [4 x i8*] }
@_ZTVNSt3__115basic_stringbufIcNS_11char_traitsIcEENS_9allocatorIcEEEE = linkonce_odr unnamed_addr constant { [16 x i8*] } { [16 x i8*] [i8* null, i8* bitcast ({ i8*, i8*, i8* }* @_ZTINSt3__115basic_stringbufIcNS_11char_traitsIcEENS_9allocatorIcEEEE to i8*), i8* bitcast (void (%"class.std::__1::basic_stringbuf"*)* @_ZNSt3__115basic_stringbufIcNS_11char_traitsIcEENS_9allocatorIcEEED1Ev to i8*), i8* bitcast (void (%"class.std::__1::basic_stringbuf"*)* @_ZNSt3__115basic_stringbufIcNS_11char_traitsIcEENS_9allocatorIcEEED0Ev to i8*), i8* bitcast (void (%"class.std::__1::basic_streambuf"*, %"class.std::__1::locale"*)* @_ZNSt3__115basic_streambufIcNS_11char_traitsIcEEE5imbueERKNS_6localeE to i8*), i8* bitcast (%"class.std::__1::basic_streambuf"* (%"class.std::__1::basic_streambuf"*, i8*, i64)* @_ZNSt3__115basic_streambufIcNS_11char_traitsIcEEE6setbufEPcl to i8*), i8* bitcast (void (%"class.std::__1::fpos"*, %"class.std::__1::basic_stringbuf"*, i64, i32, i32)* @_ZNSt3__115basic_stringbufIcNS_11char_traitsIcEENS_9allocatorIcEEE7seekoffExNS_8ios_base7seekdirEj to i8*), i8* bitcast (void (%"class.std::__1::fpos"*, %"class.std::__1::basic_stringbuf"*, %"class.std::__1::fpos"*, i32)* @_ZNSt3__115basic_stringbufIcNS_11char_traitsIcEENS_9allocatorIcEEE7seekposENS_4fposI11__mbstate_tEEj to i8*), i8* bitcast (i32 (%"class.std::__1::basic_streambuf"*)* @_ZNSt3__115basic_streambufIcNS_11char_traitsIcEEE4syncEv to i8*), i8* bitcast (i64 (%"class.std::__1::basic_streambuf"*)* @_ZNSt3__115basic_streambufIcNS_11char_traitsIcEEE9showmanycEv to i8*), i8* bitcast (i64 (%"class.std::__1::basic_streambuf"*, i8*, i64)* @_ZNSt3__115basic_streambufIcNS_11char_traitsIcEEE6xsgetnEPcl to i8*), i8* bitcast (i32 (%"class.std::__1::basic_stringbuf"*)* @_ZNSt3__115basic_stringbufIcNS_11char_traitsIcEENS_9allocatorIcEEE9underflowEv to i8*), i8* bitcast (i32 (%"class.std::__1::basic_streambuf"*)* @_ZNSt3__115basic_streambufIcNS_11char_traitsIcEEE5uflowEv to i8*), i8* bitcast (i32 (%"class.std::__1::basic_stringbuf"*, i32)* @_ZNSt3__115basic_stringbufIcNS_11char_traitsIcEENS_9allocatorIcEEE9pbackfailEi to i8*), i8* bitcast (i64 (%"class.std::__1::basic_streambuf"*, i8*, i64)* @_ZNSt3__115basic_streambufIcNS_11char_traitsIcEEE6xsputnEPKcl to i8*), i8* bitcast (i32 (%"class.std::__1::basic_stringbuf"*, i32)* @_ZNSt3__115basic_stringbufIcNS_11char_traitsIcEENS_9allocatorIcEEE8overflowEi to i8*)] }, align 8
@_ZTSNSt3__115basic_stringbufIcNS_11char_traitsIcEENS_9allocatorIcEEEE = linkonce_odr constant [66 x i8] c"NSt3__115basic_stringbufIcNS_11char_traitsIcEENS_9allocatorIcEEEE\00"
@_ZTINSt3__115basic_streambufIcNS_11char_traitsIcEEEE = external constant i8*
@_ZTINSt3__115basic_stringbufIcNS_11char_traitsIcEENS_9allocatorIcEEEE = linkonce_odr constant { i8*, i8*, i8* } { i8* bitcast (i8** getelementptr inbounds (i8*, i8** @_ZTVN10__cxxabiv120__si_class_type_infoE, i64 2) to i8*), i8* getelementptr inbounds ([66 x i8], [66 x i8]* @_ZTSNSt3__115basic_stringbufIcNS_11char_traitsIcEENS_9allocatorIcEEEE, i32 0, i32 0), i8* bitcast (i8** @_ZTINSt3__115basic_streambufIcNS_11char_traitsIcEEEE to i8*) }
@.str.14 = private unnamed_addr constant [68 x i8] c"allocator<T>::allocate(size_t n) 'n' exceeds maximum supported size\00", align 1
@_ZTISt12length_error = external constant i8*
@_ZTVSt12length_error = external unnamed_addr constant { [5 x i8*] }
@llvm.global_ctors = appending global [1 x { i32, void ()*, i8* }] [{ i32, void ()*, i8* } { i32 65535, void ()* @_GLOBAL__sub_I_test.cpp, i8* null }]
@0 = private unnamed_addr constant [6 x i8] c"entry\00", align 1
@1 = private unnamed_addr constant [12 x i8] c"invoke.cont\00", align 1
@2 = private unnamed_addr constant [13 x i8] c"invoke.cont2\00", align 1
@3 = private unnamed_addr constant [13 x i8] c"invoke.cont3\00", align 1
@4 = private unnamed_addr constant [13 x i8] c"invoke.cont5\00", align 1
@5 = private unnamed_addr constant [13 x i8] c"invoke.cont7\00", align 1
@6 = private unnamed_addr constant [14 x i8] c"invoke.cont10\00", align 1
@7 = private unnamed_addr constant [14 x i8] c"invoke.cont11\00", align 1
@8 = private unnamed_addr constant [5 x i8] c"lpad\00", align 1
@9 = private unnamed_addr constant [6 x i8] c"lpad1\00", align 1
@10 = private unnamed_addr constant [6 x i8] c"lpad9\00", align 1
@11 = private unnamed_addr constant [10 x i8] c"ehcleanup\00", align 1
@12 = private unnamed_addr constant [12 x i8] c"ehcleanup13\00", align 1
@13 = private unnamed_addr constant [10 x i8] c"eh.resume\00", align 1
@14 = private unnamed_addr constant [6 x i8] c"entry\00", align 1
@15 = private unnamed_addr constant [6 x i8] c"entry\00", align 1
@16 = private unnamed_addr constant [6 x i8] c"entry\00", align 1
@17 = private unnamed_addr constant [8 x i8] c"lor.rhs\00", align 1
@18 = private unnamed_addr constant [8 x i8] c"lor.end\00", align 1
@19 = private unnamed_addr constant [8 x i8] c"if.then\00", align 1
@20 = private unnamed_addr constant [8 x i8] c"if.else\00", align 1
@21 = private unnamed_addr constant [12 x i8] c"invoke.cont\00", align 1
@22 = private unnamed_addr constant [13 x i8] c"invoke.cont5\00", align 1
@23 = private unnamed_addr constant [13 x i8] c"invoke.cont7\00", align 1
@24 = private unnamed_addr constant [13 x i8] c"invoke.cont9\00", align 1
@25 = private unnamed_addr constant [14 x i8] c"invoke.cont11\00", align 1
@26 = private unnamed_addr constant [14 x i8] c"invoke.cont13\00", align 1
@27 = private unnamed_addr constant [5 x i8] c"lpad\00", align 1
@28 = private unnamed_addr constant [7 x i8] c"if.end\00", align 1
@29 = private unnamed_addr constant [10 x i8] c"cond.true\00", align 1
@30 = private unnamed_addr constant [11 x i8] c"cond.false\00", align 1
@31 = private unnamed_addr constant [9 x i8] c"cond.end\00", align 1
@32 = private unnamed_addr constant [10 x i8] c"eh.resume\00", align 1
@33 = private unnamed_addr constant [6 x i8] c"entry\00", align 1
@34 = private unnamed_addr constant [8 x i8] c"lor.rhs\00", align 1
@35 = private unnamed_addr constant [8 x i8] c"lor.end\00", align 1
@36 = private unnamed_addr constant [8 x i8] c"if.then\00", align 1
@37 = private unnamed_addr constant [8 x i8] c"if.else\00", align 1
@38 = private unnamed_addr constant [12 x i8] c"invoke.cont\00", align 1
@39 = private unnamed_addr constant [13 x i8] c"invoke.cont5\00", align 1
@40 = private unnamed_addr constant [13 x i8] c"invoke.cont7\00", align 1
@41 = private unnamed_addr constant [13 x i8] c"invoke.cont9\00", align 1
@42 = private unnamed_addr constant [14 x i8] c"invoke.cont11\00", align 1
@43 = private unnamed_addr constant [14 x i8] c"invoke.cont13\00", align 1
@44 = private unnamed_addr constant [5 x i8] c"lpad\00", align 1
@45 = private unnamed_addr constant [7 x i8] c"if.end\00", align 1
@46 = private unnamed_addr constant [10 x i8] c"cond.true\00", align 1
@47 = private unnamed_addr constant [11 x i8] c"cond.false\00", align 1
@48 = private unnamed_addr constant [9 x i8] c"cond.end\00", align 1
@49 = private unnamed_addr constant [10 x i8] c"eh.resume\00", align 1
@50 = private unnamed_addr constant [6 x i8] c"entry\00", align 1
@51 = private unnamed_addr constant [6 x i8] c"entry\00", align 1
@52 = private unnamed_addr constant [1 x i8] zeroinitializer, align 1
@53 = private unnamed_addr constant [22 x i8] c"stg_start_intrmnt_RET\00", align 1
@54 = private unnamed_addr constant [5 x i8] c"this\00", align 1
@55 = private unnamed_addr constant [6 x i8] c"arg_1\00", align 1
@56 = private unnamed_addr constant [36 x i8] c"tmp__ZN14foo_test1_Test8TestBodyEv2\00", align 1
@57 = private unnamed_addr constant [36 x i8] c"tmp__ZN14foo_test1_Test8TestBodyEv2\00", align 1
@58 = private unnamed_addr constant [36 x i8] c"tmp__ZN14foo_test1_Test8TestBodyEv3\00", align 1
@59 = private unnamed_addr constant [36 x i8] c"tmp__ZN14foo_test1_Test8TestBodyEv3\00", align 1
@60 = private unnamed_addr constant [6 x i8] c"arg_1\00", align 1
@61 = private unnamed_addr constant [36 x i8] c"tmp__ZN14foo_test1_Test8TestBodyEv2\00", align 1
@62 = private unnamed_addr constant [6 x i8] c"arg_2\00", align 1
@63 = private unnamed_addr constant [36 x i8] c"tmp__ZN14foo_test1_Test8TestBodyEv3\00", align 1
@64 = private unnamed_addr constant [36 x i8] c"call__ZN14foo_test1_Test8TestBodyEv\00", align 1
@65 = private unnamed_addr constant [13 x i8] c"_Z3fooii_RET\00", align 1
@66 = private unnamed_addr constant [36 x i8] c"call__ZN14foo_test1_Test8TestBodyEv\00", align 1
@67 = private unnamed_addr constant [6 x i8] c"entry\00", align 1
@68 = private unnamed_addr constant [12 x i8] c"invoke.cont\00", align 1
@69 = private unnamed_addr constant [8 x i8] c"if.then\00", align 1
@70 = private unnamed_addr constant [5 x i8] c"lpad\00", align 1
@71 = private unnamed_addr constant [8 x i8] c"if.else\00", align 1
@72 = private unnamed_addr constant [13 x i8] c"invoke.cont4\00", align 1
@73 = private unnamed_addr constant [13 x i8] c"invoke.cont7\00", align 1
@74 = private unnamed_addr constant [13 x i8] c"invoke.cont9\00", align 1
@75 = private unnamed_addr constant [14 x i8] c"invoke.cont11\00", align 1
@76 = private unnamed_addr constant [6 x i8] c"lpad6\00", align 1
@77 = private unnamed_addr constant [7 x i8] c"lpad10\00", align 1
@78 = private unnamed_addr constant [10 x i8] c"ehcleanup\00", align 1
@79 = private unnamed_addr constant [7 x i8] c"if.end\00", align 1
@80 = private unnamed_addr constant [8 x i8] c"cleanup\00", align 1
@81 = private unnamed_addr constant [13 x i8] c"cleanup.cont\00", align 1
@82 = private unnamed_addr constant [12 x i8] c"ehcleanup12\00", align 1
@83 = private unnamed_addr constant [10 x i8] c"eh.resume\00", align 1
@84 = private unnamed_addr constant [12 x i8] c"unreachable\00", align 1
@85 = private unnamed_addr constant [6 x i8] c"entry\00", align 1
@86 = private unnamed_addr constant [6 x i8] c"entry\00", align 1
@87 = private unnamed_addr constant [6 x i8] c"entry\00", align 1
@88 = private unnamed_addr constant [6 x i8] c"entry\00", align 1
@89 = private unnamed_addr constant [6 x i8] c"entry\00", align 1
@90 = private unnamed_addr constant [6 x i8] c"entry\00", align 1
@91 = private unnamed_addr constant [6 x i8] c"entry\00", align 1
@92 = private unnamed_addr constant [6 x i8] c"entry\00", align 1
@93 = private unnamed_addr constant [6 x i8] c"entry\00", align 1
@94 = private unnamed_addr constant [6 x i8] c"entry\00", align 1
@95 = private unnamed_addr constant [6 x i8] c"entry\00", align 1
@96 = private unnamed_addr constant [6 x i8] c"entry\00", align 1
@97 = private unnamed_addr constant [6 x i8] c"entry\00", align 1
@98 = private unnamed_addr constant [6 x i8] c"entry\00", align 1
@99 = private unnamed_addr constant [6 x i8] c"entry\00", align 1
@100 = private unnamed_addr constant [6 x i8] c"entry\00", align 1
@101 = private unnamed_addr constant [12 x i8] c"invoke.cont\00", align 1
@102 = private unnamed_addr constant [5 x i8] c"lpad\00", align 1
@103 = private unnamed_addr constant [10 x i8] c"eh.resume\00", align 1
@104 = private unnamed_addr constant [6 x i8] c"entry\00", align 1
@105 = private unnamed_addr constant [7 x i8] c"return\00", align 1
@106 = private unnamed_addr constant [6 x i8] c"entry\00", align 1
@107 = private unnamed_addr constant [7 x i8] c"return\00", align 1
@108 = private unnamed_addr constant [6 x i8] c"entry\00", align 1
@109 = private unnamed_addr constant [6 x i8] c"entry\00", align 1
@110 = private unnamed_addr constant [6 x i8] c"entry\00", align 1
@111 = private unnamed_addr constant [6 x i8] c"entry\00", align 1
@112 = private unnamed_addr constant [6 x i8] c"entry\00", align 1
@113 = private unnamed_addr constant [6 x i8] c"entry\00", align 1
@114 = private unnamed_addr constant [10 x i8] c"cond.true\00", align 1
@115 = private unnamed_addr constant [11 x i8] c"cond.false\00", align 1
@116 = private unnamed_addr constant [9 x i8] c"cond.end\00", align 1
@117 = private unnamed_addr constant [6 x i8] c"entry\00", align 1
@118 = private unnamed_addr constant [6 x i8] c"entry\00", align 1
@119 = private unnamed_addr constant [6 x i8] c"entry\00", align 1
@120 = private unnamed_addr constant [6 x i8] c"entry\00", align 1
@121 = private unnamed_addr constant [6 x i8] c"entry\00", align 1
@122 = private unnamed_addr constant [6 x i8] c"entry\00", align 1
@123 = private unnamed_addr constant [6 x i8] c"entry\00", align 1
@124 = private unnamed_addr constant [6 x i8] c"entry\00", align 1
@125 = private unnamed_addr constant [10 x i8] c"cond.true\00", align 1
@126 = private unnamed_addr constant [11 x i8] c"cond.false\00", align 1
@127 = private unnamed_addr constant [9 x i8] c"cond.end\00", align 1
@128 = private unnamed_addr constant [6 x i8] c"entry\00", align 1
@129 = private unnamed_addr constant [6 x i8] c"entry\00", align 1
@130 = private unnamed_addr constant [6 x i8] c"entry\00", align 1
@131 = private unnamed_addr constant [6 x i8] c"entry\00", align 1
@132 = private unnamed_addr constant [6 x i8] c"entry\00", align 1
@133 = private unnamed_addr constant [6 x i8] c"entry\00", align 1
@134 = private unnamed_addr constant [6 x i8] c"entry\00", align 1
@135 = private unnamed_addr constant [6 x i8] c"entry\00", align 1
@136 = private unnamed_addr constant [6 x i8] c"entry\00", align 1
@137 = private unnamed_addr constant [6 x i8] c"entry\00", align 1
@138 = private unnamed_addr constant [6 x i8] c"entry\00", align 1
@139 = private unnamed_addr constant [8 x i8] c"if.then\00", align 1
@140 = private unnamed_addr constant [7 x i8] c"if.end\00", align 1
@141 = private unnamed_addr constant [6 x i8] c"entry\00", align 1
@142 = private unnamed_addr constant [6 x i8] c"entry\00", align 1
@143 = private unnamed_addr constant [6 x i8] c"entry\00", align 1
@144 = private unnamed_addr constant [15 x i8] c"delete.notnull\00", align 1
@145 = private unnamed_addr constant [11 x i8] c"delete.end\00", align 1
@146 = private unnamed_addr constant [6 x i8] c"entry\00", align 1
@147 = private unnamed_addr constant [6 x i8] c"entry\00", align 1
@148 = private unnamed_addr constant [6 x i8] c"entry\00", align 1
@149 = private unnamed_addr constant [6 x i8] c"entry\00", align 1
@150 = private unnamed_addr constant [6 x i8] c"entry\00", align 1
@151 = private unnamed_addr constant [6 x i8] c"entry\00", align 1
@152 = private unnamed_addr constant [8 x i8] c"if.then\00", align 1
@153 = private unnamed_addr constant [7 x i8] c"if.end\00", align 1
@154 = private unnamed_addr constant [6 x i8] c"entry\00", align 1
@155 = private unnamed_addr constant [6 x i8] c"entry\00", align 1
@156 = private unnamed_addr constant [6 x i8] c"entry\00", align 1
@157 = private unnamed_addr constant [15 x i8] c"delete.notnull\00", align 1
@158 = private unnamed_addr constant [11 x i8] c"delete.end\00", align 1
@159 = private unnamed_addr constant [6 x i8] c"entry\00", align 1
@160 = private unnamed_addr constant [6 x i8] c"entry\00", align 1
@161 = private unnamed_addr constant [6 x i8] c"entry\00", align 1
@162 = private unnamed_addr constant [6 x i8] c"entry\00", align 1
@163 = private unnamed_addr constant [6 x i8] c"entry\00", align 1
@164 = private unnamed_addr constant [6 x i8] c"entry\00", align 1
@165 = private unnamed_addr constant [6 x i8] c"entry\00", align 1
@166 = private unnamed_addr constant [6 x i8] c"entry\00", align 1
@167 = private unnamed_addr constant [6 x i8] c"entry\00", align 1
@168 = private unnamed_addr constant [6 x i8] c"entry\00", align 1
@169 = private unnamed_addr constant [6 x i8] c"entry\00", align 1
@170 = private unnamed_addr constant [10 x i8] c"cond.true\00", align 1
@171 = private unnamed_addr constant [11 x i8] c"cond.false\00", align 1
@172 = private unnamed_addr constant [9 x i8] c"cond.end\00", align 1
@173 = private unnamed_addr constant [6 x i8] c"entry\00", align 1
@174 = private unnamed_addr constant [6 x i8] c"entry\00", align 1
@175 = private unnamed_addr constant [6 x i8] c"entry\00", align 1
@176 = private unnamed_addr constant [6 x i8] c"entry\00", align 1
@177 = private unnamed_addr constant [6 x i8] c"entry\00", align 1
@178 = private unnamed_addr constant [12 x i8] c"invoke.cont\00", align 1
@179 = private unnamed_addr constant [13 x i8] c"invoke.cont2\00", align 1
@180 = private unnamed_addr constant [8 x i8] c"if.then\00", align 1
@181 = private unnamed_addr constant [13 x i8] c"invoke.cont3\00", align 1
@182 = private unnamed_addr constant [10 x i8] c"cond.true\00", align 1
@183 = private unnamed_addr constant [11 x i8] c"cond.false\00", align 1
@184 = private unnamed_addr constant [9 x i8] c"cond.end\00", align 1
@185 = private unnamed_addr constant [14 x i8] c"invoke.cont15\00", align 1
@186 = private unnamed_addr constant [14 x i8] c"invoke.cont17\00", align 1
@187 = private unnamed_addr constant [10 x i8] c"if.then21\00", align 1
@188 = private unnamed_addr constant [14 x i8] c"invoke.cont26\00", align 1
@189 = private unnamed_addr constant [5 x i8] c"lpad\00", align 1
@190 = private unnamed_addr constant [6 x i8] c"lpad1\00", align 1
@191 = private unnamed_addr constant [6 x i8] c"catch\00", align 1
@192 = private unnamed_addr constant [14 x i8] c"invoke.cont33\00", align 1
@193 = private unnamed_addr constant [9 x i8] c"try.cont\00", align 1
@194 = private unnamed_addr constant [7 x i8] c"if.end\00", align 1
@195 = private unnamed_addr constant [9 x i8] c"if.end27\00", align 1
@196 = private unnamed_addr constant [7 x i8] c"lpad32\00", align 1
@197 = private unnamed_addr constant [14 x i8] c"invoke.cont34\00", align 1
@198 = private unnamed_addr constant [10 x i8] c"eh.resume\00", align 1
@199 = private unnamed_addr constant [15 x i8] c"terminate.lpad\00", align 1
@200 = private unnamed_addr constant [6 x i8] c"entry\00", align 1
@201 = private unnamed_addr constant [6 x i8] c"entry\00", align 1
@202 = private unnamed_addr constant [8 x i8] c"if.then\00", align 1
@203 = private unnamed_addr constant [7 x i8] c"if.end\00", align 1
@204 = private unnamed_addr constant [9 x i8] c"if.then2\00", align 1
@205 = private unnamed_addr constant [8 x i8] c"if.else\00", align 1
@206 = private unnamed_addr constant [8 x i8] c"if.end3\00", align 1
@207 = private unnamed_addr constant [9 x i8] c"if.then8\00", align 1
@208 = private unnamed_addr constant [10 x i8] c"if.then12\00", align 1
@209 = private unnamed_addr constant [9 x i8] c"if.end14\00", align 1
@210 = private unnamed_addr constant [9 x i8] c"if.end15\00", align 1
@211 = private unnamed_addr constant [10 x i8] c"if.then17\00", align 1
@212 = private unnamed_addr constant [12 x i8] c"invoke.cont\00", align 1
@213 = private unnamed_addr constant [10 x i8] c"if.then22\00", align 1
@214 = private unnamed_addr constant [5 x i8] c"lpad\00", align 1
@215 = private unnamed_addr constant [9 x i8] c"if.end24\00", align 1
@216 = private unnamed_addr constant [8 x i8] c"cleanup\00", align 1
@217 = private unnamed_addr constant [13 x i8] c"cleanup.cont\00", align 1
@218 = private unnamed_addr constant [9 x i8] c"if.end25\00", align 1
@219 = private unnamed_addr constant [10 x i8] c"if.then30\00", align 1
@220 = private unnamed_addr constant [10 x i8] c"if.then34\00", align 1
@221 = private unnamed_addr constant [9 x i8] c"if.end36\00", align 1
@222 = private unnamed_addr constant [9 x i8] c"if.end37\00", align 1
@223 = private unnamed_addr constant [7 x i8] c"return\00", align 1
@224 = private unnamed_addr constant [10 x i8] c"eh.resume\00", align 1
@225 = private unnamed_addr constant [12 x i8] c"unreachable\00", align 1
@226 = private unnamed_addr constant [6 x i8] c"entry\00", align 1
@227 = private unnamed_addr constant [6 x i8] c"entry\00", align 1
@228 = private unnamed_addr constant [6 x i8] c"entry\00", align 1
@229 = private unnamed_addr constant [8 x i8] c"if.then\00", align 1
@230 = private unnamed_addr constant [7 x i8] c"if.end\00", align 1
@231 = private unnamed_addr constant [6 x i8] c"entry\00", align 1
@232 = private unnamed_addr constant [6 x i8] c"entry\00", align 1
@233 = private unnamed_addr constant [3 x i8] c"bb\00", align 1
@234 = private unnamed_addr constant [6 x i8] c"entry\00", align 1
@235 = private unnamed_addr constant [6 x i8] c"entry\00", align 1
@236 = private unnamed_addr constant [6 x i8] c"entry\00", align 1
@237 = private unnamed_addr constant [6 x i8] c"entry\00", align 1
@238 = private unnamed_addr constant [6 x i8] c"entry\00", align 1
@239 = private unnamed_addr constant [6 x i8] c"entry\00", align 1
@240 = private unnamed_addr constant [12 x i8] c"invoke.cont\00", align 1
@241 = private unnamed_addr constant [15 x i8] c"terminate.lpad\00", align 1
@242 = private unnamed_addr constant [6 x i8] c"entry\00", align 1
@243 = private unnamed_addr constant [6 x i8] c"entry\00", align 1
@244 = private unnamed_addr constant [6 x i8] c"entry\00", align 1
@245 = private unnamed_addr constant [6 x i8] c"entry\00", align 1
@246 = private unnamed_addr constant [6 x i8] c"entry\00", align 1
@247 = private unnamed_addr constant [12 x i8] c"invoke.cont\00", align 1
@248 = private unnamed_addr constant [13 x i8] c"invoke.cont2\00", align 1
@249 = private unnamed_addr constant [5 x i8] c"lpad\00", align 1
@250 = private unnamed_addr constant [10 x i8] c"eh.resume\00", align 1
@251 = private unnamed_addr constant [6 x i8] c"entry\00", align 1
@252 = private unnamed_addr constant [6 x i8] c"entry\00", align 1
@253 = private unnamed_addr constant [6 x i8] c"entry\00", align 1
@254 = private unnamed_addr constant [6 x i8] c"entry\00", align 1
@255 = private unnamed_addr constant [6 x i8] c"entry\00", align 1
@256 = private unnamed_addr constant [6 x i8] c"entry\00", align 1
@257 = private unnamed_addr constant [8 x i8] c"if.then\00", align 1
@258 = private unnamed_addr constant [7 x i8] c"if.end\00", align 1
@259 = private unnamed_addr constant [7 x i8] c"return\00", align 1
@260 = private unnamed_addr constant [6 x i8] c"entry\00", align 1
@261 = private unnamed_addr constant [12 x i8] c"invoke.cont\00", align 1
@262 = private unnamed_addr constant [13 x i8] c"invoke.cont3\00", align 1
@263 = private unnamed_addr constant [5 x i8] c"lpad\00", align 1
@264 = private unnamed_addr constant [6 x i8] c"lpad2\00", align 1
@265 = private unnamed_addr constant [10 x i8] c"ehcleanup\00", align 1
@266 = private unnamed_addr constant [10 x i8] c"eh.resume\00", align 1
@267 = private unnamed_addr constant [6 x i8] c"entry\00", align 1
@268 = private unnamed_addr constant [6 x i8] c"entry\00", align 1
@269 = private unnamed_addr constant [6 x i8] c"entry\00", align 1
@270 = private unnamed_addr constant [13 x i8] c"cast.notnull\00", align 1
@271 = private unnamed_addr constant [9 x i8] c"cast.end\00", align 1
@272 = private unnamed_addr constant [12 x i8] c"invoke.cont\00", align 1
@273 = private unnamed_addr constant [13 x i8] c"invoke.cont1\00", align 1
@274 = private unnamed_addr constant [5 x i8] c"lpad\00", align 1
@275 = private unnamed_addr constant [10 x i8] c"eh.resume\00", align 1
@276 = private unnamed_addr constant [6 x i8] c"entry\00", align 1
@277 = private unnamed_addr constant [12 x i8] c"invoke.cont\00", align 1
@278 = private unnamed_addr constant [13 x i8] c"invoke.cont7\00", align 1
@279 = private unnamed_addr constant [5 x i8] c"lpad\00", align 1
@280 = private unnamed_addr constant [6 x i8] c"lpad6\00", align 1
@281 = private unnamed_addr constant [10 x i8] c"ehcleanup\00", align 1
@282 = private unnamed_addr constant [10 x i8] c"eh.resume\00", align 1
@283 = private unnamed_addr constant [6 x i8] c"entry\00", align 1
@284 = private unnamed_addr constant [6 x i8] c"entry\00", align 1
@285 = private unnamed_addr constant [6 x i8] c"entry\00", align 1
@286 = private unnamed_addr constant [6 x i8] c"entry\00", align 1
@287 = private unnamed_addr constant [6 x i8] c"entry\00", align 1
@288 = private unnamed_addr constant [12 x i8] c"invoke.cont\00", align 1
@289 = private unnamed_addr constant [5 x i8] c"lpad\00", align 1
@290 = private unnamed_addr constant [10 x i8] c"eh.resume\00", align 1
@291 = private unnamed_addr constant [6 x i8] c"entry\00", align 1
@292 = private unnamed_addr constant [6 x i8] c"entry\00", align 1
@293 = private unnamed_addr constant [6 x i8] c"entry\00", align 1
@294 = private unnamed_addr constant [6 x i8] c"entry\00", align 1
@295 = private unnamed_addr constant [6 x i8] c"entry\00", align 1
@296 = private unnamed_addr constant [6 x i8] c"entry\00", align 1
@297 = private unnamed_addr constant [6 x i8] c"entry\00", align 1
@298 = private unnamed_addr constant [6 x i8] c"entry\00", align 1
@299 = private unnamed_addr constant [6 x i8] c"entry\00", align 1
@300 = private unnamed_addr constant [6 x i8] c"entry\00", align 1
@301 = private unnamed_addr constant [6 x i8] c"entry\00", align 1
@302 = private unnamed_addr constant [6 x i8] c"entry\00", align 1
@303 = private unnamed_addr constant [6 x i8] c"entry\00", align 1
@304 = private unnamed_addr constant [6 x i8] c"entry\00", align 1
@305 = private unnamed_addr constant [6 x i8] c"entry\00", align 1
@306 = private unnamed_addr constant [8 x i8] c"if.then\00", align 1
@307 = private unnamed_addr constant [7 x i8] c"if.end\00", align 1
@308 = private unnamed_addr constant [9 x i8] c"if.then5\00", align 1
@309 = private unnamed_addr constant [8 x i8] c"if.end6\00", align 1
@310 = private unnamed_addr constant [14 x i8] c"land.lhs.true\00", align 1
@311 = private unnamed_addr constant [10 x i8] c"if.then10\00", align 1
@312 = private unnamed_addr constant [9 x i8] c"if.end11\00", align 1
@313 = private unnamed_addr constant [10 x i8] c"cond.true\00", align 1
@314 = private unnamed_addr constant [11 x i8] c"cond.false\00", align 1
@315 = private unnamed_addr constant [9 x i8] c"cond.end\00", align 1
@316 = private unnamed_addr constant [6 x i8] c"sw.bb\00", align 1
@317 = private unnamed_addr constant [8 x i8] c"sw.bb16\00", align 1
@318 = private unnamed_addr constant [10 x i8] c"if.then18\00", align 1
@319 = private unnamed_addr constant [8 x i8] c"if.else\00", align 1
@320 = private unnamed_addr constant [9 x i8] c"if.end29\00", align 1
@321 = private unnamed_addr constant [8 x i8] c"sw.bb30\00", align 1
@322 = private unnamed_addr constant [11 x i8] c"sw.default\00", align 1
@323 = private unnamed_addr constant [10 x i8] c"sw.epilog\00", align 1
@324 = private unnamed_addr constant [14 x i8] c"lor.lhs.false\00", align 1
@325 = private unnamed_addr constant [10 x i8] c"if.then33\00", align 1
@326 = private unnamed_addr constant [9 x i8] c"if.end34\00", align 1
@327 = private unnamed_addr constant [10 x i8] c"if.then36\00", align 1
@328 = private unnamed_addr constant [16 x i8] c"land.lhs.true39\00", align 1
@329 = private unnamed_addr constant [10 x i8] c"if.then42\00", align 1
@330 = private unnamed_addr constant [9 x i8] c"if.end43\00", align 1
@331 = private unnamed_addr constant [16 x i8] c"land.lhs.true46\00", align 1
@332 = private unnamed_addr constant [10 x i8] c"if.then49\00", align 1
@333 = private unnamed_addr constant [9 x i8] c"if.end50\00", align 1
@334 = private unnamed_addr constant [9 x i8] c"if.end51\00", align 1
@335 = private unnamed_addr constant [10 x i8] c"if.then54\00", align 1
@336 = private unnamed_addr constant [9 x i8] c"if.end58\00", align 1
@337 = private unnamed_addr constant [10 x i8] c"if.then61\00", align 1
@338 = private unnamed_addr constant [9 x i8] c"if.end64\00", align 1
@339 = private unnamed_addr constant [7 x i8] c"return\00", align 1
@340 = private unnamed_addr constant [6 x i8] c"entry\00", align 1
@341 = private unnamed_addr constant [6 x i8] c"entry\00", align 1
@342 = private unnamed_addr constant [8 x i8] c"if.then\00", align 1
@343 = private unnamed_addr constant [7 x i8] c"if.end\00", align 1
@344 = private unnamed_addr constant [9 x i8] c"if.then4\00", align 1
@345 = private unnamed_addr constant [9 x i8] c"if.then8\00", align 1
@346 = private unnamed_addr constant [9 x i8] c"if.end12\00", align 1
@347 = private unnamed_addr constant [10 x i8] c"if.then16\00", align 1
@348 = private unnamed_addr constant [9 x i8] c"if.end19\00", align 1
@349 = private unnamed_addr constant [9 x i8] c"if.end20\00", align 1
@350 = private unnamed_addr constant [7 x i8] c"return\00", align 1
@351 = private unnamed_addr constant [6 x i8] c"entry\00", align 1
@352 = private unnamed_addr constant [8 x i8] c"if.then\00", align 1
@353 = private unnamed_addr constant [7 x i8] c"if.end\00", align 1
@354 = private unnamed_addr constant [9 x i8] c"if.then7\00", align 1
@355 = private unnamed_addr constant [10 x i8] c"if.then10\00", align 1
@356 = private unnamed_addr constant [9 x i8] c"if.end15\00", align 1
@357 = private unnamed_addr constant [14 x i8] c"lor.lhs.false\00", align 1
@358 = private unnamed_addr constant [10 x i8] c"if.then19\00", align 1
@359 = private unnamed_addr constant [9 x i8] c"if.end26\00", align 1
@360 = private unnamed_addr constant [9 x i8] c"if.end27\00", align 1
@361 = private unnamed_addr constant [7 x i8] c"return\00", align 1
@362 = private unnamed_addr constant [6 x i8] c"entry\00", align 1
@363 = private unnamed_addr constant [8 x i8] c"if.then\00", align 1
@364 = private unnamed_addr constant [9 x i8] c"if.then7\00", align 1
@365 = private unnamed_addr constant [9 x i8] c"if.then8\00", align 1
@366 = private unnamed_addr constant [7 x i8] c"if.end\00", align 1
@367 = private unnamed_addr constant [12 x i8] c"invoke.cont\00", align 1
@368 = private unnamed_addr constant [14 x i8] c"invoke.cont11\00", align 1
@369 = private unnamed_addr constant [14 x i8] c"invoke.cont16\00", align 1
@370 = private unnamed_addr constant [14 x i8] c"invoke.cont21\00", align 1
@371 = private unnamed_addr constant [14 x i8] c"invoke.cont25\00", align 1
@372 = private unnamed_addr constant [14 x i8] c"invoke.cont30\00", align 1
@373 = private unnamed_addr constant [14 x i8] c"invoke.cont31\00", align 1
@374 = private unnamed_addr constant [14 x i8] c"invoke.cont32\00", align 1
@375 = private unnamed_addr constant [5 x i8] c"lpad\00", align 1
@376 = private unnamed_addr constant [6 x i8] c"catch\00", align 1
@377 = private unnamed_addr constant [9 x i8] c"try.cont\00", align 1
@378 = private unnamed_addr constant [9 x i8] c"if.end37\00", align 1
@379 = private unnamed_addr constant [10 x i8] c"if.then46\00", align 1
@380 = private unnamed_addr constant [9 x i8] c"if.end52\00", align 1
@381 = private unnamed_addr constant [9 x i8] c"if.end54\00", align 1
@382 = private unnamed_addr constant [7 x i8] c"return\00", align 1
@383 = private unnamed_addr constant [6 x i8] c"entry\00", align 1
@384 = private unnamed_addr constant [12 x i8] c"invoke.cont\00", align 1
@385 = private unnamed_addr constant [15 x i8] c"terminate.lpad\00", align 1
@386 = private unnamed_addr constant [6 x i8] c"entry\00", align 1
@387 = private unnamed_addr constant [9 x i8] c"for.cond\00", align 1
@388 = private unnamed_addr constant [9 x i8] c"for.body\00", align 1
@389 = private unnamed_addr constant [8 x i8] c"for.inc\00", align 1
@390 = private unnamed_addr constant [8 x i8] c"for.end\00", align 1
@391 = private unnamed_addr constant [6 x i8] c"entry\00", align 1
@392 = private unnamed_addr constant [6 x i8] c"entry\00", align 1
@393 = private unnamed_addr constant [6 x i8] c"entry\00", align 1
@394 = private unnamed_addr constant [6 x i8] c"entry\00", align 1
@395 = private unnamed_addr constant [6 x i8] c"entry\00", align 1
@396 = private unnamed_addr constant [6 x i8] c"entry\00", align 1
@397 = private unnamed_addr constant [6 x i8] c"entry\00", align 1
@398 = private unnamed_addr constant [6 x i8] c"entry\00", align 1
@399 = private unnamed_addr constant [6 x i8] c"entry\00", align 1
@400 = private unnamed_addr constant [6 x i8] c"entry\00", align 1
@401 = private unnamed_addr constant [6 x i8] c"entry\00", align 1
@402 = private unnamed_addr constant [6 x i8] c"entry\00", align 1
@403 = private unnamed_addr constant [6 x i8] c"entry\00", align 1
@404 = private unnamed_addr constant [6 x i8] c"entry\00", align 1
@405 = private unnamed_addr constant [6 x i8] c"entry\00", align 1
@406 = private unnamed_addr constant [6 x i8] c"entry\00", align 1
@407 = private unnamed_addr constant [6 x i8] c"entry\00", align 1
@408 = private unnamed_addr constant [10 x i8] c"cond.true\00", align 1
@409 = private unnamed_addr constant [11 x i8] c"cond.false\00", align 1
@410 = private unnamed_addr constant [9 x i8] c"cond.end\00", align 1
@411 = private unnamed_addr constant [6 x i8] c"entry\00", align 1
@412 = private unnamed_addr constant [6 x i8] c"entry\00", align 1
@413 = private unnamed_addr constant [6 x i8] c"entry\00", align 1
@414 = private unnamed_addr constant [6 x i8] c"entry\00", align 1
@415 = private unnamed_addr constant [10 x i8] c"cond.true\00", align 1
@416 = private unnamed_addr constant [11 x i8] c"cond.false\00", align 1
@417 = private unnamed_addr constant [9 x i8] c"cond.end\00", align 1
@418 = private unnamed_addr constant [6 x i8] c"entry\00", align 1
@419 = private unnamed_addr constant [10 x i8] c"cond.true\00", align 1
@420 = private unnamed_addr constant [11 x i8] c"cond.false\00", align 1
@421 = private unnamed_addr constant [9 x i8] c"cond.end\00", align 1
@422 = private unnamed_addr constant [6 x i8] c"entry\00", align 1
@423 = private unnamed_addr constant [6 x i8] c"entry\00", align 1
@424 = private unnamed_addr constant [6 x i8] c"entry\00", align 1
@425 = private unnamed_addr constant [8 x i8] c"if.then\00", align 1
@426 = private unnamed_addr constant [7 x i8] c"if.end\00", align 1
@427 = private unnamed_addr constant [7 x i8] c"return\00", align 1
@428 = private unnamed_addr constant [6 x i8] c"entry\00", align 1
@429 = private unnamed_addr constant [6 x i8] c"entry\00", align 1
@430 = private unnamed_addr constant [6 x i8] c"entry\00", align 1
@431 = private unnamed_addr constant [6 x i8] c"entry\00", align 1
@432 = private unnamed_addr constant [10 x i8] c"cond.true\00", align 1
@433 = private unnamed_addr constant [11 x i8] c"cond.false\00", align 1
@434 = private unnamed_addr constant [9 x i8] c"cond.end\00", align 1
@435 = private unnamed_addr constant [6 x i8] c"entry\00", align 1
@436 = private unnamed_addr constant [6 x i8] c"entry\00", align 1
@437 = private unnamed_addr constant [6 x i8] c"entry\00", align 1
@438 = private unnamed_addr constant [6 x i8] c"entry\00", align 1
@439 = private unnamed_addr constant [6 x i8] c"entry\00", align 1
@440 = private unnamed_addr constant [6 x i8] c"entry\00", align 1
@441 = private unnamed_addr constant [6 x i8] c"entry\00", align 1
@442 = private unnamed_addr constant [8 x i8] c"if.then\00", align 1
@443 = private unnamed_addr constant [9 x i8] c"if.then2\00", align 1
@444 = private unnamed_addr constant [7 x i8] c"if.end\00", align 1
@445 = private unnamed_addr constant [8 x i8] c"if.else\00", align 1
@446 = private unnamed_addr constant [10 x i8] c"if.then10\00", align 1
@447 = private unnamed_addr constant [9 x i8] c"if.end16\00", align 1
@448 = private unnamed_addr constant [9 x i8] c"if.end17\00", align 1
@449 = private unnamed_addr constant [7 x i8] c"return\00", align 1
@450 = private unnamed_addr constant [6 x i8] c"entry\00", align 1
@451 = private unnamed_addr constant [6 x i8] c"entry\00", align 1
@452 = private unnamed_addr constant [6 x i8] c"entry\00", align 1
@453 = private unnamed_addr constant [6 x i8] c"entry\00", align 1
@454 = private unnamed_addr constant [6 x i8] c"entry\00", align 1
@455 = private unnamed_addr constant [6 x i8] c"entry\00", align 1
@456 = private unnamed_addr constant [6 x i8] c"entry\00", align 1
@457 = private unnamed_addr constant [6 x i8] c"entry\00", align 1
@458 = private unnamed_addr constant [6 x i8] c"entry\00", align 1
@459 = private unnamed_addr constant [8 x i8] c"if.then\00", align 1
@460 = private unnamed_addr constant [7 x i8] c"if.end\00", align 1
@461 = private unnamed_addr constant [9 x i8] c"if.then4\00", align 1
@462 = private unnamed_addr constant [8 x i8] c"if.else\00", align 1
@463 = private unnamed_addr constant [9 x i8] c"if.end10\00", align 1
@464 = private unnamed_addr constant [9 x i8] c"for.cond\00", align 1
@465 = private unnamed_addr constant [9 x i8] c"for.body\00", align 1
@466 = private unnamed_addr constant [8 x i8] c"for.inc\00", align 1
@467 = private unnamed_addr constant [8 x i8] c"for.end\00", align 1
@468 = private unnamed_addr constant [6 x i8] c"entry\00", align 1
@469 = private unnamed_addr constant [6 x i8] c"entry\00", align 1
@470 = private unnamed_addr constant [6 x i8] c"entry\00", align 1
@471 = private unnamed_addr constant [6 x i8] c"entry\00", align 1
@472 = private unnamed_addr constant [6 x i8] c"entry\00", align 1
@473 = private unnamed_addr constant [6 x i8] c"entry\00", align 1
@474 = private unnamed_addr constant [6 x i8] c"entry\00", align 1
@475 = private unnamed_addr constant [6 x i8] c"entry\00", align 1
@476 = private unnamed_addr constant [8 x i8] c"if.then\00", align 1
@477 = private unnamed_addr constant [7 x i8] c"if.end\00", align 1
@478 = private unnamed_addr constant [9 x i8] c"if.then2\00", align 1
@479 = private unnamed_addr constant [8 x i8] c"if.end3\00", align 1
@480 = private unnamed_addr constant [7 x i8] c"return\00", align 1
@481 = private unnamed_addr constant [6 x i8] c"entry\00", align 1
@482 = private unnamed_addr constant [6 x i8] c"entry\00", align 1
@483 = private unnamed_addr constant [6 x i8] c"entry\00", align 1
@484 = private unnamed_addr constant [6 x i8] c"entry\00", align 1
@485 = private unnamed_addr constant [6 x i8] c"entry\00", align 1
@486 = private unnamed_addr constant [6 x i8] c"entry\00", align 1
@487 = private unnamed_addr constant [6 x i8] c"entry\00", align 1
@488 = private unnamed_addr constant [6 x i8] c"entry\00", align 1
@489 = private unnamed_addr constant [6 x i8] c"entry\00", align 1
@490 = private unnamed_addr constant [6 x i8] c"entry\00", align 1
@491 = private unnamed_addr constant [6 x i8] c"entry\00", align 1
@492 = private unnamed_addr constant [6 x i8] c"entry\00", align 1
@493 = private unnamed_addr constant [6 x i8] c"entry\00", align 1
@494 = private unnamed_addr constant [6 x i8] c"entry\00", align 1
@495 = private unnamed_addr constant [8 x i8] c"if.then\00", align 1
@496 = private unnamed_addr constant [7 x i8] c"if.end\00", align 1
@497 = private unnamed_addr constant [6 x i8] c"entry\00", align 1
@498 = private unnamed_addr constant [12 x i8] c"invoke.cont\00", align 1
@499 = private unnamed_addr constant [5 x i8] c"lpad\00", align 1
@500 = private unnamed_addr constant [7 x i8] c"return\00", align 1
@501 = private unnamed_addr constant [10 x i8] c"eh.resume\00", align 1
@502 = private unnamed_addr constant [6 x i8] c"entry\00", align 1
@503 = private unnamed_addr constant [6 x i8] c"entry\00", align 1
@504 = private unnamed_addr constant [6 x i8] c"entry\00", align 1
@505 = private unnamed_addr constant [6 x i8] c"entry\00", align 1
@506 = private unnamed_addr constant [6 x i8] c"entry\00", align 1
@507 = private unnamed_addr constant [6 x i8] c"entry\00", align 1
@508 = private unnamed_addr constant [12 x i8] c"invoke.cont\00", align 1
@509 = private unnamed_addr constant [15 x i8] c"terminate.lpad\00", align 1
@510 = private unnamed_addr constant [6 x i8] c"entry\00", align 1
@511 = private unnamed_addr constant [6 x i8] c"entry\00", align 1

; Function Attrs: noinline ssp uwtable
define internal void @__cxx_global_var_init() #0 section "__TEXT,__StaticInit,regular,pure_instructions" personality i8* bitcast (i32 (...)* @__gxx_personality_v0 to i8*) {
entry:
  %agg.tmp___cxx_global_var_init = alloca %"struct.testing::internal::CodeLocation", align 8
  %ref.tmp___cxx_global_var_init = alloca %"class.std::__1::basic_string", align 8
  %exn.slot___cxx_global_var_init = alloca i8*
  %ehselector.slot___cxx_global_var_init = alloca i32
  call void @_ZNSt3__112basic_stringIcNS_11char_traitsIcEENS_9allocatorIcEEEC1IDnEEPKc(%"class.std::__1::basic_string"* %ref.tmp___cxx_global_var_init, i8* getelementptr inbounds ([9 x i8], [9 x i8]* @.str.3, i32 0, i32 0))
  invoke void @_ZN7testing8internal12CodeLocationC1ERKNSt3__112basic_stringIcNS2_11char_traitsIcEENS2_9allocatorIcEEEEi(%"struct.testing::internal::CodeLocation"* %agg.tmp___cxx_global_var_init, %"class.std::__1::basic_string"* dereferenceable(24) %ref.tmp___cxx_global_var_init, i32 8)
          to label %invoke.cont unwind label %lpad

invoke.cont:                                      ; preds = %entry
  %call___cxx_global_var_init = invoke i8* @_ZN7testing8internal13GetTestTypeIdEv()
          to label %invoke.cont2 unwind label %lpad1

invoke.cont2:                                     ; preds = %invoke.cont
  %call4___cxx_global_var_init = invoke void ()* @_ZN7testing8internal16SuiteApiResolverINS_4TestEE19GetSetUpCaseOrSuiteEPKci(i8* getelementptr inbounds ([9 x i8], [9 x i8]* @.str.3, i32 0, i32 0), i32 8)
          to label %invoke.cont3 unwind label %lpad1

invoke.cont3:                                     ; preds = %invoke.cont2
  %call6___cxx_global_var_init = invoke void ()* @_ZN7testing8internal16SuiteApiResolverINS_4TestEE22GetTearDownCaseOrSuiteEPKci(i8* getelementptr inbounds ([9 x i8], [9 x i8]* @.str.3, i32 0, i32 0), i32 8)
          to label %invoke.cont5 unwind label %lpad1

invoke.cont5:                                     ; preds = %invoke.cont3
  %call8___cxx_global_var_init = invoke i8* @_Znwm(i64 8) #14
          to label %invoke.cont7 unwind label %lpad1

invoke.cont7:                                     ; preds = %invoke.cont5
  %tmp___cxx_global_var_init = bitcast i8* %call8___cxx_global_var_init to %"class.testing::internal::TestFactoryImpl"*
  invoke void @_ZN7testing8internal15TestFactoryImplI14foo_test1_TestEC1Ev(%"class.testing::internal::TestFactoryImpl"* %tmp___cxx_global_var_init)
          to label %invoke.cont10 unwind label %lpad9

invoke.cont10:                                    ; preds = %invoke.cont7
  %tmp___cxx_global_var_init1 = bitcast %"class.testing::internal::TestFactoryImpl"* %tmp___cxx_global_var_init to %"class.testing::internal::TestFactoryBase"*
  %call12___cxx_global_var_init = invoke %"class.testing::TestInfo"* @_ZN7testing8internal23MakeAndRegisterTestInfoEPKcS2_S2_S2_NS0_12CodeLocationEPKvPFvvES7_PNS0_15TestFactoryBaseE(i8* getelementptr inbounds ([4 x i8], [4 x i8]* @.str.1, i32 0, i32 0), i8* getelementptr inbounds ([6 x i8], [6 x i8]* @.str.2, i32 0, i32 0), i8* null, i8* null, %"struct.testing::internal::CodeLocation"* %agg.tmp___cxx_global_var_init, i8* %call___cxx_global_var_init, void ()* %call4___cxx_global_var_init, void ()* %call6___cxx_global_var_init, %"class.testing::internal::TestFactoryBase"* %tmp___cxx_global_var_init1)
          to label %invoke.cont11 unwind label %lpad1

invoke.cont11:                                    ; preds = %invoke.cont10
  call void @_ZN7testing8internal12CodeLocationD1Ev(%"struct.testing::internal::CodeLocation"* %agg.tmp___cxx_global_var_init) #15
  call void @_ZNSt3__112basic_stringIcNS_11char_traitsIcEENS_9allocatorIcEEED1Ev(%"class.std::__1::basic_string"* %ref.tmp___cxx_global_var_init) #15
  store %"class.testing::TestInfo"* %call12___cxx_global_var_init, %"class.testing::TestInfo"** @_ZN14foo_test1_Test10test_info_E, align 8
  ret void

lpad:                                             ; preds = %entry
  %tmp___cxx_global_var_init2 = landingpad { i8*, i32 }
          cleanup
  %tmp___cxx_global_var_init3 = extractvalue { i8*, i32 } %tmp___cxx_global_var_init2, 0
  store i8* %tmp___cxx_global_var_init3, i8** %exn.slot___cxx_global_var_init, align 8
  %tmp___cxx_global_var_init4 = extractvalue { i8*, i32 } %tmp___cxx_global_var_init2, 1
  store i32 %tmp___cxx_global_var_init4, i32* %ehselector.slot___cxx_global_var_init, align 4
  br label %ehcleanup13

lpad1:                                            ; preds = %invoke.cont10, %invoke.cont5, %invoke.cont3, %invoke.cont2, %invoke.cont
  %tmp___cxx_global_var_init5 = landingpad { i8*, i32 }
          cleanup
  %tmp___cxx_global_var_init6 = extractvalue { i8*, i32 } %tmp___cxx_global_var_init5, 0
  store i8* %tmp___cxx_global_var_init6, i8** %exn.slot___cxx_global_var_init, align 8
  %tmp___cxx_global_var_init7 = extractvalue { i8*, i32 } %tmp___cxx_global_var_init5, 1
  store i32 %tmp___cxx_global_var_init7, i32* %ehselector.slot___cxx_global_var_init, align 4
  br label %ehcleanup

lpad9:                                            ; preds = %invoke.cont7
  %tmp___cxx_global_var_init8 = landingpad { i8*, i32 }
          cleanup
  %tmp___cxx_global_var_init9 = extractvalue { i8*, i32 } %tmp___cxx_global_var_init8, 0
  store i8* %tmp___cxx_global_var_init9, i8** %exn.slot___cxx_global_var_init, align 8
  %tmp___cxx_global_var_init10 = extractvalue { i8*, i32 } %tmp___cxx_global_var_init8, 1
  store i32 %tmp___cxx_global_var_init10, i32* %ehselector.slot___cxx_global_var_init, align 4
  call void @_ZdlPv(i8* %call8___cxx_global_var_init) #16
  br label %ehcleanup

ehcleanup:                                        ; preds = %lpad9, %lpad1
  call void @_ZN7testing8internal12CodeLocationD1Ev(%"struct.testing::internal::CodeLocation"* %agg.tmp___cxx_global_var_init) #15
  br label %ehcleanup13

ehcleanup13:                                      ; preds = %ehcleanup, %lpad
  call void @_ZNSt3__112basic_stringIcNS_11char_traitsIcEENS_9allocatorIcEEED1Ev(%"class.std::__1::basic_string"* %ref.tmp___cxx_global_var_init) #15
  br label %eh.resume

eh.resume:                                        ; preds = %ehcleanup13
  %exn___cxx_global_var_init = load i8*, i8** %exn.slot___cxx_global_var_init, align 8
  %sel___cxx_global_var_init = load i32, i32* %ehselector.slot___cxx_global_var_init, align 4
  %lpad.val___cxx_global_var_init = insertvalue { i8*, i32 } undef, i8* %exn___cxx_global_var_init, 0
  %lpad.val14___cxx_global_var_init = insertvalue { i8*, i32 } %lpad.val___cxx_global_var_init, i32 %sel___cxx_global_var_init, 1
  resume { i8*, i32 } %lpad.val14___cxx_global_var_init
}

declare %"class.testing::TestInfo"* @_ZN7testing8internal23MakeAndRegisterTestInfoEPKcS2_S2_S2_NS0_12CodeLocationEPKvPFvvES7_PNS0_15TestFactoryBaseE(i8*, i8*, i8*, i8*, %"struct.testing::internal::CodeLocation"*, i8*, void ()*, void ()*, %"class.testing::internal::TestFactoryBase"*) #1

; Function Attrs: noinline optnone ssp uwtable
define internal void @_ZNSt3__112basic_stringIcNS_11char_traitsIcEENS_9allocatorIcEEEC1IDnEEPKc(%"class.std::__1::basic_string"* %this, i8* %__s) unnamed_addr #2 align 2 {
entry:
  %this.addr__ZNSt3__112basic_stringIcNS_11char_traitsIcEENS_9allocatorIcEEEC1IDnEEPKc = alloca %"class.std::__1::basic_string"*, align 8
  %__s.addr__ZNSt3__112basic_stringIcNS_11char_traitsIcEENS_9allocatorIcEEEC1IDnEEPKc = alloca i8*, align 8
  store %"class.std::__1::basic_string"* %this, %"class.std::__1::basic_string"** %this.addr__ZNSt3__112basic_stringIcNS_11char_traitsIcEENS_9allocatorIcEEEC1IDnEEPKc, align 8
  store i8* %__s, i8** %__s.addr__ZNSt3__112basic_stringIcNS_11char_traitsIcEENS_9allocatorIcEEEC1IDnEEPKc, align 8
  %this1__ZNSt3__112basic_stringIcNS_11char_traitsIcEENS_9allocatorIcEEEC1IDnEEPKc = load %"class.std::__1::basic_string"*, %"class.std::__1::basic_string"** %this.addr__ZNSt3__112basic_stringIcNS_11char_traitsIcEENS_9allocatorIcEEEC1IDnEEPKc, align 8
  %tmp__ZNSt3__112basic_stringIcNS_11char_traitsIcEENS_9allocatorIcEEEC1IDnEEPKc = load i8*, i8** %__s.addr__ZNSt3__112basic_stringIcNS_11char_traitsIcEENS_9allocatorIcEEEC1IDnEEPKc, align 8
  call void @_ZNSt3__112basic_stringIcNS_11char_traitsIcEENS_9allocatorIcEEEC2IDnEEPKc(%"class.std::__1::basic_string"* %this1__ZNSt3__112basic_stringIcNS_11char_traitsIcEENS_9allocatorIcEEEC1IDnEEPKc, i8* %tmp__ZNSt3__112basic_stringIcNS_11char_traitsIcEENS_9allocatorIcEEEC1IDnEEPKc)
  ret void
}

; Function Attrs: noinline optnone ssp uwtable
define linkonce_odr void @_ZN7testing8internal12CodeLocationC1ERKNSt3__112basic_stringIcNS2_11char_traitsIcEENS2_9allocatorIcEEEEi(%"struct.testing::internal::CodeLocation"* %this, %"class.std::__1::basic_string"* dereferenceable(24) %a_file, i32 %a_line) unnamed_addr #2 align 2 {
entry:
  %this.addr__ZN7testing8internal12CodeLocationC1ERKNSt3__112basic_stringIcNS2_11char_traitsIcEENS2_9allocatorIcEEEEi = alloca %"struct.testing::internal::CodeLocation"*, align 8
  %a_file.addr__ZN7testing8internal12CodeLocationC1ERKNSt3__112basic_stringIcNS2_11char_traitsIcEENS2_9allocatorIcEEEEi = alloca %"class.std::__1::basic_string"*, align 8
  %a_line.addr__ZN7testing8internal12CodeLocationC1ERKNSt3__112basic_stringIcNS2_11char_traitsIcEENS2_9allocatorIcEEEEi = alloca i32, align 4
  store %"struct.testing::internal::CodeLocation"* %this, %"struct.testing::internal::CodeLocation"** %this.addr__ZN7testing8internal12CodeLocationC1ERKNSt3__112basic_stringIcNS2_11char_traitsIcEENS2_9allocatorIcEEEEi, align 8
  store %"class.std::__1::basic_string"* %a_file, %"class.std::__1::basic_string"** %a_file.addr__ZN7testing8internal12CodeLocationC1ERKNSt3__112basic_stringIcNS2_11char_traitsIcEENS2_9allocatorIcEEEEi, align 8
  store i32 %a_line, i32* %a_line.addr__ZN7testing8internal12CodeLocationC1ERKNSt3__112basic_stringIcNS2_11char_traitsIcEENS2_9allocatorIcEEEEi, align 4
  %this1__ZN7testing8internal12CodeLocationC1ERKNSt3__112basic_stringIcNS2_11char_traitsIcEENS2_9allocatorIcEEEEi = load %"struct.testing::internal::CodeLocation"*, %"struct.testing::internal::CodeLocation"** %this.addr__ZN7testing8internal12CodeLocationC1ERKNSt3__112basic_stringIcNS2_11char_traitsIcEENS2_9allocatorIcEEEEi, align 8
  %tmp__ZN7testing8internal12CodeLocationC1ERKNSt3__112basic_stringIcNS2_11char_traitsIcEENS2_9allocatorIcEEEEi = load %"class.std::__1::basic_string"*, %"class.std::__1::basic_string"** %a_file.addr__ZN7testing8internal12CodeLocationC1ERKNSt3__112basic_stringIcNS2_11char_traitsIcEENS2_9allocatorIcEEEEi, align 8
  %tmp__ZN7testing8internal12CodeLocationC1ERKNSt3__112basic_stringIcNS2_11char_traitsIcEENS2_9allocatorIcEEEEi1 = load i32, i32* %a_line.addr__ZN7testing8internal12CodeLocationC1ERKNSt3__112basic_stringIcNS2_11char_traitsIcEENS2_9allocatorIcEEEEi, align 4
  call void @_ZN7testing8internal12CodeLocationC2ERKNSt3__112basic_stringIcNS2_11char_traitsIcEENS2_9allocatorIcEEEEi(%"struct.testing::internal::CodeLocation"* %this1__ZN7testing8internal12CodeLocationC1ERKNSt3__112basic_stringIcNS2_11char_traitsIcEENS2_9allocatorIcEEEEi, %"class.std::__1::basic_string"* dereferenceable(24) %tmp__ZN7testing8internal12CodeLocationC1ERKNSt3__112basic_stringIcNS2_11char_traitsIcEENS2_9allocatorIcEEEEi, i32 %tmp__ZN7testing8internal12CodeLocationC1ERKNSt3__112basic_stringIcNS2_11char_traitsIcEENS2_9allocatorIcEEEEi1)
  ret void
}

declare i32 @__gxx_personality_v0(...)

declare i8* @_ZN7testing8internal13GetTestTypeIdEv() #1

; Function Attrs: noinline optnone ssp uwtable
define linkonce_odr void ()* @_ZN7testing8internal16SuiteApiResolverINS_4TestEE19GetSetUpCaseOrSuiteEPKci(i8* %filename, i32 %line_num) #2 align 2 personality i8* bitcast (i32 (...)* @__gxx_personality_v0 to i8*) {
entry:
  %filename.addr__ZN7testing8internal16SuiteApiResolverINS_4TestEE19GetSetUpCaseOrSuiteEPKci = alloca i8*, align 8
  %line_num.addr__ZN7testing8internal16SuiteApiResolverINS_4TestEE19GetSetUpCaseOrSuiteEPKci = alloca i32, align 4
  %test_case_fp__ZN7testing8internal16SuiteApiResolverINS_4TestEE19GetSetUpCaseOrSuiteEPKci = alloca void ()*, align 8
  %test_suite_fp__ZN7testing8internal16SuiteApiResolverINS_4TestEE19GetSetUpCaseOrSuiteEPKci = alloca void ()*, align 8
  %ref.tmp__ZN7testing8internal16SuiteApiResolverINS_4TestEE19GetSetUpCaseOrSuiteEPKci = alloca %"class.testing::internal::GTestLog", align 4
  %exn.slot__ZN7testing8internal16SuiteApiResolverINS_4TestEE19GetSetUpCaseOrSuiteEPKci = alloca i8*
  %ehselector.slot__ZN7testing8internal16SuiteApiResolverINS_4TestEE19GetSetUpCaseOrSuiteEPKci = alloca i32
  store i8* %filename, i8** %filename.addr__ZN7testing8internal16SuiteApiResolverINS_4TestEE19GetSetUpCaseOrSuiteEPKci, align 8
  store i32 %line_num, i32* %line_num.addr__ZN7testing8internal16SuiteApiResolverINS_4TestEE19GetSetUpCaseOrSuiteEPKci, align 4
  %call__ZN7testing8internal16SuiteApiResolverINS_4TestEE19GetSetUpCaseOrSuiteEPKci = call void ()* @_ZN7testing8internal19GetNotDefaultOrNullEPFvvES2_(void ()* @_ZN7testing4Test13SetUpTestCaseEv, void ()* @_ZN7testing4Test13SetUpTestCaseEv)
  store void ()* %call__ZN7testing8internal16SuiteApiResolverINS_4TestEE19GetSetUpCaseOrSuiteEPKci, void ()** %test_case_fp__ZN7testing8internal16SuiteApiResolverINS_4TestEE19GetSetUpCaseOrSuiteEPKci, align 8
  %call1__ZN7testing8internal16SuiteApiResolverINS_4TestEE19GetSetUpCaseOrSuiteEPKci = call void ()* @_ZN7testing8internal19GetNotDefaultOrNullEPFvvES2_(void ()* @_ZN7testing4Test14SetUpTestSuiteEv, void ()* @_ZN7testing4Test14SetUpTestSuiteEv)
  store void ()* %call1__ZN7testing8internal16SuiteApiResolverINS_4TestEE19GetSetUpCaseOrSuiteEPKci, void ()** %test_suite_fp__ZN7testing8internal16SuiteApiResolverINS_4TestEE19GetSetUpCaseOrSuiteEPKci, align 8
  %tmp__ZN7testing8internal16SuiteApiResolverINS_4TestEE19GetSetUpCaseOrSuiteEPKci = load void ()*, void ()** %test_case_fp__ZN7testing8internal16SuiteApiResolverINS_4TestEE19GetSetUpCaseOrSuiteEPKci, align 8
  %tobool__ZN7testing8internal16SuiteApiResolverINS_4TestEE19GetSetUpCaseOrSuiteEPKci = icmp ne void ()* %tmp__ZN7testing8internal16SuiteApiResolverINS_4TestEE19GetSetUpCaseOrSuiteEPKci, null
  br i1 %tobool__ZN7testing8internal16SuiteApiResolverINS_4TestEE19GetSetUpCaseOrSuiteEPKci, label %lor.rhs, label %lor.end

lor.rhs:                                          ; preds = %entry
  %tmp__ZN7testing8internal16SuiteApiResolverINS_4TestEE19GetSetUpCaseOrSuiteEPKci1 = load void ()*, void ()** %test_suite_fp__ZN7testing8internal16SuiteApiResolverINS_4TestEE19GetSetUpCaseOrSuiteEPKci, align 8
  %tobool2__ZN7testing8internal16SuiteApiResolverINS_4TestEE19GetSetUpCaseOrSuiteEPKci = icmp ne void ()* %tmp__ZN7testing8internal16SuiteApiResolverINS_4TestEE19GetSetUpCaseOrSuiteEPKci1, null
  %lnot__ZN7testing8internal16SuiteApiResolverINS_4TestEE19GetSetUpCaseOrSuiteEPKci = xor i1 %tobool2__ZN7testing8internal16SuiteApiResolverINS_4TestEE19GetSetUpCaseOrSuiteEPKci, true
  br label %lor.end

lor.end:                                          ; preds = %lor.rhs, %entry
  %tmp__ZN7testing8internal16SuiteApiResolverINS_4TestEE19GetSetUpCaseOrSuiteEPKci2 = phi i1 [ true, %entry ], [ %lnot__ZN7testing8internal16SuiteApiResolverINS_4TestEE19GetSetUpCaseOrSuiteEPKci, %lor.rhs ]
  %call3__ZN7testing8internal16SuiteApiResolverINS_4TestEE19GetSetUpCaseOrSuiteEPKci = call zeroext i1 @_ZN7testing8internal6IsTrueEb(i1 zeroext %tmp__ZN7testing8internal16SuiteApiResolverINS_4TestEE19GetSetUpCaseOrSuiteEPKci2)
  br i1 %call3__ZN7testing8internal16SuiteApiResolverINS_4TestEE19GetSetUpCaseOrSuiteEPKci, label %if.then, label %if.else

if.then:                                          ; preds = %lor.end
  br label %if.end

if.else:                                          ; preds = %lor.end
  call void @_ZN7testing8internal8GTestLogC1ENS0_16GTestLogSeverityEPKci(%"class.testing::internal::GTestLog"* %ref.tmp__ZN7testing8internal16SuiteApiResolverINS_4TestEE19GetSetUpCaseOrSuiteEPKci, i32 3, i8* getelementptr inbounds ([51 x i8], [51 x i8]* @.str.9, i32 0, i32 0), i32 516)
  %call4__ZN7testing8internal16SuiteApiResolverINS_4TestEE19GetSetUpCaseOrSuiteEPKci = invoke dereferenceable(160) %"class.std::__1::basic_ostream"* @_ZN7testing8internal8GTestLog9GetStreamEv(%"class.testing::internal::GTestLog"* %ref.tmp__ZN7testing8internal16SuiteApiResolverINS_4TestEE19GetSetUpCaseOrSuiteEPKci)
          to label %invoke.cont unwind label %lpad

invoke.cont:                                      ; preds = %if.else
  %call6__ZN7testing8internal16SuiteApiResolverINS_4TestEE19GetSetUpCaseOrSuiteEPKci = invoke dereferenceable(160) %"class.std::__1::basic_ostream"* @_ZNSt3__1lsINS_11char_traitsIcEEEERNS_13basic_ostreamIcT_EES6_PKc(%"class.std::__1::basic_ostream"* dereferenceable(160) %call4__ZN7testing8internal16SuiteApiResolverINS_4TestEE19GetSetUpCaseOrSuiteEPKci, i8* getelementptr inbounds ([51 x i8], [51 x i8]* @.str.10, i32 0, i32 0))
          to label %invoke.cont5 unwind label %lpad

invoke.cont5:                                     ; preds = %invoke.cont
  %call8__ZN7testing8internal16SuiteApiResolverINS_4TestEE19GetSetUpCaseOrSuiteEPKci = invoke dereferenceable(160) %"class.std::__1::basic_ostream"* @_ZNSt3__1lsINS_11char_traitsIcEEEERNS_13basic_ostreamIcT_EES6_PKc(%"class.std::__1::basic_ostream"* dereferenceable(160) %call6__ZN7testing8internal16SuiteApiResolverINS_4TestEE19GetSetUpCaseOrSuiteEPKci, i8* getelementptr inbounds ([107 x i8], [107 x i8]* @.str.11, i32 0, i32 0))
          to label %invoke.cont7 unwind label %lpad

invoke.cont7:                                     ; preds = %invoke.cont5
  %tmp__ZN7testing8internal16SuiteApiResolverINS_4TestEE19GetSetUpCaseOrSuiteEPKci3 = load i8*, i8** %filename.addr__ZN7testing8internal16SuiteApiResolverINS_4TestEE19GetSetUpCaseOrSuiteEPKci, align 8
  %call10__ZN7testing8internal16SuiteApiResolverINS_4TestEE19GetSetUpCaseOrSuiteEPKci = invoke dereferenceable(160) %"class.std::__1::basic_ostream"* @_ZNSt3__1lsINS_11char_traitsIcEEEERNS_13basic_ostreamIcT_EES6_PKc(%"class.std::__1::basic_ostream"* dereferenceable(160) %call8__ZN7testing8internal16SuiteApiResolverINS_4TestEE19GetSetUpCaseOrSuiteEPKci, i8* %tmp__ZN7testing8internal16SuiteApiResolverINS_4TestEE19GetSetUpCaseOrSuiteEPKci3)
          to label %invoke.cont9 unwind label %lpad

invoke.cont9:                                     ; preds = %invoke.cont7
  %call12__ZN7testing8internal16SuiteApiResolverINS_4TestEE19GetSetUpCaseOrSuiteEPKci = invoke dereferenceable(160) %"class.std::__1::basic_ostream"* @_ZNSt3__1lsINS_11char_traitsIcEEEERNS_13basic_ostreamIcT_EES6_PKc(%"class.std::__1::basic_ostream"* dereferenceable(160) %call10__ZN7testing8internal16SuiteApiResolverINS_4TestEE19GetSetUpCaseOrSuiteEPKci, i8* getelementptr inbounds ([2 x i8], [2 x i8]* @.str.12, i32 0, i32 0))
          to label %invoke.cont11 unwind label %lpad

invoke.cont11:                                    ; preds = %invoke.cont9
  %tmp__ZN7testing8internal16SuiteApiResolverINS_4TestEE19GetSetUpCaseOrSuiteEPKci4 = load i32, i32* %line_num.addr__ZN7testing8internal16SuiteApiResolverINS_4TestEE19GetSetUpCaseOrSuiteEPKci, align 4
  %call14__ZN7testing8internal16SuiteApiResolverINS_4TestEE19GetSetUpCaseOrSuiteEPKci = invoke dereferenceable(160) %"class.std::__1::basic_ostream"* @_ZNSt3__113basic_ostreamIcNS_11char_traitsIcEEElsEi(%"class.std::__1::basic_ostream"* %call12__ZN7testing8internal16SuiteApiResolverINS_4TestEE19GetSetUpCaseOrSuiteEPKci, i32 %tmp__ZN7testing8internal16SuiteApiResolverINS_4TestEE19GetSetUpCaseOrSuiteEPKci4)
          to label %invoke.cont13 unwind label %lpad

invoke.cont13:                                    ; preds = %invoke.cont11
  call void @_ZN7testing8internal8GTestLogD1Ev(%"class.testing::internal::GTestLog"* %ref.tmp__ZN7testing8internal16SuiteApiResolverINS_4TestEE19GetSetUpCaseOrSuiteEPKci) #15
  br label %if.end

lpad:                                             ; preds = %invoke.cont11, %invoke.cont9, %invoke.cont7, %invoke.cont5, %invoke.cont, %if.else
  %tmp__ZN7testing8internal16SuiteApiResolverINS_4TestEE19GetSetUpCaseOrSuiteEPKci5 = landingpad { i8*, i32 }
          cleanup
  %tmp__ZN7testing8internal16SuiteApiResolverINS_4TestEE19GetSetUpCaseOrSuiteEPKci6 = extractvalue { i8*, i32 } %tmp__ZN7testing8internal16SuiteApiResolverINS_4TestEE19GetSetUpCaseOrSuiteEPKci5, 0
  store i8* %tmp__ZN7testing8internal16SuiteApiResolverINS_4TestEE19GetSetUpCaseOrSuiteEPKci6, i8** %exn.slot__ZN7testing8internal16SuiteApiResolverINS_4TestEE19GetSetUpCaseOrSuiteEPKci, align 8
  %tmp__ZN7testing8internal16SuiteApiResolverINS_4TestEE19GetSetUpCaseOrSuiteEPKci7 = extractvalue { i8*, i32 } %tmp__ZN7testing8internal16SuiteApiResolverINS_4TestEE19GetSetUpCaseOrSuiteEPKci5, 1
  store i32 %tmp__ZN7testing8internal16SuiteApiResolverINS_4TestEE19GetSetUpCaseOrSuiteEPKci7, i32* %ehselector.slot__ZN7testing8internal16SuiteApiResolverINS_4TestEE19GetSetUpCaseOrSuiteEPKci, align 4
  call void @_ZN7testing8internal8GTestLogD1Ev(%"class.testing::internal::GTestLog"* %ref.tmp__ZN7testing8internal16SuiteApiResolverINS_4TestEE19GetSetUpCaseOrSuiteEPKci) #15
  br label %eh.resume

if.end:                                           ; preds = %invoke.cont13, %if.then
  %tmp__ZN7testing8internal16SuiteApiResolverINS_4TestEE19GetSetUpCaseOrSuiteEPKci8 = load void ()*, void ()** %test_case_fp__ZN7testing8internal16SuiteApiResolverINS_4TestEE19GetSetUpCaseOrSuiteEPKci, align 8
  %cmp__ZN7testing8internal16SuiteApiResolverINS_4TestEE19GetSetUpCaseOrSuiteEPKci = icmp ne void ()* %tmp__ZN7testing8internal16SuiteApiResolverINS_4TestEE19GetSetUpCaseOrSuiteEPKci8, null
  br i1 %cmp__ZN7testing8internal16SuiteApiResolverINS_4TestEE19GetSetUpCaseOrSuiteEPKci, label %cond.true, label %cond.false

cond.true:                                        ; preds = %if.end
  %tmp__ZN7testing8internal16SuiteApiResolverINS_4TestEE19GetSetUpCaseOrSuiteEPKci9 = load void ()*, void ()** %test_case_fp__ZN7testing8internal16SuiteApiResolverINS_4TestEE19GetSetUpCaseOrSuiteEPKci, align 8
  br label %cond.end

cond.false:                                       ; preds = %if.end
  %tmp__ZN7testing8internal16SuiteApiResolverINS_4TestEE19GetSetUpCaseOrSuiteEPKci10 = load void ()*, void ()** %test_suite_fp__ZN7testing8internal16SuiteApiResolverINS_4TestEE19GetSetUpCaseOrSuiteEPKci, align 8
  br label %cond.end

cond.end:                                         ; preds = %cond.false, %cond.true
  %cond__ZN7testing8internal16SuiteApiResolverINS_4TestEE19GetSetUpCaseOrSuiteEPKci = phi void ()* [ %tmp__ZN7testing8internal16SuiteApiResolverINS_4TestEE19GetSetUpCaseOrSuiteEPKci9, %cond.true ], [ %tmp__ZN7testing8internal16SuiteApiResolverINS_4TestEE19GetSetUpCaseOrSuiteEPKci10, %cond.false ]
  ret void ()* %cond__ZN7testing8internal16SuiteApiResolverINS_4TestEE19GetSetUpCaseOrSuiteEPKci

eh.resume:                                        ; preds = %lpad
  %exn__ZN7testing8internal16SuiteApiResolverINS_4TestEE19GetSetUpCaseOrSuiteEPKci = load i8*, i8** %exn.slot__ZN7testing8internal16SuiteApiResolverINS_4TestEE19GetSetUpCaseOrSuiteEPKci, align 8
  %sel__ZN7testing8internal16SuiteApiResolverINS_4TestEE19GetSetUpCaseOrSuiteEPKci = load i32, i32* %ehselector.slot__ZN7testing8internal16SuiteApiResolverINS_4TestEE19GetSetUpCaseOrSuiteEPKci, align 4
  %lpad.val__ZN7testing8internal16SuiteApiResolverINS_4TestEE19GetSetUpCaseOrSuiteEPKci = insertvalue { i8*, i32 } undef, i8* %exn__ZN7testing8internal16SuiteApiResolverINS_4TestEE19GetSetUpCaseOrSuiteEPKci, 0
  %lpad.val15__ZN7testing8internal16SuiteApiResolverINS_4TestEE19GetSetUpCaseOrSuiteEPKci = insertvalue { i8*, i32 } %lpad.val__ZN7testing8internal16SuiteApiResolverINS_4TestEE19GetSetUpCaseOrSuiteEPKci, i32 %sel__ZN7testing8internal16SuiteApiResolverINS_4TestEE19GetSetUpCaseOrSuiteEPKci, 1
  resume { i8*, i32 } %lpad.val15__ZN7testing8internal16SuiteApiResolverINS_4TestEE19GetSetUpCaseOrSuiteEPKci
}

; Function Attrs: noinline optnone ssp uwtable
define linkonce_odr void ()* @_ZN7testing8internal16SuiteApiResolverINS_4TestEE22GetTearDownCaseOrSuiteEPKci(i8* %filename, i32 %line_num) #2 align 2 personality i8* bitcast (i32 (...)* @__gxx_personality_v0 to i8*) {
entry:
  %filename.addr__ZN7testing8internal16SuiteApiResolverINS_4TestEE22GetTearDownCaseOrSuiteEPKci = alloca i8*, align 8
  %line_num.addr__ZN7testing8internal16SuiteApiResolverINS_4TestEE22GetTearDownCaseOrSuiteEPKci = alloca i32, align 4
  %test_case_fp__ZN7testing8internal16SuiteApiResolverINS_4TestEE22GetTearDownCaseOrSuiteEPKci = alloca void ()*, align 8
  %test_suite_fp__ZN7testing8internal16SuiteApiResolverINS_4TestEE22GetTearDownCaseOrSuiteEPKci = alloca void ()*, align 8
  %ref.tmp__ZN7testing8internal16SuiteApiResolverINS_4TestEE22GetTearDownCaseOrSuiteEPKci = alloca %"class.testing::internal::GTestLog", align 4
  %exn.slot__ZN7testing8internal16SuiteApiResolverINS_4TestEE22GetTearDownCaseOrSuiteEPKci = alloca i8*
  %ehselector.slot__ZN7testing8internal16SuiteApiResolverINS_4TestEE22GetTearDownCaseOrSuiteEPKci = alloca i32
  store i8* %filename, i8** %filename.addr__ZN7testing8internal16SuiteApiResolverINS_4TestEE22GetTearDownCaseOrSuiteEPKci, align 8
  store i32 %line_num, i32* %line_num.addr__ZN7testing8internal16SuiteApiResolverINS_4TestEE22GetTearDownCaseOrSuiteEPKci, align 4
  %call__ZN7testing8internal16SuiteApiResolverINS_4TestEE22GetTearDownCaseOrSuiteEPKci = call void ()* @_ZN7testing8internal19GetNotDefaultOrNullEPFvvES2_(void ()* @_ZN7testing4Test16TearDownTestCaseEv, void ()* @_ZN7testing4Test16TearDownTestCaseEv)
  store void ()* %call__ZN7testing8internal16SuiteApiResolverINS_4TestEE22GetTearDownCaseOrSuiteEPKci, void ()** %test_case_fp__ZN7testing8internal16SuiteApiResolverINS_4TestEE22GetTearDownCaseOrSuiteEPKci, align 8
  %call1__ZN7testing8internal16SuiteApiResolverINS_4TestEE22GetTearDownCaseOrSuiteEPKci = call void ()* @_ZN7testing8internal19GetNotDefaultOrNullEPFvvES2_(void ()* @_ZN7testing4Test17TearDownTestSuiteEv, void ()* @_ZN7testing4Test17TearDownTestSuiteEv)
  store void ()* %call1__ZN7testing8internal16SuiteApiResolverINS_4TestEE22GetTearDownCaseOrSuiteEPKci, void ()** %test_suite_fp__ZN7testing8internal16SuiteApiResolverINS_4TestEE22GetTearDownCaseOrSuiteEPKci, align 8
  %tmp__ZN7testing8internal16SuiteApiResolverINS_4TestEE22GetTearDownCaseOrSuiteEPKci = load void ()*, void ()** %test_case_fp__ZN7testing8internal16SuiteApiResolverINS_4TestEE22GetTearDownCaseOrSuiteEPKci, align 8
  %tobool__ZN7testing8internal16SuiteApiResolverINS_4TestEE22GetTearDownCaseOrSuiteEPKci = icmp ne void ()* %tmp__ZN7testing8internal16SuiteApiResolverINS_4TestEE22GetTearDownCaseOrSuiteEPKci, null
  br i1 %tobool__ZN7testing8internal16SuiteApiResolverINS_4TestEE22GetTearDownCaseOrSuiteEPKci, label %lor.rhs, label %lor.end

lor.rhs:                                          ; preds = %entry
  %tmp__ZN7testing8internal16SuiteApiResolverINS_4TestEE22GetTearDownCaseOrSuiteEPKci1 = load void ()*, void ()** %test_suite_fp__ZN7testing8internal16SuiteApiResolverINS_4TestEE22GetTearDownCaseOrSuiteEPKci, align 8
  %tobool2__ZN7testing8internal16SuiteApiResolverINS_4TestEE22GetTearDownCaseOrSuiteEPKci = icmp ne void ()* %tmp__ZN7testing8internal16SuiteApiResolverINS_4TestEE22GetTearDownCaseOrSuiteEPKci1, null
  %lnot__ZN7testing8internal16SuiteApiResolverINS_4TestEE22GetTearDownCaseOrSuiteEPKci = xor i1 %tobool2__ZN7testing8internal16SuiteApiResolverINS_4TestEE22GetTearDownCaseOrSuiteEPKci, true
  br label %lor.end

lor.end:                                          ; preds = %lor.rhs, %entry
  %tmp__ZN7testing8internal16SuiteApiResolverINS_4TestEE22GetTearDownCaseOrSuiteEPKci2 = phi i1 [ true, %entry ], [ %lnot__ZN7testing8internal16SuiteApiResolverINS_4TestEE22GetTearDownCaseOrSuiteEPKci, %lor.rhs ]
  %call3__ZN7testing8internal16SuiteApiResolverINS_4TestEE22GetTearDownCaseOrSuiteEPKci = call zeroext i1 @_ZN7testing8internal6IsTrueEb(i1 zeroext %tmp__ZN7testing8internal16SuiteApiResolverINS_4TestEE22GetTearDownCaseOrSuiteEPKci2)
  br i1 %call3__ZN7testing8internal16SuiteApiResolverINS_4TestEE22GetTearDownCaseOrSuiteEPKci, label %if.then, label %if.else

if.then:                                          ; preds = %lor.end
  br label %if.end

if.else:                                          ; preds = %lor.end
  call void @_ZN7testing8internal8GTestLogC1ENS0_16GTestLogSeverityEPKci(%"class.testing::internal::GTestLog"* %ref.tmp__ZN7testing8internal16SuiteApiResolverINS_4TestEE22GetTearDownCaseOrSuiteEPKci, i32 3, i8* getelementptr inbounds ([51 x i8], [51 x i8]* @.str.9, i32 0, i32 0), i32 531)
  %call4__ZN7testing8internal16SuiteApiResolverINS_4TestEE22GetTearDownCaseOrSuiteEPKci = invoke dereferenceable(160) %"class.std::__1::basic_ostream"* @_ZN7testing8internal8GTestLog9GetStreamEv(%"class.testing::internal::GTestLog"* %ref.tmp__ZN7testing8internal16SuiteApiResolverINS_4TestEE22GetTearDownCaseOrSuiteEPKci)
          to label %invoke.cont unwind label %lpad

invoke.cont:                                      ; preds = %if.else
  %call6__ZN7testing8internal16SuiteApiResolverINS_4TestEE22GetTearDownCaseOrSuiteEPKci = invoke dereferenceable(160) %"class.std::__1::basic_ostream"* @_ZNSt3__1lsINS_11char_traitsIcEEEERNS_13basic_ostreamIcT_EES6_PKc(%"class.std::__1::basic_ostream"* dereferenceable(160) %call4__ZN7testing8internal16SuiteApiResolverINS_4TestEE22GetTearDownCaseOrSuiteEPKci, i8* getelementptr inbounds ([51 x i8], [51 x i8]* @.str.10, i32 0, i32 0))
          to label %invoke.cont5 unwind label %lpad

invoke.cont5:                                     ; preds = %invoke.cont
  %call8__ZN7testing8internal16SuiteApiResolverINS_4TestEE22GetTearDownCaseOrSuiteEPKci = invoke dereferenceable(160) %"class.std::__1::basic_ostream"* @_ZNSt3__1lsINS_11char_traitsIcEEEERNS_13basic_ostreamIcT_EES6_PKc(%"class.std::__1::basic_ostream"* dereferenceable(160) %call6__ZN7testing8internal16SuiteApiResolverINS_4TestEE22GetTearDownCaseOrSuiteEPKci, i8* getelementptr inbounds ([112 x i8], [112 x i8]* @.str.13, i32 0, i32 0))
          to label %invoke.cont7 unwind label %lpad

invoke.cont7:                                     ; preds = %invoke.cont5
  %tmp__ZN7testing8internal16SuiteApiResolverINS_4TestEE22GetTearDownCaseOrSuiteEPKci3 = load i8*, i8** %filename.addr__ZN7testing8internal16SuiteApiResolverINS_4TestEE22GetTearDownCaseOrSuiteEPKci, align 8
  %call10__ZN7testing8internal16SuiteApiResolverINS_4TestEE22GetTearDownCaseOrSuiteEPKci = invoke dereferenceable(160) %"class.std::__1::basic_ostream"* @_ZNSt3__1lsINS_11char_traitsIcEEEERNS_13basic_ostreamIcT_EES6_PKc(%"class.std::__1::basic_ostream"* dereferenceable(160) %call8__ZN7testing8internal16SuiteApiResolverINS_4TestEE22GetTearDownCaseOrSuiteEPKci, i8* %tmp__ZN7testing8internal16SuiteApiResolverINS_4TestEE22GetTearDownCaseOrSuiteEPKci3)
          to label %invoke.cont9 unwind label %lpad

invoke.cont9:                                     ; preds = %invoke.cont7
  %call12__ZN7testing8internal16SuiteApiResolverINS_4TestEE22GetTearDownCaseOrSuiteEPKci = invoke dereferenceable(160) %"class.std::__1::basic_ostream"* @_ZNSt3__1lsINS_11char_traitsIcEEEERNS_13basic_ostreamIcT_EES6_PKc(%"class.std::__1::basic_ostream"* dereferenceable(160) %call10__ZN7testing8internal16SuiteApiResolverINS_4TestEE22GetTearDownCaseOrSuiteEPKci, i8* getelementptr inbounds ([2 x i8], [2 x i8]* @.str.12, i32 0, i32 0))
          to label %invoke.cont11 unwind label %lpad

invoke.cont11:                                    ; preds = %invoke.cont9
  %tmp__ZN7testing8internal16SuiteApiResolverINS_4TestEE22GetTearDownCaseOrSuiteEPKci4 = load i32, i32* %line_num.addr__ZN7testing8internal16SuiteApiResolverINS_4TestEE22GetTearDownCaseOrSuiteEPKci, align 4
  %call14__ZN7testing8internal16SuiteApiResolverINS_4TestEE22GetTearDownCaseOrSuiteEPKci = invoke dereferenceable(160) %"class.std::__1::basic_ostream"* @_ZNSt3__113basic_ostreamIcNS_11char_traitsIcEEElsEi(%"class.std::__1::basic_ostream"* %call12__ZN7testing8internal16SuiteApiResolverINS_4TestEE22GetTearDownCaseOrSuiteEPKci, i32 %tmp__ZN7testing8internal16SuiteApiResolverINS_4TestEE22GetTearDownCaseOrSuiteEPKci4)
          to label %invoke.cont13 unwind label %lpad

invoke.cont13:                                    ; preds = %invoke.cont11
  call void @_ZN7testing8internal8GTestLogD1Ev(%"class.testing::internal::GTestLog"* %ref.tmp__ZN7testing8internal16SuiteApiResolverINS_4TestEE22GetTearDownCaseOrSuiteEPKci) #15
  br label %if.end

lpad:                                             ; preds = %invoke.cont11, %invoke.cont9, %invoke.cont7, %invoke.cont5, %invoke.cont, %if.else
  %tmp__ZN7testing8internal16SuiteApiResolverINS_4TestEE22GetTearDownCaseOrSuiteEPKci5 = landingpad { i8*, i32 }
          cleanup
  %tmp__ZN7testing8internal16SuiteApiResolverINS_4TestEE22GetTearDownCaseOrSuiteEPKci6 = extractvalue { i8*, i32 } %tmp__ZN7testing8internal16SuiteApiResolverINS_4TestEE22GetTearDownCaseOrSuiteEPKci5, 0
  store i8* %tmp__ZN7testing8internal16SuiteApiResolverINS_4TestEE22GetTearDownCaseOrSuiteEPKci6, i8** %exn.slot__ZN7testing8internal16SuiteApiResolverINS_4TestEE22GetTearDownCaseOrSuiteEPKci, align 8
  %tmp__ZN7testing8internal16SuiteApiResolverINS_4TestEE22GetTearDownCaseOrSuiteEPKci7 = extractvalue { i8*, i32 } %tmp__ZN7testing8internal16SuiteApiResolverINS_4TestEE22GetTearDownCaseOrSuiteEPKci5, 1
  store i32 %tmp__ZN7testing8internal16SuiteApiResolverINS_4TestEE22GetTearDownCaseOrSuiteEPKci7, i32* %ehselector.slot__ZN7testing8internal16SuiteApiResolverINS_4TestEE22GetTearDownCaseOrSuiteEPKci, align 4
  call void @_ZN7testing8internal8GTestLogD1Ev(%"class.testing::internal::GTestLog"* %ref.tmp__ZN7testing8internal16SuiteApiResolverINS_4TestEE22GetTearDownCaseOrSuiteEPKci) #15
  br label %eh.resume

if.end:                                           ; preds = %invoke.cont13, %if.then
  %tmp__ZN7testing8internal16SuiteApiResolverINS_4TestEE22GetTearDownCaseOrSuiteEPKci8 = load void ()*, void ()** %test_case_fp__ZN7testing8internal16SuiteApiResolverINS_4TestEE22GetTearDownCaseOrSuiteEPKci, align 8
  %cmp__ZN7testing8internal16SuiteApiResolverINS_4TestEE22GetTearDownCaseOrSuiteEPKci = icmp ne void ()* %tmp__ZN7testing8internal16SuiteApiResolverINS_4TestEE22GetTearDownCaseOrSuiteEPKci8, null
  br i1 %cmp__ZN7testing8internal16SuiteApiResolverINS_4TestEE22GetTearDownCaseOrSuiteEPKci, label %cond.true, label %cond.false

cond.true:                                        ; preds = %if.end
  %tmp__ZN7testing8internal16SuiteApiResolverINS_4TestEE22GetTearDownCaseOrSuiteEPKci9 = load void ()*, void ()** %test_case_fp__ZN7testing8internal16SuiteApiResolverINS_4TestEE22GetTearDownCaseOrSuiteEPKci, align 8
  br label %cond.end

cond.false:                                       ; preds = %if.end
  %tmp__ZN7testing8internal16SuiteApiResolverINS_4TestEE22GetTearDownCaseOrSuiteEPKci10 = load void ()*, void ()** %test_suite_fp__ZN7testing8internal16SuiteApiResolverINS_4TestEE22GetTearDownCaseOrSuiteEPKci, align 8
  br label %cond.end

cond.end:                                         ; preds = %cond.false, %cond.true
  %cond__ZN7testing8internal16SuiteApiResolverINS_4TestEE22GetTearDownCaseOrSuiteEPKci = phi void ()* [ %tmp__ZN7testing8internal16SuiteApiResolverINS_4TestEE22GetTearDownCaseOrSuiteEPKci9, %cond.true ], [ %tmp__ZN7testing8internal16SuiteApiResolverINS_4TestEE22GetTearDownCaseOrSuiteEPKci10, %cond.false ]
  ret void ()* %cond__ZN7testing8internal16SuiteApiResolverINS_4TestEE22GetTearDownCaseOrSuiteEPKci

eh.resume:                                        ; preds = %lpad
  %exn__ZN7testing8internal16SuiteApiResolverINS_4TestEE22GetTearDownCaseOrSuiteEPKci = load i8*, i8** %exn.slot__ZN7testing8internal16SuiteApiResolverINS_4TestEE22GetTearDownCaseOrSuiteEPKci, align 8
  %sel__ZN7testing8internal16SuiteApiResolverINS_4TestEE22GetTearDownCaseOrSuiteEPKci = load i32, i32* %ehselector.slot__ZN7testing8internal16SuiteApiResolverINS_4TestEE22GetTearDownCaseOrSuiteEPKci, align 4
  %lpad.val__ZN7testing8internal16SuiteApiResolverINS_4TestEE22GetTearDownCaseOrSuiteEPKci = insertvalue { i8*, i32 } undef, i8* %exn__ZN7testing8internal16SuiteApiResolverINS_4TestEE22GetTearDownCaseOrSuiteEPKci, 0
  %lpad.val15__ZN7testing8internal16SuiteApiResolverINS_4TestEE22GetTearDownCaseOrSuiteEPKci = insertvalue { i8*, i32 } %lpad.val__ZN7testing8internal16SuiteApiResolverINS_4TestEE22GetTearDownCaseOrSuiteEPKci, i32 %sel__ZN7testing8internal16SuiteApiResolverINS_4TestEE22GetTearDownCaseOrSuiteEPKci, 1
  resume { i8*, i32 } %lpad.val15__ZN7testing8internal16SuiteApiResolverINS_4TestEE22GetTearDownCaseOrSuiteEPKci
}

; Function Attrs: nobuiltin
declare noalias i8* @_Znwm(i64) #3

; Function Attrs: noinline optnone ssp uwtable
define linkonce_odr void @_ZN7testing8internal15TestFactoryImplI14foo_test1_TestEC1Ev(%"class.testing::internal::TestFactoryImpl"* %this) unnamed_addr #2 align 2 {
entry:
  %this.addr__ZN7testing8internal15TestFactoryImplI14foo_test1_TestEC1Ev = alloca %"class.testing::internal::TestFactoryImpl"*, align 8
  store %"class.testing::internal::TestFactoryImpl"* %this, %"class.testing::internal::TestFactoryImpl"** %this.addr__ZN7testing8internal15TestFactoryImplI14foo_test1_TestEC1Ev, align 8
  %this1__ZN7testing8internal15TestFactoryImplI14foo_test1_TestEC1Ev = load %"class.testing::internal::TestFactoryImpl"*, %"class.testing::internal::TestFactoryImpl"** %this.addr__ZN7testing8internal15TestFactoryImplI14foo_test1_TestEC1Ev, align 8
  call void @_ZN7testing8internal15TestFactoryImplI14foo_test1_TestEC2Ev(%"class.testing::internal::TestFactoryImpl"* %this1__ZN7testing8internal15TestFactoryImplI14foo_test1_TestEC1Ev)
  ret void
}

; Function Attrs: nobuiltin nounwind
declare void @_ZdlPv(i8*) #4

; Function Attrs: noinline nounwind optnone ssp uwtable
define linkonce_odr void @_ZN7testing8internal12CodeLocationD1Ev(%"struct.testing::internal::CodeLocation"* %this) unnamed_addr #5 align 2 {
entry:
  %this.addr__ZN7testing8internal12CodeLocationD1Ev = alloca %"struct.testing::internal::CodeLocation"*, align 8
  store %"struct.testing::internal::CodeLocation"* %this, %"struct.testing::internal::CodeLocation"** %this.addr__ZN7testing8internal12CodeLocationD1Ev, align 8
  %this1__ZN7testing8internal12CodeLocationD1Ev = load %"struct.testing::internal::CodeLocation"*, %"struct.testing::internal::CodeLocation"** %this.addr__ZN7testing8internal12CodeLocationD1Ev, align 8
  call void @_ZN7testing8internal12CodeLocationD2Ev(%"struct.testing::internal::CodeLocation"* %this1__ZN7testing8internal12CodeLocationD1Ev) #15
  ret void
}

; Function Attrs: nounwind
declare void @_ZNSt3__112basic_stringIcNS_11char_traitsIcEENS_9allocatorIcEEED1Ev(%"class.std::__1::basic_string"*) unnamed_addr #6

; Function Attrs: noinline optnone ssp uwtable
define void @_ZN14foo_test1_Test8TestBodyEv(%class.foo_test1_Test* %this) unnamed_addr #2 align 2 personality i8* bitcast (i32 (...)* @__gxx_personality_v0 to i8*) {
entry:
  %this.addr__ZN14foo_test1_Test8TestBodyEv = alloca %class.foo_test1_Test*, align 8
  %m__ZN14foo_test1_Test8TestBodyEv = alloca i32, align 4
  %p__ZN14foo_test1_Test8TestBodyEv = alloca i32, align 4
  %result__ZN14foo_test1_Test8TestBodyEv = alloca i32, align 4
  %gtest_ar__ZN14foo_test1_Test8TestBodyEv = alloca %"class.testing::AssertionResult", align 8
  %ref.tmp__ZN14foo_test1_Test8TestBodyEv = alloca i32, align 4
  %exn.slot__ZN14foo_test1_Test8TestBodyEv = alloca i8*
  %ehselector.slot__ZN14foo_test1_Test8TestBodyEv = alloca i32
  %ref.tmp3__ZN14foo_test1_Test8TestBodyEv = alloca %"class.testing::Message", align 8
  %ref.tmp5__ZN14foo_test1_Test8TestBodyEv = alloca %"class.testing::internal::AssertHelper", align 8
  %cleanup.dest.slot__ZN14foo_test1_Test8TestBodyEv = alloca i32, align 4
  store %class.foo_test1_Test* %this, %class.foo_test1_Test** %this.addr__ZN14foo_test1_Test8TestBodyEv, align 8
  %this1__ZN14foo_test1_Test8TestBodyEv = load %class.foo_test1_Test*, %class.foo_test1_Test** %this.addr__ZN14foo_test1_Test8TestBodyEv, align 8
  store i32 90, i32* %m__ZN14foo_test1_Test8TestBodyEv, align 4
  store i32 80, i32* %p__ZN14foo_test1_Test8TestBodyEv, align 4
  call void @stg_begin_test()
  %tmp__ZN14foo_test1_Test8TestBodyEv = load i8*, i8** @uniform, align 8
  call void @stg_symbolic_variable_int(i32* %m__ZN14foo_test1_Test8TestBodyEv, i8* getelementptr inbounds ([2 x i8], [2 x i8]* @.str.4, i32 0, i32 0), double -2.000000e+01, double 2.000000e+01, i8* %tmp__ZN14foo_test1_Test8TestBodyEv, double 0.000000e+00, double 0.000000e+00)
  %tmp__ZN14foo_test1_Test8TestBodyEv1 = load i8*, i8** @uniform, align 8
  call void @stg_symbolic_variable_int(i32* %p__ZN14foo_test1_Test8TestBodyEv, i8* getelementptr inbounds ([2 x i8], [2 x i8]* @.str.5, i32 0, i32 0), double -2.000000e+01, double 2.000000e+01, i8* %tmp__ZN14foo_test1_Test8TestBodyEv1, double 0.000000e+00, double 0.000000e+00)
  call void @stg_start_intrmnt()
  call void @stg_update_char(i8* getelementptr inbounds ([5 x i8], [5 x i8]* @54, i32 0, i32 0), i8* getelementptr inbounds ([6 x i8], [6 x i8]* @55, i32 0, i32 0))
  call void @stg_update_char(i8* getelementptr inbounds ([1 x i8], [1 x i8]* @52, i32 0, i32 0), i8* getelementptr inbounds ([22 x i8], [22 x i8]* @53, i32 0, i32 0))
  %tmp__ZN14foo_test1_Test8TestBodyEv2 = load i32, i32* %m__ZN14foo_test1_Test8TestBodyEv, align 4
  call void @stg_update_load_i32(i32* %m__ZN14foo_test1_Test8TestBodyEv, i8* getelementptr inbounds ([36 x i8], [36 x i8]* @57, i32 0, i32 0))
  %tmp__ZN14foo_test1_Test8TestBodyEv3 = load i32, i32* %p__ZN14foo_test1_Test8TestBodyEv, align 4
  call void @stg_update_load_i32(i32* %p__ZN14foo_test1_Test8TestBodyEv, i8* getelementptr inbounds ([36 x i8], [36 x i8]* @59, i32 0, i32 0))
  call void @stg_update_char(i8* getelementptr inbounds ([6 x i8], [6 x i8]* @60, i32 0, i32 0), i8* getelementptr inbounds ([36 x i8], [36 x i8]* @61, i32 0, i32 0))
  call void @stg_update_char(i8* getelementptr inbounds ([6 x i8], [6 x i8]* @62, i32 0, i32 0), i8* getelementptr inbounds ([36 x i8], [36 x i8]* @63, i32 0, i32 0))
  %call__ZN14foo_test1_Test8TestBodyEv = call i32 @_Z3fooii(i32 %tmp__ZN14foo_test1_Test8TestBodyEv2, i32 %tmp__ZN14foo_test1_Test8TestBodyEv3)
  call void @stg_update_char(i8* getelementptr inbounds ([36 x i8], [36 x i8]* @64, i32 0, i32 0), i8* getelementptr inbounds ([13 x i8], [13 x i8]* @65, i32 0, i32 0))
  store i32 %call__ZN14foo_test1_Test8TestBodyEv, i32* %result__ZN14foo_test1_Test8TestBodyEv, align 4
  call void @stg_update_store_i32(i32* %result__ZN14foo_test1_Test8TestBodyEv, i8* getelementptr inbounds ([36 x i8], [36 x i8]* @66, i32 0, i32 0))
  call void @stg_stop_intrmnt()
  call void @stg_end_test()
  %tmp__ZN14foo_test1_Test8TestBodyEv4 = load i32, i32* %result__ZN14foo_test1_Test8TestBodyEv, align 4
  %cmp__ZN14foo_test1_Test8TestBodyEv = icmp eq i32 %tmp__ZN14foo_test1_Test8TestBodyEv4, 10
  call void @stg_record_test(i1 zeroext %cmp__ZN14foo_test1_Test8TestBodyEv)
  store i32 10, i32* %ref.tmp__ZN14foo_test1_Test8TestBodyEv, align 4
  call void @_ZN7testing8internal8EqHelper7CompareIiiLPv0EEENS_15AssertionResultEPKcS6_RKT_RKT0_(%"class.testing::AssertionResult"* sret %gtest_ar__ZN14foo_test1_Test8TestBodyEv, i8* getelementptr inbounds ([3 x i8], [3 x i8]* @.str.6, i32 0, i32 0), i8* getelementptr inbounds ([7 x i8], [7 x i8]* @.str.7, i32 0, i32 0), i32* dereferenceable(4) %ref.tmp__ZN14foo_test1_Test8TestBodyEv, i32* dereferenceable(4) %result__ZN14foo_test1_Test8TestBodyEv)
  %call2__ZN14foo_test1_Test8TestBodyEv = invoke zeroext i1 @_ZNK7testing15AssertionResultcvbEv(%"class.testing::AssertionResult"* %gtest_ar__ZN14foo_test1_Test8TestBodyEv)
          to label %invoke.cont unwind label %lpad

invoke.cont:                                      ; preds = %entry
  br i1 %call2__ZN14foo_test1_Test8TestBodyEv, label %if.then, label %if.else

if.then:                                          ; preds = %invoke.cont
  br label %if.end

lpad:                                             ; preds = %if.else, %entry
  %tmp__ZN14foo_test1_Test8TestBodyEv5 = landingpad { i8*, i32 }
          cleanup
  %tmp__ZN14foo_test1_Test8TestBodyEv6 = extractvalue { i8*, i32 } %tmp__ZN14foo_test1_Test8TestBodyEv5, 0
  store i8* %tmp__ZN14foo_test1_Test8TestBodyEv6, i8** %exn.slot__ZN14foo_test1_Test8TestBodyEv, align 8
  %tmp__ZN14foo_test1_Test8TestBodyEv7 = extractvalue { i8*, i32 } %tmp__ZN14foo_test1_Test8TestBodyEv5, 1
  store i32 %tmp__ZN14foo_test1_Test8TestBodyEv7, i32* %ehselector.slot__ZN14foo_test1_Test8TestBodyEv, align 4
  br label %ehcleanup12

if.else:                                          ; preds = %invoke.cont
  invoke void @_ZN7testing7MessageC1Ev(%"class.testing::Message"* %ref.tmp3__ZN14foo_test1_Test8TestBodyEv)
          to label %invoke.cont4 unwind label %lpad

invoke.cont4:                                     ; preds = %if.else
  %call8__ZN14foo_test1_Test8TestBodyEv = invoke i8* @_ZNK7testing15AssertionResult15failure_messageEv(%"class.testing::AssertionResult"* %gtest_ar__ZN14foo_test1_Test8TestBodyEv)
          to label %invoke.cont7 unwind label %lpad6

invoke.cont7:                                     ; preds = %invoke.cont4
  invoke void @_ZN7testing8internal12AssertHelperC1ENS_14TestPartResult4TypeEPKciS5_(%"class.testing::internal::AssertHelper"* %ref.tmp5__ZN14foo_test1_Test8TestBodyEv, i32 2, i8* getelementptr inbounds ([9 x i8], [9 x i8]* @.str.3, i32 0, i32 0), i32 23, i8* %call8__ZN14foo_test1_Test8TestBodyEv)
          to label %invoke.cont9 unwind label %lpad6

invoke.cont9:                                     ; preds = %invoke.cont7
  invoke void @_ZNK7testing8internal12AssertHelperaSERKNS_7MessageE(%"class.testing::internal::AssertHelper"* %ref.tmp5__ZN14foo_test1_Test8TestBodyEv, %"class.testing::Message"* dereferenceable(8) %ref.tmp3__ZN14foo_test1_Test8TestBodyEv)
          to label %invoke.cont11 unwind label %lpad10

invoke.cont11:                                    ; preds = %invoke.cont9
  call void @_ZN7testing8internal12AssertHelperD1Ev(%"class.testing::internal::AssertHelper"* %ref.tmp5__ZN14foo_test1_Test8TestBodyEv) #15
  call void @_ZN7testing7MessageD1Ev(%"class.testing::Message"* %ref.tmp3__ZN14foo_test1_Test8TestBodyEv) #15
  store i32 1, i32* %cleanup.dest.slot__ZN14foo_test1_Test8TestBodyEv, align 4
  br label %cleanup

lpad6:                                            ; preds = %invoke.cont7, %invoke.cont4
  %tmp__ZN14foo_test1_Test8TestBodyEv8 = landingpad { i8*, i32 }
          cleanup
  %tmp__ZN14foo_test1_Test8TestBodyEv9 = extractvalue { i8*, i32 } %tmp__ZN14foo_test1_Test8TestBodyEv8, 0
  store i8* %tmp__ZN14foo_test1_Test8TestBodyEv9, i8** %exn.slot__ZN14foo_test1_Test8TestBodyEv, align 8
  %tmp__ZN14foo_test1_Test8TestBodyEv10 = extractvalue { i8*, i32 } %tmp__ZN14foo_test1_Test8TestBodyEv8, 1
  store i32 %tmp__ZN14foo_test1_Test8TestBodyEv10, i32* %ehselector.slot__ZN14foo_test1_Test8TestBodyEv, align 4
  br label %ehcleanup

lpad10:                                           ; preds = %invoke.cont9
  %tmp__ZN14foo_test1_Test8TestBodyEv11 = landingpad { i8*, i32 }
          cleanup
  %tmp__ZN14foo_test1_Test8TestBodyEv12 = extractvalue { i8*, i32 } %tmp__ZN14foo_test1_Test8TestBodyEv11, 0
  store i8* %tmp__ZN14foo_test1_Test8TestBodyEv12, i8** %exn.slot__ZN14foo_test1_Test8TestBodyEv, align 8
  %tmp__ZN14foo_test1_Test8TestBodyEv13 = extractvalue { i8*, i32 } %tmp__ZN14foo_test1_Test8TestBodyEv11, 1
  store i32 %tmp__ZN14foo_test1_Test8TestBodyEv13, i32* %ehselector.slot__ZN14foo_test1_Test8TestBodyEv, align 4
  call void @_ZN7testing8internal12AssertHelperD1Ev(%"class.testing::internal::AssertHelper"* %ref.tmp5__ZN14foo_test1_Test8TestBodyEv) #15
  br label %ehcleanup

ehcleanup:                                        ; preds = %lpad10, %lpad6
  call void @_ZN7testing7MessageD1Ev(%"class.testing::Message"* %ref.tmp3__ZN14foo_test1_Test8TestBodyEv) #15
  br label %ehcleanup12

if.end:                                           ; preds = %if.then
  store i32 0, i32* %cleanup.dest.slot__ZN14foo_test1_Test8TestBodyEv, align 4
  br label %cleanup

cleanup:                                          ; preds = %if.end, %invoke.cont11
  call void @_ZN7testing15AssertionResultD1Ev(%"class.testing::AssertionResult"* %gtest_ar__ZN14foo_test1_Test8TestBodyEv) #15
  %cleanup.dest__ZN14foo_test1_Test8TestBodyEv = load i32, i32* %cleanup.dest.slot__ZN14foo_test1_Test8TestBodyEv, align 4
  switch i32 %cleanup.dest__ZN14foo_test1_Test8TestBodyEv, label %unreachable [
    i32 0, label %cleanup.cont
    i32 1, label %cleanup.cont
  ]

cleanup.cont:                                     ; preds = %cleanup, %cleanup
  ret void

ehcleanup12:                                      ; preds = %ehcleanup, %lpad
  call void @_ZN7testing15AssertionResultD1Ev(%"class.testing::AssertionResult"* %gtest_ar__ZN14foo_test1_Test8TestBodyEv) #15
  br label %eh.resume

eh.resume:                                        ; preds = %ehcleanup12
  %exn__ZN14foo_test1_Test8TestBodyEv = load i8*, i8** %exn.slot__ZN14foo_test1_Test8TestBodyEv, align 8
  %sel__ZN14foo_test1_Test8TestBodyEv = load i32, i32* %ehselector.slot__ZN14foo_test1_Test8TestBodyEv, align 4
  %lpad.val__ZN14foo_test1_Test8TestBodyEv = insertvalue { i8*, i32 } undef, i8* %exn__ZN14foo_test1_Test8TestBodyEv, 0
  %lpad.val13__ZN14foo_test1_Test8TestBodyEv = insertvalue { i8*, i32 } %lpad.val__ZN14foo_test1_Test8TestBodyEv, i32 %sel__ZN14foo_test1_Test8TestBodyEv, 1
  resume { i8*, i32 } %lpad.val13__ZN14foo_test1_Test8TestBodyEv

unreachable:                                      ; preds = %cleanup
  unreachable
}

declare void @stg_begin_test() #1

declare void @stg_symbolic_variable_int(i32*, i8*, double, double, i8*, double, double) #1

declare void @stg_start_intrmnt() #1

declare i32 @_Z3fooii(i32, i32) #1

declare void @stg_stop_intrmnt() #1

declare void @stg_end_test() #1

declare void @stg_record_test(i1 zeroext) #1

; Function Attrs: noinline optnone ssp uwtable
define linkonce_odr void @_ZN7testing8internal8EqHelper7CompareIiiLPv0EEENS_15AssertionResultEPKcS6_RKT_RKT0_(%"class.testing::AssertionResult"* noalias sret %agg.result, i8* %lhs_expression, i8* %rhs_expression, i32* dereferenceable(4) %lhs, i32* dereferenceable(4) %rhs) #2 align 2 {
entry:
  %lhs_expression.addr__ZN7testing8internal8EqHelper7CompareIiiLPv0EEENS_15AssertionResultEPKcS6_RKT_RKT0_ = alloca i8*, align 8
  %rhs_expression.addr__ZN7testing8internal8EqHelper7CompareIiiLPv0EEENS_15AssertionResultEPKcS6_RKT_RKT0_ = alloca i8*, align 8
  %lhs.addr__ZN7testing8internal8EqHelper7CompareIiiLPv0EEENS_15AssertionResultEPKcS6_RKT_RKT0_ = alloca i32*, align 8
  %rhs.addr__ZN7testing8internal8EqHelper7CompareIiiLPv0EEENS_15AssertionResultEPKcS6_RKT_RKT0_ = alloca i32*, align 8
  store i8* %lhs_expression, i8** %lhs_expression.addr__ZN7testing8internal8EqHelper7CompareIiiLPv0EEENS_15AssertionResultEPKcS6_RKT_RKT0_, align 8
  store i8* %rhs_expression, i8** %rhs_expression.addr__ZN7testing8internal8EqHelper7CompareIiiLPv0EEENS_15AssertionResultEPKcS6_RKT_RKT0_, align 8
  store i32* %lhs, i32** %lhs.addr__ZN7testing8internal8EqHelper7CompareIiiLPv0EEENS_15AssertionResultEPKcS6_RKT_RKT0_, align 8
  store i32* %rhs, i32** %rhs.addr__ZN7testing8internal8EqHelper7CompareIiiLPv0EEENS_15AssertionResultEPKcS6_RKT_RKT0_, align 8
  %tmp__ZN7testing8internal8EqHelper7CompareIiiLPv0EEENS_15AssertionResultEPKcS6_RKT_RKT0_ = load i8*, i8** %lhs_expression.addr__ZN7testing8internal8EqHelper7CompareIiiLPv0EEENS_15AssertionResultEPKcS6_RKT_RKT0_, align 8
  %tmp__ZN7testing8internal8EqHelper7CompareIiiLPv0EEENS_15AssertionResultEPKcS6_RKT_RKT0_1 = load i8*, i8** %rhs_expression.addr__ZN7testing8internal8EqHelper7CompareIiiLPv0EEENS_15AssertionResultEPKcS6_RKT_RKT0_, align 8
  %tmp__ZN7testing8internal8EqHelper7CompareIiiLPv0EEENS_15AssertionResultEPKcS6_RKT_RKT0_2 = load i32*, i32** %lhs.addr__ZN7testing8internal8EqHelper7CompareIiiLPv0EEENS_15AssertionResultEPKcS6_RKT_RKT0_, align 8
  %tmp__ZN7testing8internal8EqHelper7CompareIiiLPv0EEENS_15AssertionResultEPKcS6_RKT_RKT0_3 = load i32*, i32** %rhs.addr__ZN7testing8internal8EqHelper7CompareIiiLPv0EEENS_15AssertionResultEPKcS6_RKT_RKT0_, align 8
  call void @_ZN7testing8internal11CmpHelperEQIiiEENS_15AssertionResultEPKcS4_RKT_RKT0_(%"class.testing::AssertionResult"* sret %agg.result, i8* %tmp__ZN7testing8internal8EqHelper7CompareIiiLPv0EEENS_15AssertionResultEPKcS6_RKT_RKT0_, i8* %tmp__ZN7testing8internal8EqHelper7CompareIiiLPv0EEENS_15AssertionResultEPKcS6_RKT_RKT0_1, i32* dereferenceable(4) %tmp__ZN7testing8internal8EqHelper7CompareIiiLPv0EEENS_15AssertionResultEPKcS6_RKT_RKT0_2, i32* dereferenceable(4) %tmp__ZN7testing8internal8EqHelper7CompareIiiLPv0EEENS_15AssertionResultEPKcS6_RKT_RKT0_3)
  ret void
}

; Function Attrs: noinline nounwind optnone ssp uwtable
define linkonce_odr zeroext i1 @_ZNK7testing15AssertionResultcvbEv(%"class.testing::AssertionResult"* %this) #5 align 2 {
entry:
  %this.addr__ZNK7testing15AssertionResultcvbEv = alloca %"class.testing::AssertionResult"*, align 8
  store %"class.testing::AssertionResult"* %this, %"class.testing::AssertionResult"** %this.addr__ZNK7testing15AssertionResultcvbEv, align 8
  %this1__ZNK7testing15AssertionResultcvbEv = load %"class.testing::AssertionResult"*, %"class.testing::AssertionResult"** %this.addr__ZNK7testing15AssertionResultcvbEv, align 8
  %success___ZNK7testing15AssertionResultcvbEv = getelementptr inbounds %"class.testing::AssertionResult", %"class.testing::AssertionResult"* %this1__ZNK7testing15AssertionResultcvbEv, i32 0, i32 0
  %tmp__ZNK7testing15AssertionResultcvbEv = load i8, i8* %success___ZNK7testing15AssertionResultcvbEv, align 8
  %tobool__ZNK7testing15AssertionResultcvbEv = trunc i8 %tmp__ZNK7testing15AssertionResultcvbEv to i1
  ret i1 %tobool__ZNK7testing15AssertionResultcvbEv
}

declare void @_ZN7testing7MessageC1Ev(%"class.testing::Message"*) unnamed_addr #1

; Function Attrs: noinline optnone ssp uwtable
define linkonce_odr i8* @_ZNK7testing15AssertionResult15failure_messageEv(%"class.testing::AssertionResult"* %this) #2 align 2 {
entry:
  %this.addr__ZNK7testing15AssertionResult15failure_messageEv = alloca %"class.testing::AssertionResult"*, align 8
  store %"class.testing::AssertionResult"* %this, %"class.testing::AssertionResult"** %this.addr__ZNK7testing15AssertionResult15failure_messageEv, align 8
  %this1__ZNK7testing15AssertionResult15failure_messageEv = load %"class.testing::AssertionResult"*, %"class.testing::AssertionResult"** %this.addr__ZNK7testing15AssertionResult15failure_messageEv, align 8
  %call__ZNK7testing15AssertionResult15failure_messageEv = call i8* @_ZNK7testing15AssertionResult7messageEv(%"class.testing::AssertionResult"* %this1__ZNK7testing15AssertionResult15failure_messageEv)
  ret i8* %call__ZNK7testing15AssertionResult15failure_messageEv
}

declare void @_ZN7testing8internal12AssertHelperC1ENS_14TestPartResult4TypeEPKciS5_(%"class.testing::internal::AssertHelper"*, i32, i8*, i32, i8*) unnamed_addr #1

declare void @_ZNK7testing8internal12AssertHelperaSERKNS_7MessageE(%"class.testing::internal::AssertHelper"*, %"class.testing::Message"* dereferenceable(8)) #1

; Function Attrs: nounwind
declare void @_ZN7testing8internal12AssertHelperD1Ev(%"class.testing::internal::AssertHelper"*) unnamed_addr #6

; Function Attrs: noinline nounwind optnone ssp uwtable
define linkonce_odr void @_ZN7testing7MessageD1Ev(%"class.testing::Message"* %this) unnamed_addr #5 align 2 {
entry:
  %this.addr__ZN7testing7MessageD1Ev = alloca %"class.testing::Message"*, align 8
  store %"class.testing::Message"* %this, %"class.testing::Message"** %this.addr__ZN7testing7MessageD1Ev, align 8
  %this1__ZN7testing7MessageD1Ev = load %"class.testing::Message"*, %"class.testing::Message"** %this.addr__ZN7testing7MessageD1Ev, align 8
  call void @_ZN7testing7MessageD2Ev(%"class.testing::Message"* %this1__ZN7testing7MessageD1Ev) #15
  ret void
}

; Function Attrs: noinline nounwind optnone ssp uwtable
define linkonce_odr void @_ZN7testing15AssertionResultD1Ev(%"class.testing::AssertionResult"* %this) unnamed_addr #5 align 2 {
entry:
  %this.addr__ZN7testing15AssertionResultD1Ev = alloca %"class.testing::AssertionResult"*, align 8
  store %"class.testing::AssertionResult"* %this, %"class.testing::AssertionResult"** %this.addr__ZN7testing15AssertionResultD1Ev, align 8
  %this1__ZN7testing15AssertionResultD1Ev = load %"class.testing::AssertionResult"*, %"class.testing::AssertionResult"** %this.addr__ZN7testing15AssertionResultD1Ev, align 8
  call void @_ZN7testing15AssertionResultD2Ev(%"class.testing::AssertionResult"* %this1__ZN7testing15AssertionResultD1Ev) #15
  ret void
}

; Function Attrs: noinline norecurse optnone ssp uwtable
define i32 @main(i32 %argc, i8** %argv) #7 {
entry:
  %retval_main = alloca i32, align 4
  %argc.addr_main = alloca i32, align 4
  %argv.addr_main = alloca i8**, align 8
  store i32 0, i32* %retval_main, align 4
  store i32 %argc, i32* %argc.addr_main, align 4
  store i8** %argv, i8*** %argv.addr_main, align 8
  %tmp_main = load i8**, i8*** %argv.addr_main, align 8
  call void @_ZN7testing14InitGoogleTestEPiPPc(i32* %argc.addr_main, i8** %tmp_main)
  %call_main = call i32 @_Z13RUN_ALL_TESTSv()
  ret i32 %call_main
}

declare void @_ZN7testing14InitGoogleTestEPiPPc(i32*, i8**) #1

; Function Attrs: noinline optnone ssp uwtable
define linkonce_odr i32 @_Z13RUN_ALL_TESTSv() #2 {
entry:
  %call__Z13RUN_ALL_TESTSv = call %"class.testing::UnitTest"* @_ZN7testing8UnitTest11GetInstanceEv()
  %call1__Z13RUN_ALL_TESTSv = call i32 @_ZN7testing8UnitTest3RunEv(%"class.testing::UnitTest"* %call__Z13RUN_ALL_TESTSv)
  ret i32 %call1__Z13RUN_ALL_TESTSv
}

; Function Attrs: noinline nounwind optnone ssp uwtable
define linkonce_odr void @_ZN14foo_test1_TestD1Ev(%class.foo_test1_Test* %this) unnamed_addr #5 align 2 {
entry:
  %this.addr__ZN14foo_test1_TestD1Ev = alloca %class.foo_test1_Test*, align 8
  store %class.foo_test1_Test* %this, %class.foo_test1_Test** %this.addr__ZN14foo_test1_TestD1Ev, align 8
  %this1__ZN14foo_test1_TestD1Ev = load %class.foo_test1_Test*, %class.foo_test1_Test** %this.addr__ZN14foo_test1_TestD1Ev, align 8
  call void @_ZN14foo_test1_TestD2Ev(%class.foo_test1_Test* %this1__ZN14foo_test1_TestD1Ev) #15
  ret void
}

; Function Attrs: noinline nounwind optnone ssp uwtable
define linkonce_odr void @_ZN14foo_test1_TestD0Ev(%class.foo_test1_Test* %this) unnamed_addr #5 align 2 {
entry:
  %this.addr__ZN14foo_test1_TestD0Ev = alloca %class.foo_test1_Test*, align 8
  store %class.foo_test1_Test* %this, %class.foo_test1_Test** %this.addr__ZN14foo_test1_TestD0Ev, align 8
  %this1__ZN14foo_test1_TestD0Ev = load %class.foo_test1_Test*, %class.foo_test1_Test** %this.addr__ZN14foo_test1_TestD0Ev, align 8
  call void @_ZN14foo_test1_TestD1Ev(%class.foo_test1_Test* %this1__ZN14foo_test1_TestD0Ev) #15
  %tmp__ZN14foo_test1_TestD0Ev = bitcast %class.foo_test1_Test* %this1__ZN14foo_test1_TestD0Ev to i8*
  call void @_ZdlPv(i8* %tmp__ZN14foo_test1_TestD0Ev) #16
  ret void
}

declare void @_ZN7testing4Test5SetUpEv(%"class.testing::Test"*) unnamed_addr #1

declare void @_ZN7testing4Test8TearDownEv(%"class.testing::Test"*) unnamed_addr #1

; Function Attrs: noinline nounwind optnone ssp uwtable
define linkonce_odr %"struct.testing::Test::Setup_should_be_spelled_SetUp"* @_ZN7testing4Test5SetupEv(%"class.testing::Test"* %this) unnamed_addr #5 align 2 {
entry:
  %this.addr__ZN7testing4Test5SetupEv = alloca %"class.testing::Test"*, align 8
  store %"class.testing::Test"* %this, %"class.testing::Test"** %this.addr__ZN7testing4Test5SetupEv, align 8
  %this1__ZN7testing4Test5SetupEv = load %"class.testing::Test"*, %"class.testing::Test"** %this.addr__ZN7testing4Test5SetupEv, align 8
  ret %"struct.testing::Test::Setup_should_be_spelled_SetUp"* null
}

; Function Attrs: noinline optnone ssp uwtable
define linkonce_odr void @_ZN7testing8internal12CodeLocationC2ERKNSt3__112basic_stringIcNS2_11char_traitsIcEENS2_9allocatorIcEEEEi(%"struct.testing::internal::CodeLocation"* %this, %"class.std::__1::basic_string"* dereferenceable(24) %a_file, i32 %a_line) unnamed_addr #2 align 2 {
entry:
  %this.addr__ZN7testing8internal12CodeLocationC2ERKNSt3__112basic_stringIcNS2_11char_traitsIcEENS2_9allocatorIcEEEEi = alloca %"struct.testing::internal::CodeLocation"*, align 8
  %a_file.addr__ZN7testing8internal12CodeLocationC2ERKNSt3__112basic_stringIcNS2_11char_traitsIcEENS2_9allocatorIcEEEEi = alloca %"class.std::__1::basic_string"*, align 8
  %a_line.addr__ZN7testing8internal12CodeLocationC2ERKNSt3__112basic_stringIcNS2_11char_traitsIcEENS2_9allocatorIcEEEEi = alloca i32, align 4
  store %"struct.testing::internal::CodeLocation"* %this, %"struct.testing::internal::CodeLocation"** %this.addr__ZN7testing8internal12CodeLocationC2ERKNSt3__112basic_stringIcNS2_11char_traitsIcEENS2_9allocatorIcEEEEi, align 8
  store %"class.std::__1::basic_string"* %a_file, %"class.std::__1::basic_string"** %a_file.addr__ZN7testing8internal12CodeLocationC2ERKNSt3__112basic_stringIcNS2_11char_traitsIcEENS2_9allocatorIcEEEEi, align 8
  store i32 %a_line, i32* %a_line.addr__ZN7testing8internal12CodeLocationC2ERKNSt3__112basic_stringIcNS2_11char_traitsIcEENS2_9allocatorIcEEEEi, align 4
  %this1__ZN7testing8internal12CodeLocationC2ERKNSt3__112basic_stringIcNS2_11char_traitsIcEENS2_9allocatorIcEEEEi = load %"struct.testing::internal::CodeLocation"*, %"struct.testing::internal::CodeLocation"** %this.addr__ZN7testing8internal12CodeLocationC2ERKNSt3__112basic_stringIcNS2_11char_traitsIcEENS2_9allocatorIcEEEEi, align 8
  %file__ZN7testing8internal12CodeLocationC2ERKNSt3__112basic_stringIcNS2_11char_traitsIcEENS2_9allocatorIcEEEEi = getelementptr inbounds %"struct.testing::internal::CodeLocation", %"struct.testing::internal::CodeLocation"* %this1__ZN7testing8internal12CodeLocationC2ERKNSt3__112basic_stringIcNS2_11char_traitsIcEENS2_9allocatorIcEEEEi, i32 0, i32 0
  %tmp__ZN7testing8internal12CodeLocationC2ERKNSt3__112basic_stringIcNS2_11char_traitsIcEENS2_9allocatorIcEEEEi = load %"class.std::__1::basic_string"*, %"class.std::__1::basic_string"** %a_file.addr__ZN7testing8internal12CodeLocationC2ERKNSt3__112basic_stringIcNS2_11char_traitsIcEENS2_9allocatorIcEEEEi, align 8
  call void @_ZNSt3__112basic_stringIcNS_11char_traitsIcEENS_9allocatorIcEEEC1ERKS5_(%"class.std::__1::basic_string"* %file__ZN7testing8internal12CodeLocationC2ERKNSt3__112basic_stringIcNS2_11char_traitsIcEENS2_9allocatorIcEEEEi, %"class.std::__1::basic_string"* dereferenceable(24) %tmp__ZN7testing8internal12CodeLocationC2ERKNSt3__112basic_stringIcNS2_11char_traitsIcEENS2_9allocatorIcEEEEi)
  %line__ZN7testing8internal12CodeLocationC2ERKNSt3__112basic_stringIcNS2_11char_traitsIcEENS2_9allocatorIcEEEEi = getelementptr inbounds %"struct.testing::internal::CodeLocation", %"struct.testing::internal::CodeLocation"* %this1__ZN7testing8internal12CodeLocationC2ERKNSt3__112basic_stringIcNS2_11char_traitsIcEENS2_9allocatorIcEEEEi, i32 0, i32 1
  %tmp__ZN7testing8internal12CodeLocationC2ERKNSt3__112basic_stringIcNS2_11char_traitsIcEENS2_9allocatorIcEEEEi1 = load i32, i32* %a_line.addr__ZN7testing8internal12CodeLocationC2ERKNSt3__112basic_stringIcNS2_11char_traitsIcEENS2_9allocatorIcEEEEi, align 4
  store i32 %tmp__ZN7testing8internal12CodeLocationC2ERKNSt3__112basic_stringIcNS2_11char_traitsIcEENS2_9allocatorIcEEEEi1, i32* %line__ZN7testing8internal12CodeLocationC2ERKNSt3__112basic_stringIcNS2_11char_traitsIcEENS2_9allocatorIcEEEEi, align 8
  ret void
}

declare void @_ZNSt3__112basic_stringIcNS_11char_traitsIcEENS_9allocatorIcEEEC1ERKS5_(%"class.std::__1::basic_string"*, %"class.std::__1::basic_string"* dereferenceable(24)) unnamed_addr #1

; Function Attrs: noinline optnone ssp uwtable
define linkonce_odr void @_ZN7testing8internal15TestFactoryImplI14foo_test1_TestEC2Ev(%"class.testing::internal::TestFactoryImpl"* %this) unnamed_addr #2 align 2 {
entry:
  %this.addr__ZN7testing8internal15TestFactoryImplI14foo_test1_TestEC2Ev = alloca %"class.testing::internal::TestFactoryImpl"*, align 8
  store %"class.testing::internal::TestFactoryImpl"* %this, %"class.testing::internal::TestFactoryImpl"** %this.addr__ZN7testing8internal15TestFactoryImplI14foo_test1_TestEC2Ev, align 8
  %this1__ZN7testing8internal15TestFactoryImplI14foo_test1_TestEC2Ev = load %"class.testing::internal::TestFactoryImpl"*, %"class.testing::internal::TestFactoryImpl"** %this.addr__ZN7testing8internal15TestFactoryImplI14foo_test1_TestEC2Ev, align 8
  %tmp__ZN7testing8internal15TestFactoryImplI14foo_test1_TestEC2Ev = bitcast %"class.testing::internal::TestFactoryImpl"* %this1__ZN7testing8internal15TestFactoryImplI14foo_test1_TestEC2Ev to %"class.testing::internal::TestFactoryBase"*
  call void @_ZN7testing8internal15TestFactoryBaseC2Ev(%"class.testing::internal::TestFactoryBase"* %tmp__ZN7testing8internal15TestFactoryImplI14foo_test1_TestEC2Ev)
  %tmp__ZN7testing8internal15TestFactoryImplI14foo_test1_TestEC2Ev1 = bitcast %"class.testing::internal::TestFactoryImpl"* %this1__ZN7testing8internal15TestFactoryImplI14foo_test1_TestEC2Ev to i32 (...)***
  store i32 (...)** bitcast (i8** getelementptr inbounds ({ [5 x i8*] }, { [5 x i8*] }* @_ZTVN7testing8internal15TestFactoryImplI14foo_test1_TestEE, i32 0, inrange i32 0, i32 2) to i32 (...)**), i32 (...)*** %tmp__ZN7testing8internal15TestFactoryImplI14foo_test1_TestEC2Ev1, align 8
  ret void
}

; Function Attrs: noinline nounwind optnone ssp uwtable
define linkonce_odr void @_ZN7testing8internal15TestFactoryBaseC2Ev(%"class.testing::internal::TestFactoryBase"* %this) unnamed_addr #5 align 2 {
entry:
  %this.addr__ZN7testing8internal15TestFactoryBaseC2Ev = alloca %"class.testing::internal::TestFactoryBase"*, align 8
  store %"class.testing::internal::TestFactoryBase"* %this, %"class.testing::internal::TestFactoryBase"** %this.addr__ZN7testing8internal15TestFactoryBaseC2Ev, align 8
  %this1__ZN7testing8internal15TestFactoryBaseC2Ev = load %"class.testing::internal::TestFactoryBase"*, %"class.testing::internal::TestFactoryBase"** %this.addr__ZN7testing8internal15TestFactoryBaseC2Ev, align 8
  %tmp__ZN7testing8internal15TestFactoryBaseC2Ev = bitcast %"class.testing::internal::TestFactoryBase"* %this1__ZN7testing8internal15TestFactoryBaseC2Ev to i32 (...)***
  store i32 (...)** bitcast (i8** getelementptr inbounds ({ [5 x i8*] }, { [5 x i8*] }* @_ZTVN7testing8internal15TestFactoryBaseE, i32 0, inrange i32 0, i32 2) to i32 (...)**), i32 (...)*** %tmp__ZN7testing8internal15TestFactoryBaseC2Ev, align 8
  ret void
}

; Function Attrs: noinline nounwind optnone ssp uwtable
define linkonce_odr void @_ZN7testing8internal15TestFactoryImplI14foo_test1_TestED1Ev(%"class.testing::internal::TestFactoryImpl"* %this) unnamed_addr #5 align 2 {
entry:
  %this.addr__ZN7testing8internal15TestFactoryImplI14foo_test1_TestED1Ev = alloca %"class.testing::internal::TestFactoryImpl"*, align 8
  store %"class.testing::internal::TestFactoryImpl"* %this, %"class.testing::internal::TestFactoryImpl"** %this.addr__ZN7testing8internal15TestFactoryImplI14foo_test1_TestED1Ev, align 8
  %this1__ZN7testing8internal15TestFactoryImplI14foo_test1_TestED1Ev = load %"class.testing::internal::TestFactoryImpl"*, %"class.testing::internal::TestFactoryImpl"** %this.addr__ZN7testing8internal15TestFactoryImplI14foo_test1_TestED1Ev, align 8
  call void @_ZN7testing8internal15TestFactoryImplI14foo_test1_TestED2Ev(%"class.testing::internal::TestFactoryImpl"* %this1__ZN7testing8internal15TestFactoryImplI14foo_test1_TestED1Ev) #15
  ret void
}

; Function Attrs: noinline nounwind optnone ssp uwtable
define linkonce_odr void @_ZN7testing8internal15TestFactoryImplI14foo_test1_TestED0Ev(%"class.testing::internal::TestFactoryImpl"* %this) unnamed_addr #5 align 2 {
entry:
  %this.addr__ZN7testing8internal15TestFactoryImplI14foo_test1_TestED0Ev = alloca %"class.testing::internal::TestFactoryImpl"*, align 8
  store %"class.testing::internal::TestFactoryImpl"* %this, %"class.testing::internal::TestFactoryImpl"** %this.addr__ZN7testing8internal15TestFactoryImplI14foo_test1_TestED0Ev, align 8
  %this1__ZN7testing8internal15TestFactoryImplI14foo_test1_TestED0Ev = load %"class.testing::internal::TestFactoryImpl"*, %"class.testing::internal::TestFactoryImpl"** %this.addr__ZN7testing8internal15TestFactoryImplI14foo_test1_TestED0Ev, align 8
  call void @_ZN7testing8internal15TestFactoryImplI14foo_test1_TestED1Ev(%"class.testing::internal::TestFactoryImpl"* %this1__ZN7testing8internal15TestFactoryImplI14foo_test1_TestED0Ev) #15
  %tmp__ZN7testing8internal15TestFactoryImplI14foo_test1_TestED0Ev = bitcast %"class.testing::internal::TestFactoryImpl"* %this1__ZN7testing8internal15TestFactoryImplI14foo_test1_TestED0Ev to i8*
  call void @_ZdlPv(i8* %tmp__ZN7testing8internal15TestFactoryImplI14foo_test1_TestED0Ev) #16
  ret void
}

; Function Attrs: noinline optnone ssp uwtable
define linkonce_odr %"class.testing::Test"* @_ZN7testing8internal15TestFactoryImplI14foo_test1_TestE10CreateTestEv(%"class.testing::internal::TestFactoryImpl"* %this) unnamed_addr #2 align 2 personality i8* bitcast (i32 (...)* @__gxx_personality_v0 to i8*) {
entry:
  %this.addr__ZN7testing8internal15TestFactoryImplI14foo_test1_TestE10CreateTestEv = alloca %"class.testing::internal::TestFactoryImpl"*, align 8
  %exn.slot__ZN7testing8internal15TestFactoryImplI14foo_test1_TestE10CreateTestEv = alloca i8*
  %ehselector.slot__ZN7testing8internal15TestFactoryImplI14foo_test1_TestE10CreateTestEv = alloca i32
  store %"class.testing::internal::TestFactoryImpl"* %this, %"class.testing::internal::TestFactoryImpl"** %this.addr__ZN7testing8internal15TestFactoryImplI14foo_test1_TestE10CreateTestEv, align 8
  %this1__ZN7testing8internal15TestFactoryImplI14foo_test1_TestE10CreateTestEv = load %"class.testing::internal::TestFactoryImpl"*, %"class.testing::internal::TestFactoryImpl"** %this.addr__ZN7testing8internal15TestFactoryImplI14foo_test1_TestE10CreateTestEv, align 8
  %call__ZN7testing8internal15TestFactoryImplI14foo_test1_TestE10CreateTestEv = call i8* @_Znwm(i64 16) #14
  %tmp__ZN7testing8internal15TestFactoryImplI14foo_test1_TestE10CreateTestEv = bitcast i8* %call__ZN7testing8internal15TestFactoryImplI14foo_test1_TestE10CreateTestEv to %class.foo_test1_Test*
  invoke void @_ZN14foo_test1_TestC1Ev(%class.foo_test1_Test* %tmp__ZN7testing8internal15TestFactoryImplI14foo_test1_TestE10CreateTestEv)
          to label %invoke.cont unwind label %lpad

invoke.cont:                                      ; preds = %entry
  %tmp__ZN7testing8internal15TestFactoryImplI14foo_test1_TestE10CreateTestEv1 = bitcast %class.foo_test1_Test* %tmp__ZN7testing8internal15TestFactoryImplI14foo_test1_TestE10CreateTestEv to %"class.testing::Test"*
  ret %"class.testing::Test"* %tmp__ZN7testing8internal15TestFactoryImplI14foo_test1_TestE10CreateTestEv1

lpad:                                             ; preds = %entry
  %tmp__ZN7testing8internal15TestFactoryImplI14foo_test1_TestE10CreateTestEv2 = landingpad { i8*, i32 }
          cleanup
  %tmp__ZN7testing8internal15TestFactoryImplI14foo_test1_TestE10CreateTestEv3 = extractvalue { i8*, i32 } %tmp__ZN7testing8internal15TestFactoryImplI14foo_test1_TestE10CreateTestEv2, 0
  store i8* %tmp__ZN7testing8internal15TestFactoryImplI14foo_test1_TestE10CreateTestEv3, i8** %exn.slot__ZN7testing8internal15TestFactoryImplI14foo_test1_TestE10CreateTestEv, align 8
  %tmp__ZN7testing8internal15TestFactoryImplI14foo_test1_TestE10CreateTestEv4 = extractvalue { i8*, i32 } %tmp__ZN7testing8internal15TestFactoryImplI14foo_test1_TestE10CreateTestEv2, 1
  store i32 %tmp__ZN7testing8internal15TestFactoryImplI14foo_test1_TestE10CreateTestEv4, i32* %ehselector.slot__ZN7testing8internal15TestFactoryImplI14foo_test1_TestE10CreateTestEv, align 4
  call void @_ZdlPv(i8* %call__ZN7testing8internal15TestFactoryImplI14foo_test1_TestE10CreateTestEv) #16
  br label %eh.resume

eh.resume:                                        ; preds = %lpad
  %exn__ZN7testing8internal15TestFactoryImplI14foo_test1_TestE10CreateTestEv = load i8*, i8** %exn.slot__ZN7testing8internal15TestFactoryImplI14foo_test1_TestE10CreateTestEv, align 8
  %sel__ZN7testing8internal15TestFactoryImplI14foo_test1_TestE10CreateTestEv = load i32, i32* %ehselector.slot__ZN7testing8internal15TestFactoryImplI14foo_test1_TestE10CreateTestEv, align 4
  %lpad.val__ZN7testing8internal15TestFactoryImplI14foo_test1_TestE10CreateTestEv = insertvalue { i8*, i32 } undef, i8* %exn__ZN7testing8internal15TestFactoryImplI14foo_test1_TestE10CreateTestEv, 0
  %lpad.val2__ZN7testing8internal15TestFactoryImplI14foo_test1_TestE10CreateTestEv = insertvalue { i8*, i32 } %lpad.val__ZN7testing8internal15TestFactoryImplI14foo_test1_TestE10CreateTestEv, i32 %sel__ZN7testing8internal15TestFactoryImplI14foo_test1_TestE10CreateTestEv, 1
  resume { i8*, i32 } %lpad.val2__ZN7testing8internal15TestFactoryImplI14foo_test1_TestE10CreateTestEv
}

; Function Attrs: noinline nounwind optnone ssp uwtable
define linkonce_odr void @_ZN7testing8internal15TestFactoryBaseD1Ev(%"class.testing::internal::TestFactoryBase"* %this) unnamed_addr #5 align 2 {
entry:
  %this.addr__ZN7testing8internal15TestFactoryBaseD1Ev = alloca %"class.testing::internal::TestFactoryBase"*, align 8
  store %"class.testing::internal::TestFactoryBase"* %this, %"class.testing::internal::TestFactoryBase"** %this.addr__ZN7testing8internal15TestFactoryBaseD1Ev, align 8
  %this1__ZN7testing8internal15TestFactoryBaseD1Ev = load %"class.testing::internal::TestFactoryBase"*, %"class.testing::internal::TestFactoryBase"** %this.addr__ZN7testing8internal15TestFactoryBaseD1Ev, align 8
  call void @llvm.trap() #17
  unreachable

return:                                           ; No predecessors!
  ret void
}

; Function Attrs: noinline nounwind optnone ssp uwtable
define linkonce_odr void @_ZN7testing8internal15TestFactoryBaseD0Ev(%"class.testing::internal::TestFactoryBase"* %this) unnamed_addr #5 align 2 {
entry:
  %this.addr__ZN7testing8internal15TestFactoryBaseD0Ev = alloca %"class.testing::internal::TestFactoryBase"*, align 8
  store %"class.testing::internal::TestFactoryBase"* %this, %"class.testing::internal::TestFactoryBase"** %this.addr__ZN7testing8internal15TestFactoryBaseD0Ev, align 8
  %this1__ZN7testing8internal15TestFactoryBaseD0Ev = load %"class.testing::internal::TestFactoryBase"*, %"class.testing::internal::TestFactoryBase"** %this.addr__ZN7testing8internal15TestFactoryBaseD0Ev, align 8
  call void @llvm.trap() #17
  unreachable

return:                                           ; No predecessors!
  ret void
}

declare void @__cxa_pure_virtual() unnamed_addr

; Function Attrs: cold noreturn nounwind
declare void @llvm.trap() #8

; Function Attrs: noinline nounwind optnone ssp uwtable
define linkonce_odr void @_ZN7testing8internal15TestFactoryImplI14foo_test1_TestED2Ev(%"class.testing::internal::TestFactoryImpl"* %this) unnamed_addr #5 align 2 {
entry:
  %this.addr__ZN7testing8internal15TestFactoryImplI14foo_test1_TestED2Ev = alloca %"class.testing::internal::TestFactoryImpl"*, align 8
  store %"class.testing::internal::TestFactoryImpl"* %this, %"class.testing::internal::TestFactoryImpl"** %this.addr__ZN7testing8internal15TestFactoryImplI14foo_test1_TestED2Ev, align 8
  %this1__ZN7testing8internal15TestFactoryImplI14foo_test1_TestED2Ev = load %"class.testing::internal::TestFactoryImpl"*, %"class.testing::internal::TestFactoryImpl"** %this.addr__ZN7testing8internal15TestFactoryImplI14foo_test1_TestED2Ev, align 8
  %tmp__ZN7testing8internal15TestFactoryImplI14foo_test1_TestED2Ev = bitcast %"class.testing::internal::TestFactoryImpl"* %this1__ZN7testing8internal15TestFactoryImplI14foo_test1_TestED2Ev to %"class.testing::internal::TestFactoryBase"*
  call void @_ZN7testing8internal15TestFactoryBaseD2Ev(%"class.testing::internal::TestFactoryBase"* %tmp__ZN7testing8internal15TestFactoryImplI14foo_test1_TestED2Ev) #15
  ret void
}

; Function Attrs: noinline nounwind optnone ssp uwtable
define linkonce_odr void @_ZN7testing8internal15TestFactoryBaseD2Ev(%"class.testing::internal::TestFactoryBase"* %this) unnamed_addr #5 align 2 {
entry:
  %this.addr__ZN7testing8internal15TestFactoryBaseD2Ev = alloca %"class.testing::internal::TestFactoryBase"*, align 8
  store %"class.testing::internal::TestFactoryBase"* %this, %"class.testing::internal::TestFactoryBase"** %this.addr__ZN7testing8internal15TestFactoryBaseD2Ev, align 8
  %this1__ZN7testing8internal15TestFactoryBaseD2Ev = load %"class.testing::internal::TestFactoryBase"*, %"class.testing::internal::TestFactoryBase"** %this.addr__ZN7testing8internal15TestFactoryBaseD2Ev, align 8
  ret void
}

; Function Attrs: noinline optnone ssp uwtable
define linkonce_odr void @_ZN14foo_test1_TestC1Ev(%class.foo_test1_Test* %this) unnamed_addr #2 align 2 {
entry:
  %this.addr__ZN14foo_test1_TestC1Ev = alloca %class.foo_test1_Test*, align 8
  store %class.foo_test1_Test* %this, %class.foo_test1_Test** %this.addr__ZN14foo_test1_TestC1Ev, align 8
  %this1__ZN14foo_test1_TestC1Ev = load %class.foo_test1_Test*, %class.foo_test1_Test** %this.addr__ZN14foo_test1_TestC1Ev, align 8
  call void @_ZN14foo_test1_TestC2Ev(%class.foo_test1_Test* %this1__ZN14foo_test1_TestC1Ev)
  ret void
}

; Function Attrs: noinline optnone ssp uwtable
define linkonce_odr void @_ZN14foo_test1_TestC2Ev(%class.foo_test1_Test* %this) unnamed_addr #2 align 2 {
entry:
  %this.addr__ZN14foo_test1_TestC2Ev = alloca %class.foo_test1_Test*, align 8
  store %class.foo_test1_Test* %this, %class.foo_test1_Test** %this.addr__ZN14foo_test1_TestC2Ev, align 8
  %this1__ZN14foo_test1_TestC2Ev = load %class.foo_test1_Test*, %class.foo_test1_Test** %this.addr__ZN14foo_test1_TestC2Ev, align 8
  %tmp__ZN14foo_test1_TestC2Ev = bitcast %class.foo_test1_Test* %this1__ZN14foo_test1_TestC2Ev to %"class.testing::Test"*
  call void @_ZN7testing4TestC2Ev(%"class.testing::Test"* %tmp__ZN14foo_test1_TestC2Ev)
  %tmp__ZN14foo_test1_TestC2Ev1 = bitcast %class.foo_test1_Test* %this1__ZN14foo_test1_TestC2Ev to i32 (...)***
  store i32 (...)** bitcast (i8** getelementptr inbounds ({ [8 x i8*] }, { [8 x i8*] }* @_ZTV14foo_test1_Test, i32 0, inrange i32 0, i32 2) to i32 (...)**), i32 (...)*** %tmp__ZN14foo_test1_TestC2Ev1, align 8
  ret void
}

declare void @_ZN7testing4TestC2Ev(%"class.testing::Test"*) unnamed_addr #1

; Function Attrs: noinline nounwind optnone ssp uwtable
define linkonce_odr void @_ZN7testing8internal12CodeLocationD2Ev(%"struct.testing::internal::CodeLocation"* %this) unnamed_addr #5 align 2 {
entry:
  %this.addr__ZN7testing8internal12CodeLocationD2Ev = alloca %"struct.testing::internal::CodeLocation"*, align 8
  store %"struct.testing::internal::CodeLocation"* %this, %"struct.testing::internal::CodeLocation"** %this.addr__ZN7testing8internal12CodeLocationD2Ev, align 8
  %this1__ZN7testing8internal12CodeLocationD2Ev = load %"struct.testing::internal::CodeLocation"*, %"struct.testing::internal::CodeLocation"** %this.addr__ZN7testing8internal12CodeLocationD2Ev, align 8
  %file__ZN7testing8internal12CodeLocationD2Ev = getelementptr inbounds %"struct.testing::internal::CodeLocation", %"struct.testing::internal::CodeLocation"* %this1__ZN7testing8internal12CodeLocationD2Ev, i32 0, i32 0
  call void @_ZNSt3__112basic_stringIcNS_11char_traitsIcEENS_9allocatorIcEEED1Ev(%"class.std::__1::basic_string"* %file__ZN7testing8internal12CodeLocationD2Ev) #15
  ret void
}

; Function Attrs: noinline nounwind optnone ssp uwtable
define linkonce_odr i8* @_ZNK7testing15AssertionResult7messageEv(%"class.testing::AssertionResult"* %this) #5 align 2 {
entry:
  %this.addr__ZNK7testing15AssertionResult7messageEv = alloca %"class.testing::AssertionResult"*, align 8
  store %"class.testing::AssertionResult"* %this, %"class.testing::AssertionResult"** %this.addr__ZNK7testing15AssertionResult7messageEv, align 8
  %this1__ZNK7testing15AssertionResult7messageEv = load %"class.testing::AssertionResult"*, %"class.testing::AssertionResult"** %this.addr__ZNK7testing15AssertionResult7messageEv, align 8
  %message___ZNK7testing15AssertionResult7messageEv = getelementptr inbounds %"class.testing::AssertionResult", %"class.testing::AssertionResult"* %this1__ZNK7testing15AssertionResult7messageEv, i32 0, i32 1
  %call__ZNK7testing15AssertionResult7messageEv = call %"class.std::__1::basic_string"* @_ZNKSt3__110unique_ptrINS_12basic_stringIcNS_11char_traitsIcEENS_9allocatorIcEEEENS_14default_deleteIS6_EEE3getEv(%"class.std::__1::unique_ptr.23"* %message___ZNK7testing15AssertionResult7messageEv) #15
  %cmp__ZNK7testing15AssertionResult7messageEv = icmp ne %"class.std::__1::basic_string"* %call__ZNK7testing15AssertionResult7messageEv, null
  br i1 %cmp__ZNK7testing15AssertionResult7messageEv, label %cond.true, label %cond.false

cond.true:                                        ; preds = %entry
  %message_2__ZNK7testing15AssertionResult7messageEv = getelementptr inbounds %"class.testing::AssertionResult", %"class.testing::AssertionResult"* %this1__ZNK7testing15AssertionResult7messageEv, i32 0, i32 1
  %call3__ZNK7testing15AssertionResult7messageEv = call %"class.std::__1::basic_string"* @_ZNKSt3__110unique_ptrINS_12basic_stringIcNS_11char_traitsIcEENS_9allocatorIcEEEENS_14default_deleteIS6_EEEptEv(%"class.std::__1::unique_ptr.23"* %message_2__ZNK7testing15AssertionResult7messageEv) #15
  %call4__ZNK7testing15AssertionResult7messageEv = call i8* @_ZNKSt3__112basic_stringIcNS_11char_traitsIcEENS_9allocatorIcEEE5c_strEv(%"class.std::__1::basic_string"* %call3__ZNK7testing15AssertionResult7messageEv) #15
  br label %cond.end

cond.false:                                       ; preds = %entry
  br label %cond.end

cond.end:                                         ; preds = %cond.false, %cond.true
  %cond__ZNK7testing15AssertionResult7messageEv = phi i8* [ %call4__ZNK7testing15AssertionResult7messageEv, %cond.true ], [ getelementptr inbounds ([1 x i8], [1 x i8]* @.str.8, i32 0, i32 0), %cond.false ]
  ret i8* %cond__ZNK7testing15AssertionResult7messageEv
}

; Function Attrs: noinline nounwind optnone ssp uwtable
define internal %"class.std::__1::basic_string"* @_ZNKSt3__110unique_ptrINS_12basic_stringIcNS_11char_traitsIcEENS_9allocatorIcEEEENS_14default_deleteIS6_EEE3getEv(%"class.std::__1::unique_ptr.23"* %this) #5 align 2 {
entry:
  %this.addr__ZNKSt3__110unique_ptrINS_12basic_stringIcNS_11char_traitsIcEENS_9allocatorIcEEEENS_14default_deleteIS6_EEE3getEv = alloca %"class.std::__1::unique_ptr.23"*, align 8
  store %"class.std::__1::unique_ptr.23"* %this, %"class.std::__1::unique_ptr.23"** %this.addr__ZNKSt3__110unique_ptrINS_12basic_stringIcNS_11char_traitsIcEENS_9allocatorIcEEEENS_14default_deleteIS6_EEE3getEv, align 8
  %this1__ZNKSt3__110unique_ptrINS_12basic_stringIcNS_11char_traitsIcEENS_9allocatorIcEEEENS_14default_deleteIS6_EEE3getEv = load %"class.std::__1::unique_ptr.23"*, %"class.std::__1::unique_ptr.23"** %this.addr__ZNKSt3__110unique_ptrINS_12basic_stringIcNS_11char_traitsIcEENS_9allocatorIcEEEENS_14default_deleteIS6_EEE3getEv, align 8
  %__ptr___ZNKSt3__110unique_ptrINS_12basic_stringIcNS_11char_traitsIcEENS_9allocatorIcEEEENS_14default_deleteIS6_EEE3getEv = getelementptr inbounds %"class.std::__1::unique_ptr.23", %"class.std::__1::unique_ptr.23"* %this1__ZNKSt3__110unique_ptrINS_12basic_stringIcNS_11char_traitsIcEENS_9allocatorIcEEEENS_14default_deleteIS6_EEE3getEv, i32 0, i32 0
  %call__ZNKSt3__110unique_ptrINS_12basic_stringIcNS_11char_traitsIcEENS_9allocatorIcEEEENS_14default_deleteIS6_EEE3getEv = call dereferenceable(8) %"class.std::__1::basic_string"** @_ZNKSt3__117__compressed_pairIPNS_12basic_stringIcNS_11char_traitsIcEENS_9allocatorIcEEEENS_14default_deleteIS6_EEE5firstEv(%"class.std::__1::__compressed_pair.24"* %__ptr___ZNKSt3__110unique_ptrINS_12basic_stringIcNS_11char_traitsIcEENS_9allocatorIcEEEENS_14default_deleteIS6_EEE3getEv) #15
  %tmp__ZNKSt3__110unique_ptrINS_12basic_stringIcNS_11char_traitsIcEENS_9allocatorIcEEEENS_14default_deleteIS6_EEE3getEv = load %"class.std::__1::basic_string"*, %"class.std::__1::basic_string"** %call__ZNKSt3__110unique_ptrINS_12basic_stringIcNS_11char_traitsIcEENS_9allocatorIcEEEENS_14default_deleteIS6_EEE3getEv, align 8
  ret %"class.std::__1::basic_string"* %tmp__ZNKSt3__110unique_ptrINS_12basic_stringIcNS_11char_traitsIcEENS_9allocatorIcEEEENS_14default_deleteIS6_EEE3getEv
}

; Function Attrs: noinline nounwind optnone ssp uwtable
define internal %"class.std::__1::basic_string"* @_ZNKSt3__110unique_ptrINS_12basic_stringIcNS_11char_traitsIcEENS_9allocatorIcEEEENS_14default_deleteIS6_EEEptEv(%"class.std::__1::unique_ptr.23"* %this) #5 align 2 {
entry:
  %this.addr__ZNKSt3__110unique_ptrINS_12basic_stringIcNS_11char_traitsIcEENS_9allocatorIcEEEENS_14default_deleteIS6_EEEptEv = alloca %"class.std::__1::unique_ptr.23"*, align 8
  store %"class.std::__1::unique_ptr.23"* %this, %"class.std::__1::unique_ptr.23"** %this.addr__ZNKSt3__110unique_ptrINS_12basic_stringIcNS_11char_traitsIcEENS_9allocatorIcEEEENS_14default_deleteIS6_EEEptEv, align 8
  %this1__ZNKSt3__110unique_ptrINS_12basic_stringIcNS_11char_traitsIcEENS_9allocatorIcEEEENS_14default_deleteIS6_EEEptEv = load %"class.std::__1::unique_ptr.23"*, %"class.std::__1::unique_ptr.23"** %this.addr__ZNKSt3__110unique_ptrINS_12basic_stringIcNS_11char_traitsIcEENS_9allocatorIcEEEENS_14default_deleteIS6_EEEptEv, align 8
  %__ptr___ZNKSt3__110unique_ptrINS_12basic_stringIcNS_11char_traitsIcEENS_9allocatorIcEEEENS_14default_deleteIS6_EEEptEv = getelementptr inbounds %"class.std::__1::unique_ptr.23", %"class.std::__1::unique_ptr.23"* %this1__ZNKSt3__110unique_ptrINS_12basic_stringIcNS_11char_traitsIcEENS_9allocatorIcEEEENS_14default_deleteIS6_EEEptEv, i32 0, i32 0
  %call__ZNKSt3__110unique_ptrINS_12basic_stringIcNS_11char_traitsIcEENS_9allocatorIcEEEENS_14default_deleteIS6_EEEptEv = call dereferenceable(8) %"class.std::__1::basic_string"** @_ZNKSt3__117__compressed_pairIPNS_12basic_stringIcNS_11char_traitsIcEENS_9allocatorIcEEEENS_14default_deleteIS6_EEE5firstEv(%"class.std::__1::__compressed_pair.24"* %__ptr___ZNKSt3__110unique_ptrINS_12basic_stringIcNS_11char_traitsIcEENS_9allocatorIcEEEENS_14default_deleteIS6_EEEptEv) #15
  %tmp__ZNKSt3__110unique_ptrINS_12basic_stringIcNS_11char_traitsIcEENS_9allocatorIcEEEENS_14default_deleteIS6_EEEptEv = load %"class.std::__1::basic_string"*, %"class.std::__1::basic_string"** %call__ZNKSt3__110unique_ptrINS_12basic_stringIcNS_11char_traitsIcEENS_9allocatorIcEEEENS_14default_deleteIS6_EEEptEv, align 8
  ret %"class.std::__1::basic_string"* %tmp__ZNKSt3__110unique_ptrINS_12basic_stringIcNS_11char_traitsIcEENS_9allocatorIcEEEENS_14default_deleteIS6_EEEptEv
}

; Function Attrs: noinline nounwind optnone ssp uwtable
define internal i8* @_ZNKSt3__112basic_stringIcNS_11char_traitsIcEENS_9allocatorIcEEE5c_strEv(%"class.std::__1::basic_string"* %this) #5 align 2 {
entry:
  %this.addr__ZNKSt3__112basic_stringIcNS_11char_traitsIcEENS_9allocatorIcEEE5c_strEv = alloca %"class.std::__1::basic_string"*, align 8
  store %"class.std::__1::basic_string"* %this, %"class.std::__1::basic_string"** %this.addr__ZNKSt3__112basic_stringIcNS_11char_traitsIcEENS_9allocatorIcEEE5c_strEv, align 8
  %this1__ZNKSt3__112basic_stringIcNS_11char_traitsIcEENS_9allocatorIcEEE5c_strEv = load %"class.std::__1::basic_string"*, %"class.std::__1::basic_string"** %this.addr__ZNKSt3__112basic_stringIcNS_11char_traitsIcEENS_9allocatorIcEEE5c_strEv, align 8
  %call__ZNKSt3__112basic_stringIcNS_11char_traitsIcEENS_9allocatorIcEEE5c_strEv = call i8* @_ZNKSt3__112basic_stringIcNS_11char_traitsIcEENS_9allocatorIcEEE4dataEv(%"class.std::__1::basic_string"* %this1__ZNKSt3__112basic_stringIcNS_11char_traitsIcEENS_9allocatorIcEEE5c_strEv) #15
  ret i8* %call__ZNKSt3__112basic_stringIcNS_11char_traitsIcEENS_9allocatorIcEEE5c_strEv
}

; Function Attrs: noinline nounwind optnone ssp uwtable
define internal dereferenceable(8) %"class.std::__1::basic_string"** @_ZNKSt3__117__compressed_pairIPNS_12basic_stringIcNS_11char_traitsIcEENS_9allocatorIcEEEENS_14default_deleteIS6_EEE5firstEv(%"class.std::__1::__compressed_pair.24"* %this) #5 align 2 {
entry:
  %this.addr__ZNKSt3__117__compressed_pairIPNS_12basic_stringIcNS_11char_traitsIcEENS_9allocatorIcEEEENS_14default_deleteIS6_EEE5firstEv = alloca %"class.std::__1::__compressed_pair.24"*, align 8
  store %"class.std::__1::__compressed_pair.24"* %this, %"class.std::__1::__compressed_pair.24"** %this.addr__ZNKSt3__117__compressed_pairIPNS_12basic_stringIcNS_11char_traitsIcEENS_9allocatorIcEEEENS_14default_deleteIS6_EEE5firstEv, align 8
  %this1__ZNKSt3__117__compressed_pairIPNS_12basic_stringIcNS_11char_traitsIcEENS_9allocatorIcEEEENS_14default_deleteIS6_EEE5firstEv = load %"class.std::__1::__compressed_pair.24"*, %"class.std::__1::__compressed_pair.24"** %this.addr__ZNKSt3__117__compressed_pairIPNS_12basic_stringIcNS_11char_traitsIcEENS_9allocatorIcEEEENS_14default_deleteIS6_EEE5firstEv, align 8
  %tmp__ZNKSt3__117__compressed_pairIPNS_12basic_stringIcNS_11char_traitsIcEENS_9allocatorIcEEEENS_14default_deleteIS6_EEE5firstEv = bitcast %"class.std::__1::__compressed_pair.24"* %this1__ZNKSt3__117__compressed_pairIPNS_12basic_stringIcNS_11char_traitsIcEENS_9allocatorIcEEEENS_14default_deleteIS6_EEE5firstEv to %"struct.std::__1::__compressed_pair_elem.25"*
  %call__ZNKSt3__117__compressed_pairIPNS_12basic_stringIcNS_11char_traitsIcEENS_9allocatorIcEEEENS_14default_deleteIS6_EEE5firstEv = call dereferenceable(8) %"class.std::__1::basic_string"** @_ZNKSt3__122__compressed_pair_elemIPNS_12basic_stringIcNS_11char_traitsIcEENS_9allocatorIcEEEELi0ELb0EE5__getEv(%"struct.std::__1::__compressed_pair_elem.25"* %tmp__ZNKSt3__117__compressed_pairIPNS_12basic_stringIcNS_11char_traitsIcEENS_9allocatorIcEEEENS_14default_deleteIS6_EEE5firstEv) #15
  ret %"class.std::__1::basic_string"** %call__ZNKSt3__117__compressed_pairIPNS_12basic_stringIcNS_11char_traitsIcEENS_9allocatorIcEEEENS_14default_deleteIS6_EEE5firstEv
}

; Function Attrs: noinline nounwind optnone ssp uwtable
define internal dereferenceable(8) %"class.std::__1::basic_string"** @_ZNKSt3__122__compressed_pair_elemIPNS_12basic_stringIcNS_11char_traitsIcEENS_9allocatorIcEEEELi0ELb0EE5__getEv(%"struct.std::__1::__compressed_pair_elem.25"* %this) #5 align 2 {
entry:
  %this.addr__ZNKSt3__122__compressed_pair_elemIPNS_12basic_stringIcNS_11char_traitsIcEENS_9allocatorIcEEEELi0ELb0EE5__getEv = alloca %"struct.std::__1::__compressed_pair_elem.25"*, align 8
  store %"struct.std::__1::__compressed_pair_elem.25"* %this, %"struct.std::__1::__compressed_pair_elem.25"** %this.addr__ZNKSt3__122__compressed_pair_elemIPNS_12basic_stringIcNS_11char_traitsIcEENS_9allocatorIcEEEELi0ELb0EE5__getEv, align 8
  %this1__ZNKSt3__122__compressed_pair_elemIPNS_12basic_stringIcNS_11char_traitsIcEENS_9allocatorIcEEEELi0ELb0EE5__getEv = load %"struct.std::__1::__compressed_pair_elem.25"*, %"struct.std::__1::__compressed_pair_elem.25"** %this.addr__ZNKSt3__122__compressed_pair_elemIPNS_12basic_stringIcNS_11char_traitsIcEENS_9allocatorIcEEEELi0ELb0EE5__getEv, align 8
  %__value___ZNKSt3__122__compressed_pair_elemIPNS_12basic_stringIcNS_11char_traitsIcEENS_9allocatorIcEEEELi0ELb0EE5__getEv = getelementptr inbounds %"struct.std::__1::__compressed_pair_elem.25", %"struct.std::__1::__compressed_pair_elem.25"* %this1__ZNKSt3__122__compressed_pair_elemIPNS_12basic_stringIcNS_11char_traitsIcEENS_9allocatorIcEEEELi0ELb0EE5__getEv, i32 0, i32 0
  ret %"class.std::__1::basic_string"** %__value___ZNKSt3__122__compressed_pair_elemIPNS_12basic_stringIcNS_11char_traitsIcEENS_9allocatorIcEEEELi0ELb0EE5__getEv
}

; Function Attrs: noinline nounwind optnone ssp uwtable
define internal i8* @_ZNKSt3__112basic_stringIcNS_11char_traitsIcEENS_9allocatorIcEEE4dataEv(%"class.std::__1::basic_string"* %this) #5 align 2 {
entry:
  %this.addr__ZNKSt3__112basic_stringIcNS_11char_traitsIcEENS_9allocatorIcEEE4dataEv = alloca %"class.std::__1::basic_string"*, align 8
  store %"class.std::__1::basic_string"* %this, %"class.std::__1::basic_string"** %this.addr__ZNKSt3__112basic_stringIcNS_11char_traitsIcEENS_9allocatorIcEEE4dataEv, align 8
  %this1__ZNKSt3__112basic_stringIcNS_11char_traitsIcEENS_9allocatorIcEEE4dataEv = load %"class.std::__1::basic_string"*, %"class.std::__1::basic_string"** %this.addr__ZNKSt3__112basic_stringIcNS_11char_traitsIcEENS_9allocatorIcEEE4dataEv, align 8
  %call__ZNKSt3__112basic_stringIcNS_11char_traitsIcEENS_9allocatorIcEEE4dataEv = call i8* @_ZNKSt3__112basic_stringIcNS_11char_traitsIcEENS_9allocatorIcEEE13__get_pointerEv(%"class.std::__1::basic_string"* %this1__ZNKSt3__112basic_stringIcNS_11char_traitsIcEENS_9allocatorIcEEE4dataEv) #15
  %call2__ZNKSt3__112basic_stringIcNS_11char_traitsIcEENS_9allocatorIcEEE4dataEv = call i8* @_ZNSt3__1L16__to_raw_pointerIKcEEPT_S3_(i8* %call__ZNKSt3__112basic_stringIcNS_11char_traitsIcEENS_9allocatorIcEEE4dataEv) #15
  ret i8* %call2__ZNKSt3__112basic_stringIcNS_11char_traitsIcEENS_9allocatorIcEEE4dataEv
}

; Function Attrs: noinline nounwind optnone ssp uwtable
define internal i8* @_ZNSt3__1L16__to_raw_pointerIKcEEPT_S3_(i8* %__p) #5 {
entry:
  %__p.addr__ZNSt3__1L16__to_raw_pointerIKcEEPT_S3_ = alloca i8*, align 8
  store i8* %__p, i8** %__p.addr__ZNSt3__1L16__to_raw_pointerIKcEEPT_S3_, align 8
  %tmp__ZNSt3__1L16__to_raw_pointerIKcEEPT_S3_ = load i8*, i8** %__p.addr__ZNSt3__1L16__to_raw_pointerIKcEEPT_S3_, align 8
  ret i8* %tmp__ZNSt3__1L16__to_raw_pointerIKcEEPT_S3_
}

; Function Attrs: noinline nounwind optnone ssp uwtable
define internal i8* @_ZNKSt3__112basic_stringIcNS_11char_traitsIcEENS_9allocatorIcEEE13__get_pointerEv(%"class.std::__1::basic_string"* %this) #5 align 2 {
entry:
  %this.addr__ZNKSt3__112basic_stringIcNS_11char_traitsIcEENS_9allocatorIcEEE13__get_pointerEv = alloca %"class.std::__1::basic_string"*, align 8
  store %"class.std::__1::basic_string"* %this, %"class.std::__1::basic_string"** %this.addr__ZNKSt3__112basic_stringIcNS_11char_traitsIcEENS_9allocatorIcEEE13__get_pointerEv, align 8
  %this1__ZNKSt3__112basic_stringIcNS_11char_traitsIcEENS_9allocatorIcEEE13__get_pointerEv = load %"class.std::__1::basic_string"*, %"class.std::__1::basic_string"** %this.addr__ZNKSt3__112basic_stringIcNS_11char_traitsIcEENS_9allocatorIcEEE13__get_pointerEv, align 8
  %call__ZNKSt3__112basic_stringIcNS_11char_traitsIcEENS_9allocatorIcEEE13__get_pointerEv = call zeroext i1 @_ZNKSt3__112basic_stringIcNS_11char_traitsIcEENS_9allocatorIcEEE9__is_longEv(%"class.std::__1::basic_string"* %this1__ZNKSt3__112basic_stringIcNS_11char_traitsIcEENS_9allocatorIcEEE13__get_pointerEv) #15
  br i1 %call__ZNKSt3__112basic_stringIcNS_11char_traitsIcEENS_9allocatorIcEEE13__get_pointerEv, label %cond.true, label %cond.false

cond.true:                                        ; preds = %entry
  %call2__ZNKSt3__112basic_stringIcNS_11char_traitsIcEENS_9allocatorIcEEE13__get_pointerEv = call i8* @_ZNKSt3__112basic_stringIcNS_11char_traitsIcEENS_9allocatorIcEEE18__get_long_pointerEv(%"class.std::__1::basic_string"* %this1__ZNKSt3__112basic_stringIcNS_11char_traitsIcEENS_9allocatorIcEEE13__get_pointerEv) #15
  br label %cond.end

cond.false:                                       ; preds = %entry
  %call3__ZNKSt3__112basic_stringIcNS_11char_traitsIcEENS_9allocatorIcEEE13__get_pointerEv = call i8* @_ZNKSt3__112basic_stringIcNS_11char_traitsIcEENS_9allocatorIcEEE19__get_short_pointerEv(%"class.std::__1::basic_string"* %this1__ZNKSt3__112basic_stringIcNS_11char_traitsIcEENS_9allocatorIcEEE13__get_pointerEv) #15
  br label %cond.end

cond.end:                                         ; preds = %cond.false, %cond.true
  %cond__ZNKSt3__112basic_stringIcNS_11char_traitsIcEENS_9allocatorIcEEE13__get_pointerEv = phi i8* [ %call2__ZNKSt3__112basic_stringIcNS_11char_traitsIcEENS_9allocatorIcEEE13__get_pointerEv, %cond.true ], [ %call3__ZNKSt3__112basic_stringIcNS_11char_traitsIcEENS_9allocatorIcEEE13__get_pointerEv, %cond.false ]
  ret i8* %cond__ZNKSt3__112basic_stringIcNS_11char_traitsIcEENS_9allocatorIcEEE13__get_pointerEv
}

; Function Attrs: noinline nounwind optnone ssp uwtable
define internal zeroext i1 @_ZNKSt3__112basic_stringIcNS_11char_traitsIcEENS_9allocatorIcEEE9__is_longEv(%"class.std::__1::basic_string"* %this) #5 align 2 {
entry:
  %this.addr__ZNKSt3__112basic_stringIcNS_11char_traitsIcEENS_9allocatorIcEEE9__is_longEv = alloca %"class.std::__1::basic_string"*, align 8
  store %"class.std::__1::basic_string"* %this, %"class.std::__1::basic_string"** %this.addr__ZNKSt3__112basic_stringIcNS_11char_traitsIcEENS_9allocatorIcEEE9__is_longEv, align 8
  %this1__ZNKSt3__112basic_stringIcNS_11char_traitsIcEENS_9allocatorIcEEE9__is_longEv = load %"class.std::__1::basic_string"*, %"class.std::__1::basic_string"** %this.addr__ZNKSt3__112basic_stringIcNS_11char_traitsIcEENS_9allocatorIcEEE9__is_longEv, align 8
  %__r___ZNKSt3__112basic_stringIcNS_11char_traitsIcEENS_9allocatorIcEEE9__is_longEv = getelementptr inbounds %"class.std::__1::basic_string", %"class.std::__1::basic_string"* %this1__ZNKSt3__112basic_stringIcNS_11char_traitsIcEENS_9allocatorIcEEE9__is_longEv, i32 0, i32 0
  %call__ZNKSt3__112basic_stringIcNS_11char_traitsIcEENS_9allocatorIcEEE9__is_longEv = call dereferenceable(24) %"struct.std::__1::basic_string<char, std::__1::char_traits<char>, std::__1::allocator<char> >::__rep"* @_ZNKSt3__117__compressed_pairINS_12basic_stringIcNS_11char_traitsIcEENS_9allocatorIcEEE5__repES5_E5firstEv(%"class.std::__1::__compressed_pair"* %__r___ZNKSt3__112basic_stringIcNS_11char_traitsIcEENS_9allocatorIcEEE9__is_longEv) #15
  %tmp__ZNKSt3__112basic_stringIcNS_11char_traitsIcEENS_9allocatorIcEEE9__is_longEv = getelementptr inbounds %"struct.std::__1::basic_string<char, std::__1::char_traits<char>, std::__1::allocator<char> >::__rep", %"struct.std::__1::basic_string<char, std::__1::char_traits<char>, std::__1::allocator<char> >::__rep"* %call__ZNKSt3__112basic_stringIcNS_11char_traitsIcEENS_9allocatorIcEEE9__is_longEv, i32 0, i32 0
  %__s__ZNKSt3__112basic_stringIcNS_11char_traitsIcEENS_9allocatorIcEEE9__is_longEv = bitcast %union.anon* %tmp__ZNKSt3__112basic_stringIcNS_11char_traitsIcEENS_9allocatorIcEEE9__is_longEv to %"struct.std::__1::basic_string<char, std::__1::char_traits<char>, std::__1::allocator<char> >::__short"*
  %tmp__ZNKSt3__112basic_stringIcNS_11char_traitsIcEENS_9allocatorIcEEE9__is_longEv1 = getelementptr inbounds %"struct.std::__1::basic_string<char, std::__1::char_traits<char>, std::__1::allocator<char> >::__short", %"struct.std::__1::basic_string<char, std::__1::char_traits<char>, std::__1::allocator<char> >::__short"* %__s__ZNKSt3__112basic_stringIcNS_11char_traitsIcEENS_9allocatorIcEEE9__is_longEv, i32 0, i32 0
  %__size___ZNKSt3__112basic_stringIcNS_11char_traitsIcEENS_9allocatorIcEEE9__is_longEv = bitcast %union.anon.0* %tmp__ZNKSt3__112basic_stringIcNS_11char_traitsIcEENS_9allocatorIcEEE9__is_longEv1 to i8*
  %tmp__ZNKSt3__112basic_stringIcNS_11char_traitsIcEENS_9allocatorIcEEE9__is_longEv2 = load i8, i8* %__size___ZNKSt3__112basic_stringIcNS_11char_traitsIcEENS_9allocatorIcEEE9__is_longEv, align 8
  %conv__ZNKSt3__112basic_stringIcNS_11char_traitsIcEENS_9allocatorIcEEE9__is_longEv = zext i8 %tmp__ZNKSt3__112basic_stringIcNS_11char_traitsIcEENS_9allocatorIcEEE9__is_longEv2 to i64
  %and__ZNKSt3__112basic_stringIcNS_11char_traitsIcEENS_9allocatorIcEEE9__is_longEv = and i64 %conv__ZNKSt3__112basic_stringIcNS_11char_traitsIcEENS_9allocatorIcEEE9__is_longEv, 1
  %tobool__ZNKSt3__112basic_stringIcNS_11char_traitsIcEENS_9allocatorIcEEE9__is_longEv = icmp ne i64 %and__ZNKSt3__112basic_stringIcNS_11char_traitsIcEENS_9allocatorIcEEE9__is_longEv, 0
  ret i1 %tobool__ZNKSt3__112basic_stringIcNS_11char_traitsIcEENS_9allocatorIcEEE9__is_longEv
}

; Function Attrs: noinline nounwind optnone ssp uwtable
define internal i8* @_ZNKSt3__112basic_stringIcNS_11char_traitsIcEENS_9allocatorIcEEE18__get_long_pointerEv(%"class.std::__1::basic_string"* %this) #5 align 2 {
entry:
  %this.addr__ZNKSt3__112basic_stringIcNS_11char_traitsIcEENS_9allocatorIcEEE18__get_long_pointerEv = alloca %"class.std::__1::basic_string"*, align 8
  store %"class.std::__1::basic_string"* %this, %"class.std::__1::basic_string"** %this.addr__ZNKSt3__112basic_stringIcNS_11char_traitsIcEENS_9allocatorIcEEE18__get_long_pointerEv, align 8
  %this1__ZNKSt3__112basic_stringIcNS_11char_traitsIcEENS_9allocatorIcEEE18__get_long_pointerEv = load %"class.std::__1::basic_string"*, %"class.std::__1::basic_string"** %this.addr__ZNKSt3__112basic_stringIcNS_11char_traitsIcEENS_9allocatorIcEEE18__get_long_pointerEv, align 8
  %__r___ZNKSt3__112basic_stringIcNS_11char_traitsIcEENS_9allocatorIcEEE18__get_long_pointerEv = getelementptr inbounds %"class.std::__1::basic_string", %"class.std::__1::basic_string"* %this1__ZNKSt3__112basic_stringIcNS_11char_traitsIcEENS_9allocatorIcEEE18__get_long_pointerEv, i32 0, i32 0
  %call__ZNKSt3__112basic_stringIcNS_11char_traitsIcEENS_9allocatorIcEEE18__get_long_pointerEv = call dereferenceable(24) %"struct.std::__1::basic_string<char, std::__1::char_traits<char>, std::__1::allocator<char> >::__rep"* @_ZNKSt3__117__compressed_pairINS_12basic_stringIcNS_11char_traitsIcEENS_9allocatorIcEEE5__repES5_E5firstEv(%"class.std::__1::__compressed_pair"* %__r___ZNKSt3__112basic_stringIcNS_11char_traitsIcEENS_9allocatorIcEEE18__get_long_pointerEv) #15
  %tmp__ZNKSt3__112basic_stringIcNS_11char_traitsIcEENS_9allocatorIcEEE18__get_long_pointerEv = getelementptr inbounds %"struct.std::__1::basic_string<char, std::__1::char_traits<char>, std::__1::allocator<char> >::__rep", %"struct.std::__1::basic_string<char, std::__1::char_traits<char>, std::__1::allocator<char> >::__rep"* %call__ZNKSt3__112basic_stringIcNS_11char_traitsIcEENS_9allocatorIcEEE18__get_long_pointerEv, i32 0, i32 0
  %__l__ZNKSt3__112basic_stringIcNS_11char_traitsIcEENS_9allocatorIcEEE18__get_long_pointerEv = bitcast %union.anon* %tmp__ZNKSt3__112basic_stringIcNS_11char_traitsIcEENS_9allocatorIcEEE18__get_long_pointerEv to %"struct.std::__1::basic_string<char, std::__1::char_traits<char>, std::__1::allocator<char> >::__long"*
  %__data___ZNKSt3__112basic_stringIcNS_11char_traitsIcEENS_9allocatorIcEEE18__get_long_pointerEv = getelementptr inbounds %"struct.std::__1::basic_string<char, std::__1::char_traits<char>, std::__1::allocator<char> >::__long", %"struct.std::__1::basic_string<char, std::__1::char_traits<char>, std::__1::allocator<char> >::__long"* %__l__ZNKSt3__112basic_stringIcNS_11char_traitsIcEENS_9allocatorIcEEE18__get_long_pointerEv, i32 0, i32 2
  %tmp__ZNKSt3__112basic_stringIcNS_11char_traitsIcEENS_9allocatorIcEEE18__get_long_pointerEv1 = load i8*, i8** %__data___ZNKSt3__112basic_stringIcNS_11char_traitsIcEENS_9allocatorIcEEE18__get_long_pointerEv, align 8
  ret i8* %tmp__ZNKSt3__112basic_stringIcNS_11char_traitsIcEENS_9allocatorIcEEE18__get_long_pointerEv1
}

; Function Attrs: noinline nounwind optnone ssp uwtable
define internal i8* @_ZNKSt3__112basic_stringIcNS_11char_traitsIcEENS_9allocatorIcEEE19__get_short_pointerEv(%"class.std::__1::basic_string"* %this) #5 align 2 {
entry:
  %this.addr__ZNKSt3__112basic_stringIcNS_11char_traitsIcEENS_9allocatorIcEEE19__get_short_pointerEv = alloca %"class.std::__1::basic_string"*, align 8
  store %"class.std::__1::basic_string"* %this, %"class.std::__1::basic_string"** %this.addr__ZNKSt3__112basic_stringIcNS_11char_traitsIcEENS_9allocatorIcEEE19__get_short_pointerEv, align 8
  %this1__ZNKSt3__112basic_stringIcNS_11char_traitsIcEENS_9allocatorIcEEE19__get_short_pointerEv = load %"class.std::__1::basic_string"*, %"class.std::__1::basic_string"** %this.addr__ZNKSt3__112basic_stringIcNS_11char_traitsIcEENS_9allocatorIcEEE19__get_short_pointerEv, align 8
  %__r___ZNKSt3__112basic_stringIcNS_11char_traitsIcEENS_9allocatorIcEEE19__get_short_pointerEv = getelementptr inbounds %"class.std::__1::basic_string", %"class.std::__1::basic_string"* %this1__ZNKSt3__112basic_stringIcNS_11char_traitsIcEENS_9allocatorIcEEE19__get_short_pointerEv, i32 0, i32 0
  %call__ZNKSt3__112basic_stringIcNS_11char_traitsIcEENS_9allocatorIcEEE19__get_short_pointerEv = call dereferenceable(24) %"struct.std::__1::basic_string<char, std::__1::char_traits<char>, std::__1::allocator<char> >::__rep"* @_ZNKSt3__117__compressed_pairINS_12basic_stringIcNS_11char_traitsIcEENS_9allocatorIcEEE5__repES5_E5firstEv(%"class.std::__1::__compressed_pair"* %__r___ZNKSt3__112basic_stringIcNS_11char_traitsIcEENS_9allocatorIcEEE19__get_short_pointerEv) #15
  %tmp__ZNKSt3__112basic_stringIcNS_11char_traitsIcEENS_9allocatorIcEEE19__get_short_pointerEv = getelementptr inbounds %"struct.std::__1::basic_string<char, std::__1::char_traits<char>, std::__1::allocator<char> >::__rep", %"struct.std::__1::basic_string<char, std::__1::char_traits<char>, std::__1::allocator<char> >::__rep"* %call__ZNKSt3__112basic_stringIcNS_11char_traitsIcEENS_9allocatorIcEEE19__get_short_pointerEv, i32 0, i32 0
  %__s__ZNKSt3__112basic_stringIcNS_11char_traitsIcEENS_9allocatorIcEEE19__get_short_pointerEv = bitcast %union.anon* %tmp__ZNKSt3__112basic_stringIcNS_11char_traitsIcEENS_9allocatorIcEEE19__get_short_pointerEv to %"struct.std::__1::basic_string<char, std::__1::char_traits<char>, std::__1::allocator<char> >::__short"*
  %__data___ZNKSt3__112basic_stringIcNS_11char_traitsIcEENS_9allocatorIcEEE19__get_short_pointerEv = getelementptr inbounds %"struct.std::__1::basic_string<char, std::__1::char_traits<char>, std::__1::allocator<char> >::__short", %"struct.std::__1::basic_string<char, std::__1::char_traits<char>, std::__1::allocator<char> >::__short"* %__s__ZNKSt3__112basic_stringIcNS_11char_traitsIcEENS_9allocatorIcEEE19__get_short_pointerEv, i32 0, i32 1
  %arrayidx__ZNKSt3__112basic_stringIcNS_11char_traitsIcEENS_9allocatorIcEEE19__get_short_pointerEv = getelementptr inbounds [23 x i8], [23 x i8]* %__data___ZNKSt3__112basic_stringIcNS_11char_traitsIcEENS_9allocatorIcEEE19__get_short_pointerEv, i64 0, i64 0
  %call2__ZNKSt3__112basic_stringIcNS_11char_traitsIcEENS_9allocatorIcEEE19__get_short_pointerEv = call i8* @_ZNSt3__114pointer_traitsIPKcE10pointer_toERS1_(i8* dereferenceable(1) %arrayidx__ZNKSt3__112basic_stringIcNS_11char_traitsIcEENS_9allocatorIcEEE19__get_short_pointerEv) #15
  ret i8* %call2__ZNKSt3__112basic_stringIcNS_11char_traitsIcEENS_9allocatorIcEEE19__get_short_pointerEv
}

; Function Attrs: noinline nounwind optnone ssp uwtable
define internal dereferenceable(24) %"struct.std::__1::basic_string<char, std::__1::char_traits<char>, std::__1::allocator<char> >::__rep"* @_ZNKSt3__117__compressed_pairINS_12basic_stringIcNS_11char_traitsIcEENS_9allocatorIcEEE5__repES5_E5firstEv(%"class.std::__1::__compressed_pair"* %this) #5 align 2 {
entry:
  %this.addr__ZNKSt3__117__compressed_pairINS_12basic_stringIcNS_11char_traitsIcEENS_9allocatorIcEEE5__repES5_E5firstEv = alloca %"class.std::__1::__compressed_pair"*, align 8
  store %"class.std::__1::__compressed_pair"* %this, %"class.std::__1::__compressed_pair"** %this.addr__ZNKSt3__117__compressed_pairINS_12basic_stringIcNS_11char_traitsIcEENS_9allocatorIcEEE5__repES5_E5firstEv, align 8
  %this1__ZNKSt3__117__compressed_pairINS_12basic_stringIcNS_11char_traitsIcEENS_9allocatorIcEEE5__repES5_E5firstEv = load %"class.std::__1::__compressed_pair"*, %"class.std::__1::__compressed_pair"** %this.addr__ZNKSt3__117__compressed_pairINS_12basic_stringIcNS_11char_traitsIcEENS_9allocatorIcEEE5__repES5_E5firstEv, align 8
  %tmp__ZNKSt3__117__compressed_pairINS_12basic_stringIcNS_11char_traitsIcEENS_9allocatorIcEEE5__repES5_E5firstEv = bitcast %"class.std::__1::__compressed_pair"* %this1__ZNKSt3__117__compressed_pairINS_12basic_stringIcNS_11char_traitsIcEENS_9allocatorIcEEE5__repES5_E5firstEv to %"struct.std::__1::__compressed_pair_elem"*
  %call__ZNKSt3__117__compressed_pairINS_12basic_stringIcNS_11char_traitsIcEENS_9allocatorIcEEE5__repES5_E5firstEv = call dereferenceable(24) %"struct.std::__1::basic_string<char, std::__1::char_traits<char>, std::__1::allocator<char> >::__rep"* @_ZNKSt3__122__compressed_pair_elemINS_12basic_stringIcNS_11char_traitsIcEENS_9allocatorIcEEE5__repELi0ELb0EE5__getEv(%"struct.std::__1::__compressed_pair_elem"* %tmp__ZNKSt3__117__compressed_pairINS_12basic_stringIcNS_11char_traitsIcEENS_9allocatorIcEEE5__repES5_E5firstEv) #15
  ret %"struct.std::__1::basic_string<char, std::__1::char_traits<char>, std::__1::allocator<char> >::__rep"* %call__ZNKSt3__117__compressed_pairINS_12basic_stringIcNS_11char_traitsIcEENS_9allocatorIcEEE5__repES5_E5firstEv
}

; Function Attrs: noinline nounwind optnone ssp uwtable
define internal dereferenceable(24) %"struct.std::__1::basic_string<char, std::__1::char_traits<char>, std::__1::allocator<char> >::__rep"* @_ZNKSt3__122__compressed_pair_elemINS_12basic_stringIcNS_11char_traitsIcEENS_9allocatorIcEEE5__repELi0ELb0EE5__getEv(%"struct.std::__1::__compressed_pair_elem"* %this) #5 align 2 {
entry:
  %this.addr__ZNKSt3__122__compressed_pair_elemINS_12basic_stringIcNS_11char_traitsIcEENS_9allocatorIcEEE5__repELi0ELb0EE5__getEv = alloca %"struct.std::__1::__compressed_pair_elem"*, align 8
  store %"struct.std::__1::__compressed_pair_elem"* %this, %"struct.std::__1::__compressed_pair_elem"** %this.addr__ZNKSt3__122__compressed_pair_elemINS_12basic_stringIcNS_11char_traitsIcEENS_9allocatorIcEEE5__repELi0ELb0EE5__getEv, align 8
  %this1__ZNKSt3__122__compressed_pair_elemINS_12basic_stringIcNS_11char_traitsIcEENS_9allocatorIcEEE5__repELi0ELb0EE5__getEv = load %"struct.std::__1::__compressed_pair_elem"*, %"struct.std::__1::__compressed_pair_elem"** %this.addr__ZNKSt3__122__compressed_pair_elemINS_12basic_stringIcNS_11char_traitsIcEENS_9allocatorIcEEE5__repELi0ELb0EE5__getEv, align 8
  %__value___ZNKSt3__122__compressed_pair_elemINS_12basic_stringIcNS_11char_traitsIcEENS_9allocatorIcEEE5__repELi0ELb0EE5__getEv = getelementptr inbounds %"struct.std::__1::__compressed_pair_elem", %"struct.std::__1::__compressed_pair_elem"* %this1__ZNKSt3__122__compressed_pair_elemINS_12basic_stringIcNS_11char_traitsIcEENS_9allocatorIcEEE5__repELi0ELb0EE5__getEv, i32 0, i32 0
  ret %"struct.std::__1::basic_string<char, std::__1::char_traits<char>, std::__1::allocator<char> >::__rep"* %__value___ZNKSt3__122__compressed_pair_elemINS_12basic_stringIcNS_11char_traitsIcEENS_9allocatorIcEEE5__repELi0ELb0EE5__getEv
}

; Function Attrs: noinline nounwind optnone ssp uwtable
define internal i8* @_ZNSt3__114pointer_traitsIPKcE10pointer_toERS1_(i8* dereferenceable(1) %__r) #5 align 2 {
entry:
  %__r.addr__ZNSt3__114pointer_traitsIPKcE10pointer_toERS1_ = alloca i8*, align 8
  store i8* %__r, i8** %__r.addr__ZNSt3__114pointer_traitsIPKcE10pointer_toERS1_, align 8
  %tmp__ZNSt3__114pointer_traitsIPKcE10pointer_toERS1_ = load i8*, i8** %__r.addr__ZNSt3__114pointer_traitsIPKcE10pointer_toERS1_, align 8
  %call__ZNSt3__114pointer_traitsIPKcE10pointer_toERS1_ = call i8* @_ZNSt3__1L9addressofIKcEEPT_RS2_(i8* dereferenceable(1) %tmp__ZNSt3__114pointer_traitsIPKcE10pointer_toERS1_) #15
  ret i8* %call__ZNSt3__114pointer_traitsIPKcE10pointer_toERS1_
}

; Function Attrs: noinline nounwind optnone ssp uwtable
define internal i8* @_ZNSt3__1L9addressofIKcEEPT_RS2_(i8* dereferenceable(1) %__x) #5 {
entry:
  %__x.addr__ZNSt3__1L9addressofIKcEEPT_RS2_ = alloca i8*, align 8
  store i8* %__x, i8** %__x.addr__ZNSt3__1L9addressofIKcEEPT_RS2_, align 8
  %tmp__ZNSt3__1L9addressofIKcEEPT_RS2_ = load i8*, i8** %__x.addr__ZNSt3__1L9addressofIKcEEPT_RS2_, align 8
  ret i8* %tmp__ZNSt3__1L9addressofIKcEEPT_RS2_
}

; Function Attrs: noinline nounwind optnone ssp uwtable
define linkonce_odr void @_ZN7testing7MessageD2Ev(%"class.testing::Message"* %this) unnamed_addr #5 align 2 {
entry:
  %this.addr__ZN7testing7MessageD2Ev = alloca %"class.testing::Message"*, align 8
  store %"class.testing::Message"* %this, %"class.testing::Message"** %this.addr__ZN7testing7MessageD2Ev, align 8
  %this1__ZN7testing7MessageD2Ev = load %"class.testing::Message"*, %"class.testing::Message"** %this.addr__ZN7testing7MessageD2Ev, align 8
  %ss___ZN7testing7MessageD2Ev = getelementptr inbounds %"class.testing::Message", %"class.testing::Message"* %this1__ZN7testing7MessageD2Ev, i32 0, i32 0
  call void @_ZNSt3__110unique_ptrINS_18basic_stringstreamIcNS_11char_traitsIcEENS_9allocatorIcEEEENS_14default_deleteIS6_EEED1Ev(%"class.std::__1::unique_ptr.29"* %ss___ZN7testing7MessageD2Ev) #15
  ret void
}

; Function Attrs: noinline nounwind optnone ssp uwtable
define internal void @_ZNSt3__110unique_ptrINS_18basic_stringstreamIcNS_11char_traitsIcEENS_9allocatorIcEEEENS_14default_deleteIS6_EEED1Ev(%"class.std::__1::unique_ptr.29"* %this) unnamed_addr #5 align 2 {
entry:
  %this.addr__ZNSt3__110unique_ptrINS_18basic_stringstreamIcNS_11char_traitsIcEENS_9allocatorIcEEEENS_14default_deleteIS6_EEED1Ev = alloca %"class.std::__1::unique_ptr.29"*, align 8
  store %"class.std::__1::unique_ptr.29"* %this, %"class.std::__1::unique_ptr.29"** %this.addr__ZNSt3__110unique_ptrINS_18basic_stringstreamIcNS_11char_traitsIcEENS_9allocatorIcEEEENS_14default_deleteIS6_EEED1Ev, align 8
  %this1__ZNSt3__110unique_ptrINS_18basic_stringstreamIcNS_11char_traitsIcEENS_9allocatorIcEEEENS_14default_deleteIS6_EEED1Ev = load %"class.std::__1::unique_ptr.29"*, %"class.std::__1::unique_ptr.29"** %this.addr__ZNSt3__110unique_ptrINS_18basic_stringstreamIcNS_11char_traitsIcEENS_9allocatorIcEEEENS_14default_deleteIS6_EEED1Ev, align 8
  call void @_ZNSt3__110unique_ptrINS_18basic_stringstreamIcNS_11char_traitsIcEENS_9allocatorIcEEEENS_14default_deleteIS6_EEED2Ev(%"class.std::__1::unique_ptr.29"* %this1__ZNSt3__110unique_ptrINS_18basic_stringstreamIcNS_11char_traitsIcEENS_9allocatorIcEEEENS_14default_deleteIS6_EEED1Ev) #15
  ret void
}

; Function Attrs: noinline nounwind optnone ssp uwtable
define internal void @_ZNSt3__110unique_ptrINS_18basic_stringstreamIcNS_11char_traitsIcEENS_9allocatorIcEEEENS_14default_deleteIS6_EEED2Ev(%"class.std::__1::unique_ptr.29"* %this) unnamed_addr #5 align 2 {
entry:
  %this.addr__ZNSt3__110unique_ptrINS_18basic_stringstreamIcNS_11char_traitsIcEENS_9allocatorIcEEEENS_14default_deleteIS6_EEED2Ev = alloca %"class.std::__1::unique_ptr.29"*, align 8
  store %"class.std::__1::unique_ptr.29"* %this, %"class.std::__1::unique_ptr.29"** %this.addr__ZNSt3__110unique_ptrINS_18basic_stringstreamIcNS_11char_traitsIcEENS_9allocatorIcEEEENS_14default_deleteIS6_EEED2Ev, align 8
  %this1__ZNSt3__110unique_ptrINS_18basic_stringstreamIcNS_11char_traitsIcEENS_9allocatorIcEEEENS_14default_deleteIS6_EEED2Ev = load %"class.std::__1::unique_ptr.29"*, %"class.std::__1::unique_ptr.29"** %this.addr__ZNSt3__110unique_ptrINS_18basic_stringstreamIcNS_11char_traitsIcEENS_9allocatorIcEEEENS_14default_deleteIS6_EEED2Ev, align 8
  call void @_ZNSt3__110unique_ptrINS_18basic_stringstreamIcNS_11char_traitsIcEENS_9allocatorIcEEEENS_14default_deleteIS6_EEE5resetEPS6_(%"class.std::__1::unique_ptr.29"* %this1__ZNSt3__110unique_ptrINS_18basic_stringstreamIcNS_11char_traitsIcEENS_9allocatorIcEEEENS_14default_deleteIS6_EEED2Ev, %"class.std::__1::basic_stringstream"* null) #15
  ret void
}

; Function Attrs: noinline nounwind optnone ssp uwtable
define internal void @_ZNSt3__110unique_ptrINS_18basic_stringstreamIcNS_11char_traitsIcEENS_9allocatorIcEEEENS_14default_deleteIS6_EEE5resetEPS6_(%"class.std::__1::unique_ptr.29"* %this, %"class.std::__1::basic_stringstream"* %__p) #5 align 2 {
entry:
  %this.addr__ZNSt3__110unique_ptrINS_18basic_stringstreamIcNS_11char_traitsIcEENS_9allocatorIcEEEENS_14default_deleteIS6_EEE5resetEPS6_ = alloca %"class.std::__1::unique_ptr.29"*, align 8
  %__p.addr__ZNSt3__110unique_ptrINS_18basic_stringstreamIcNS_11char_traitsIcEENS_9allocatorIcEEEENS_14default_deleteIS6_EEE5resetEPS6_ = alloca %"class.std::__1::basic_stringstream"*, align 8
  %__tmp__ZNSt3__110unique_ptrINS_18basic_stringstreamIcNS_11char_traitsIcEENS_9allocatorIcEEEENS_14default_deleteIS6_EEE5resetEPS6_ = alloca %"class.std::__1::basic_stringstream"*, align 8
  store %"class.std::__1::unique_ptr.29"* %this, %"class.std::__1::unique_ptr.29"** %this.addr__ZNSt3__110unique_ptrINS_18basic_stringstreamIcNS_11char_traitsIcEENS_9allocatorIcEEEENS_14default_deleteIS6_EEE5resetEPS6_, align 8
  store %"class.std::__1::basic_stringstream"* %__p, %"class.std::__1::basic_stringstream"** %__p.addr__ZNSt3__110unique_ptrINS_18basic_stringstreamIcNS_11char_traitsIcEENS_9allocatorIcEEEENS_14default_deleteIS6_EEE5resetEPS6_, align 8
  %this1__ZNSt3__110unique_ptrINS_18basic_stringstreamIcNS_11char_traitsIcEENS_9allocatorIcEEEENS_14default_deleteIS6_EEE5resetEPS6_ = load %"class.std::__1::unique_ptr.29"*, %"class.std::__1::unique_ptr.29"** %this.addr__ZNSt3__110unique_ptrINS_18basic_stringstreamIcNS_11char_traitsIcEENS_9allocatorIcEEEENS_14default_deleteIS6_EEE5resetEPS6_, align 8
  %__ptr___ZNSt3__110unique_ptrINS_18basic_stringstreamIcNS_11char_traitsIcEENS_9allocatorIcEEEENS_14default_deleteIS6_EEE5resetEPS6_ = getelementptr inbounds %"class.std::__1::unique_ptr.29", %"class.std::__1::unique_ptr.29"* %this1__ZNSt3__110unique_ptrINS_18basic_stringstreamIcNS_11char_traitsIcEENS_9allocatorIcEEEENS_14default_deleteIS6_EEE5resetEPS6_, i32 0, i32 0
  %call__ZNSt3__110unique_ptrINS_18basic_stringstreamIcNS_11char_traitsIcEENS_9allocatorIcEEEENS_14default_deleteIS6_EEE5resetEPS6_ = call dereferenceable(8) %"class.std::__1::basic_stringstream"** @_ZNSt3__117__compressed_pairIPNS_18basic_stringstreamIcNS_11char_traitsIcEENS_9allocatorIcEEEENS_14default_deleteIS6_EEE5firstEv(%"class.std::__1::__compressed_pair.30"* %__ptr___ZNSt3__110unique_ptrINS_18basic_stringstreamIcNS_11char_traitsIcEENS_9allocatorIcEEEENS_14default_deleteIS6_EEE5resetEPS6_) #15
  %tmp__ZNSt3__110unique_ptrINS_18basic_stringstreamIcNS_11char_traitsIcEENS_9allocatorIcEEEENS_14default_deleteIS6_EEE5resetEPS6_ = load %"class.std::__1::basic_stringstream"*, %"class.std::__1::basic_stringstream"** %call__ZNSt3__110unique_ptrINS_18basic_stringstreamIcNS_11char_traitsIcEENS_9allocatorIcEEEENS_14default_deleteIS6_EEE5resetEPS6_, align 8
  store %"class.std::__1::basic_stringstream"* %tmp__ZNSt3__110unique_ptrINS_18basic_stringstreamIcNS_11char_traitsIcEENS_9allocatorIcEEEENS_14default_deleteIS6_EEE5resetEPS6_, %"class.std::__1::basic_stringstream"** %__tmp__ZNSt3__110unique_ptrINS_18basic_stringstreamIcNS_11char_traitsIcEENS_9allocatorIcEEEENS_14default_deleteIS6_EEE5resetEPS6_, align 8
  %tmp__ZNSt3__110unique_ptrINS_18basic_stringstreamIcNS_11char_traitsIcEENS_9allocatorIcEEEENS_14default_deleteIS6_EEE5resetEPS6_1 = load %"class.std::__1::basic_stringstream"*, %"class.std::__1::basic_stringstream"** %__p.addr__ZNSt3__110unique_ptrINS_18basic_stringstreamIcNS_11char_traitsIcEENS_9allocatorIcEEEENS_14default_deleteIS6_EEE5resetEPS6_, align 8
  %__ptr_2__ZNSt3__110unique_ptrINS_18basic_stringstreamIcNS_11char_traitsIcEENS_9allocatorIcEEEENS_14default_deleteIS6_EEE5resetEPS6_ = getelementptr inbounds %"class.std::__1::unique_ptr.29", %"class.std::__1::unique_ptr.29"* %this1__ZNSt3__110unique_ptrINS_18basic_stringstreamIcNS_11char_traitsIcEENS_9allocatorIcEEEENS_14default_deleteIS6_EEE5resetEPS6_, i32 0, i32 0
  %call3__ZNSt3__110unique_ptrINS_18basic_stringstreamIcNS_11char_traitsIcEENS_9allocatorIcEEEENS_14default_deleteIS6_EEE5resetEPS6_ = call dereferenceable(8) %"class.std::__1::basic_stringstream"** @_ZNSt3__117__compressed_pairIPNS_18basic_stringstreamIcNS_11char_traitsIcEENS_9allocatorIcEEEENS_14default_deleteIS6_EEE5firstEv(%"class.std::__1::__compressed_pair.30"* %__ptr_2__ZNSt3__110unique_ptrINS_18basic_stringstreamIcNS_11char_traitsIcEENS_9allocatorIcEEEENS_14default_deleteIS6_EEE5resetEPS6_) #15
  store %"class.std::__1::basic_stringstream"* %tmp__ZNSt3__110unique_ptrINS_18basic_stringstreamIcNS_11char_traitsIcEENS_9allocatorIcEEEENS_14default_deleteIS6_EEE5resetEPS6_1, %"class.std::__1::basic_stringstream"** %call3__ZNSt3__110unique_ptrINS_18basic_stringstreamIcNS_11char_traitsIcEENS_9allocatorIcEEEENS_14default_deleteIS6_EEE5resetEPS6_, align 8
  %tmp__ZNSt3__110unique_ptrINS_18basic_stringstreamIcNS_11char_traitsIcEENS_9allocatorIcEEEENS_14default_deleteIS6_EEE5resetEPS6_2 = load %"class.std::__1::basic_stringstream"*, %"class.std::__1::basic_stringstream"** %__tmp__ZNSt3__110unique_ptrINS_18basic_stringstreamIcNS_11char_traitsIcEENS_9allocatorIcEEEENS_14default_deleteIS6_EEE5resetEPS6_, align 8
  %tobool__ZNSt3__110unique_ptrINS_18basic_stringstreamIcNS_11char_traitsIcEENS_9allocatorIcEEEENS_14default_deleteIS6_EEE5resetEPS6_ = icmp ne %"class.std::__1::basic_stringstream"* %tmp__ZNSt3__110unique_ptrINS_18basic_stringstreamIcNS_11char_traitsIcEENS_9allocatorIcEEEENS_14default_deleteIS6_EEE5resetEPS6_2, null
  br i1 %tobool__ZNSt3__110unique_ptrINS_18basic_stringstreamIcNS_11char_traitsIcEENS_9allocatorIcEEEENS_14default_deleteIS6_EEE5resetEPS6_, label %if.then, label %if.end

if.then:                                          ; preds = %entry
  %__ptr_4__ZNSt3__110unique_ptrINS_18basic_stringstreamIcNS_11char_traitsIcEENS_9allocatorIcEEEENS_14default_deleteIS6_EEE5resetEPS6_ = getelementptr inbounds %"class.std::__1::unique_ptr.29", %"class.std::__1::unique_ptr.29"* %this1__ZNSt3__110unique_ptrINS_18basic_stringstreamIcNS_11char_traitsIcEENS_9allocatorIcEEEENS_14default_deleteIS6_EEE5resetEPS6_, i32 0, i32 0
  %call5__ZNSt3__110unique_ptrINS_18basic_stringstreamIcNS_11char_traitsIcEENS_9allocatorIcEEEENS_14default_deleteIS6_EEE5resetEPS6_ = call dereferenceable(1) %"struct.std::__1::default_delete.33"* @_ZNSt3__117__compressed_pairIPNS_18basic_stringstreamIcNS_11char_traitsIcEENS_9allocatorIcEEEENS_14default_deleteIS6_EEE6secondEv(%"class.std::__1::__compressed_pair.30"* %__ptr_4__ZNSt3__110unique_ptrINS_18basic_stringstreamIcNS_11char_traitsIcEENS_9allocatorIcEEEENS_14default_deleteIS6_EEE5resetEPS6_) #15
  %tmp__ZNSt3__110unique_ptrINS_18basic_stringstreamIcNS_11char_traitsIcEENS_9allocatorIcEEEENS_14default_deleteIS6_EEE5resetEPS6_3 = load %"class.std::__1::basic_stringstream"*, %"class.std::__1::basic_stringstream"** %__tmp__ZNSt3__110unique_ptrINS_18basic_stringstreamIcNS_11char_traitsIcEENS_9allocatorIcEEEENS_14default_deleteIS6_EEE5resetEPS6_, align 8
  call void @_ZNKSt3__114default_deleteINS_18basic_stringstreamIcNS_11char_traitsIcEENS_9allocatorIcEEEEEclEPS6_(%"struct.std::__1::default_delete.33"* %call5__ZNSt3__110unique_ptrINS_18basic_stringstreamIcNS_11char_traitsIcEENS_9allocatorIcEEEENS_14default_deleteIS6_EEE5resetEPS6_, %"class.std::__1::basic_stringstream"* %tmp__ZNSt3__110unique_ptrINS_18basic_stringstreamIcNS_11char_traitsIcEENS_9allocatorIcEEEENS_14default_deleteIS6_EEE5resetEPS6_3) #15
  br label %if.end

if.end:                                           ; preds = %if.then, %entry
  ret void
}

; Function Attrs: noinline nounwind optnone ssp uwtable
define internal dereferenceable(8) %"class.std::__1::basic_stringstream"** @_ZNSt3__117__compressed_pairIPNS_18basic_stringstreamIcNS_11char_traitsIcEENS_9allocatorIcEEEENS_14default_deleteIS6_EEE5firstEv(%"class.std::__1::__compressed_pair.30"* %this) #5 align 2 {
entry:
  %this.addr__ZNSt3__117__compressed_pairIPNS_18basic_stringstreamIcNS_11char_traitsIcEENS_9allocatorIcEEEENS_14default_deleteIS6_EEE5firstEv = alloca %"class.std::__1::__compressed_pair.30"*, align 8
  store %"class.std::__1::__compressed_pair.30"* %this, %"class.std::__1::__compressed_pair.30"** %this.addr__ZNSt3__117__compressed_pairIPNS_18basic_stringstreamIcNS_11char_traitsIcEENS_9allocatorIcEEEENS_14default_deleteIS6_EEE5firstEv, align 8
  %this1__ZNSt3__117__compressed_pairIPNS_18basic_stringstreamIcNS_11char_traitsIcEENS_9allocatorIcEEEENS_14default_deleteIS6_EEE5firstEv = load %"class.std::__1::__compressed_pair.30"*, %"class.std::__1::__compressed_pair.30"** %this.addr__ZNSt3__117__compressed_pairIPNS_18basic_stringstreamIcNS_11char_traitsIcEENS_9allocatorIcEEEENS_14default_deleteIS6_EEE5firstEv, align 8
  %tmp__ZNSt3__117__compressed_pairIPNS_18basic_stringstreamIcNS_11char_traitsIcEENS_9allocatorIcEEEENS_14default_deleteIS6_EEE5firstEv = bitcast %"class.std::__1::__compressed_pair.30"* %this1__ZNSt3__117__compressed_pairIPNS_18basic_stringstreamIcNS_11char_traitsIcEENS_9allocatorIcEEEENS_14default_deleteIS6_EEE5firstEv to %"struct.std::__1::__compressed_pair_elem.31"*
  %call__ZNSt3__117__compressed_pairIPNS_18basic_stringstreamIcNS_11char_traitsIcEENS_9allocatorIcEEEENS_14default_deleteIS6_EEE5firstEv = call dereferenceable(8) %"class.std::__1::basic_stringstream"** @_ZNSt3__122__compressed_pair_elemIPNS_18basic_stringstreamIcNS_11char_traitsIcEENS_9allocatorIcEEEELi0ELb0EE5__getEv(%"struct.std::__1::__compressed_pair_elem.31"* %tmp__ZNSt3__117__compressed_pairIPNS_18basic_stringstreamIcNS_11char_traitsIcEENS_9allocatorIcEEEENS_14default_deleteIS6_EEE5firstEv) #15
  ret %"class.std::__1::basic_stringstream"** %call__ZNSt3__117__compressed_pairIPNS_18basic_stringstreamIcNS_11char_traitsIcEENS_9allocatorIcEEEENS_14default_deleteIS6_EEE5firstEv
}

; Function Attrs: noinline nounwind optnone ssp uwtable
define internal dereferenceable(1) %"struct.std::__1::default_delete.33"* @_ZNSt3__117__compressed_pairIPNS_18basic_stringstreamIcNS_11char_traitsIcEENS_9allocatorIcEEEENS_14default_deleteIS6_EEE6secondEv(%"class.std::__1::__compressed_pair.30"* %this) #5 align 2 {
entry:
  %this.addr__ZNSt3__117__compressed_pairIPNS_18basic_stringstreamIcNS_11char_traitsIcEENS_9allocatorIcEEEENS_14default_deleteIS6_EEE6secondEv = alloca %"class.std::__1::__compressed_pair.30"*, align 8
  store %"class.std::__1::__compressed_pair.30"* %this, %"class.std::__1::__compressed_pair.30"** %this.addr__ZNSt3__117__compressed_pairIPNS_18basic_stringstreamIcNS_11char_traitsIcEENS_9allocatorIcEEEENS_14default_deleteIS6_EEE6secondEv, align 8
  %this1__ZNSt3__117__compressed_pairIPNS_18basic_stringstreamIcNS_11char_traitsIcEENS_9allocatorIcEEEENS_14default_deleteIS6_EEE6secondEv = load %"class.std::__1::__compressed_pair.30"*, %"class.std::__1::__compressed_pair.30"** %this.addr__ZNSt3__117__compressed_pairIPNS_18basic_stringstreamIcNS_11char_traitsIcEENS_9allocatorIcEEEENS_14default_deleteIS6_EEE6secondEv, align 8
  %tmp__ZNSt3__117__compressed_pairIPNS_18basic_stringstreamIcNS_11char_traitsIcEENS_9allocatorIcEEEENS_14default_deleteIS6_EEE6secondEv = bitcast %"class.std::__1::__compressed_pair.30"* %this1__ZNSt3__117__compressed_pairIPNS_18basic_stringstreamIcNS_11char_traitsIcEENS_9allocatorIcEEEENS_14default_deleteIS6_EEE6secondEv to %"struct.std::__1::__compressed_pair_elem.32"*
  %call__ZNSt3__117__compressed_pairIPNS_18basic_stringstreamIcNS_11char_traitsIcEENS_9allocatorIcEEEENS_14default_deleteIS6_EEE6secondEv = call dereferenceable(1) %"struct.std::__1::default_delete.33"* @_ZNSt3__122__compressed_pair_elemINS_14default_deleteINS_18basic_stringstreamIcNS_11char_traitsIcEENS_9allocatorIcEEEEEELi1ELb1EE5__getEv(%"struct.std::__1::__compressed_pair_elem.32"* %tmp__ZNSt3__117__compressed_pairIPNS_18basic_stringstreamIcNS_11char_traitsIcEENS_9allocatorIcEEEENS_14default_deleteIS6_EEE6secondEv) #15
  ret %"struct.std::__1::default_delete.33"* %call__ZNSt3__117__compressed_pairIPNS_18basic_stringstreamIcNS_11char_traitsIcEENS_9allocatorIcEEEENS_14default_deleteIS6_EEE6secondEv
}

; Function Attrs: noinline nounwind optnone ssp uwtable
define internal void @_ZNKSt3__114default_deleteINS_18basic_stringstreamIcNS_11char_traitsIcEENS_9allocatorIcEEEEEclEPS6_(%"struct.std::__1::default_delete.33"* %this, %"class.std::__1::basic_stringstream"* %__ptr) #5 align 2 {
entry:
  %this.addr__ZNKSt3__114default_deleteINS_18basic_stringstreamIcNS_11char_traitsIcEENS_9allocatorIcEEEEEclEPS6_ = alloca %"struct.std::__1::default_delete.33"*, align 8
  %__ptr.addr__ZNKSt3__114default_deleteINS_18basic_stringstreamIcNS_11char_traitsIcEENS_9allocatorIcEEEEEclEPS6_ = alloca %"class.std::__1::basic_stringstream"*, align 8
  store %"struct.std::__1::default_delete.33"* %this, %"struct.std::__1::default_delete.33"** %this.addr__ZNKSt3__114default_deleteINS_18basic_stringstreamIcNS_11char_traitsIcEENS_9allocatorIcEEEEEclEPS6_, align 8
  store %"class.std::__1::basic_stringstream"* %__ptr, %"class.std::__1::basic_stringstream"** %__ptr.addr__ZNKSt3__114default_deleteINS_18basic_stringstreamIcNS_11char_traitsIcEENS_9allocatorIcEEEEEclEPS6_, align 8
  %this1__ZNKSt3__114default_deleteINS_18basic_stringstreamIcNS_11char_traitsIcEENS_9allocatorIcEEEEEclEPS6_ = load %"struct.std::__1::default_delete.33"*, %"struct.std::__1::default_delete.33"** %this.addr__ZNKSt3__114default_deleteINS_18basic_stringstreamIcNS_11char_traitsIcEENS_9allocatorIcEEEEEclEPS6_, align 8
  %tmp__ZNKSt3__114default_deleteINS_18basic_stringstreamIcNS_11char_traitsIcEENS_9allocatorIcEEEEEclEPS6_ = load %"class.std::__1::basic_stringstream"*, %"class.std::__1::basic_stringstream"** %__ptr.addr__ZNKSt3__114default_deleteINS_18basic_stringstreamIcNS_11char_traitsIcEENS_9allocatorIcEEEEEclEPS6_, align 8
  %isnull__ZNKSt3__114default_deleteINS_18basic_stringstreamIcNS_11char_traitsIcEENS_9allocatorIcEEEEEclEPS6_ = icmp eq %"class.std::__1::basic_stringstream"* %tmp__ZNKSt3__114default_deleteINS_18basic_stringstreamIcNS_11char_traitsIcEENS_9allocatorIcEEEEEclEPS6_, null
  br i1 %isnull__ZNKSt3__114default_deleteINS_18basic_stringstreamIcNS_11char_traitsIcEENS_9allocatorIcEEEEEclEPS6_, label %delete.end, label %delete.notnull

delete.notnull:                                   ; preds = %entry
  %tmp__ZNKSt3__114default_deleteINS_18basic_stringstreamIcNS_11char_traitsIcEENS_9allocatorIcEEEEEclEPS6_1 = bitcast %"class.std::__1::basic_stringstream"* %tmp__ZNKSt3__114default_deleteINS_18basic_stringstreamIcNS_11char_traitsIcEENS_9allocatorIcEEEEEclEPS6_ to void (%"class.std::__1::basic_stringstream"*)***
  %vtable__ZNKSt3__114default_deleteINS_18basic_stringstreamIcNS_11char_traitsIcEENS_9allocatorIcEEEEEclEPS6_ = load void (%"class.std::__1::basic_stringstream"*)**, void (%"class.std::__1::basic_stringstream"*)*** %tmp__ZNKSt3__114default_deleteINS_18basic_stringstreamIcNS_11char_traitsIcEENS_9allocatorIcEEEEEclEPS6_1, align 8
  %vfn__ZNKSt3__114default_deleteINS_18basic_stringstreamIcNS_11char_traitsIcEENS_9allocatorIcEEEEEclEPS6_ = getelementptr inbounds void (%"class.std::__1::basic_stringstream"*)*, void (%"class.std::__1::basic_stringstream"*)** %vtable__ZNKSt3__114default_deleteINS_18basic_stringstreamIcNS_11char_traitsIcEENS_9allocatorIcEEEEEclEPS6_, i64 1
  %tmp__ZNKSt3__114default_deleteINS_18basic_stringstreamIcNS_11char_traitsIcEENS_9allocatorIcEEEEEclEPS6_2 = load void (%"class.std::__1::basic_stringstream"*)*, void (%"class.std::__1::basic_stringstream"*)** %vfn__ZNKSt3__114default_deleteINS_18basic_stringstreamIcNS_11char_traitsIcEENS_9allocatorIcEEEEEclEPS6_, align 8
  call void %tmp__ZNKSt3__114default_deleteINS_18basic_stringstreamIcNS_11char_traitsIcEENS_9allocatorIcEEEEEclEPS6_2(%"class.std::__1::basic_stringstream"* %tmp__ZNKSt3__114default_deleteINS_18basic_stringstreamIcNS_11char_traitsIcEENS_9allocatorIcEEEEEclEPS6_) #15
  br label %delete.end

delete.end:                                       ; preds = %delete.notnull, %entry
  ret void
}

; Function Attrs: noinline nounwind optnone ssp uwtable
define internal dereferenceable(8) %"class.std::__1::basic_stringstream"** @_ZNSt3__122__compressed_pair_elemIPNS_18basic_stringstreamIcNS_11char_traitsIcEENS_9allocatorIcEEEELi0ELb0EE5__getEv(%"struct.std::__1::__compressed_pair_elem.31"* %this) #5 align 2 {
entry:
  %this.addr__ZNSt3__122__compressed_pair_elemIPNS_18basic_stringstreamIcNS_11char_traitsIcEENS_9allocatorIcEEEELi0ELb0EE5__getEv = alloca %"struct.std::__1::__compressed_pair_elem.31"*, align 8
  store %"struct.std::__1::__compressed_pair_elem.31"* %this, %"struct.std::__1::__compressed_pair_elem.31"** %this.addr__ZNSt3__122__compressed_pair_elemIPNS_18basic_stringstreamIcNS_11char_traitsIcEENS_9allocatorIcEEEELi0ELb0EE5__getEv, align 8
  %this1__ZNSt3__122__compressed_pair_elemIPNS_18basic_stringstreamIcNS_11char_traitsIcEENS_9allocatorIcEEEELi0ELb0EE5__getEv = load %"struct.std::__1::__compressed_pair_elem.31"*, %"struct.std::__1::__compressed_pair_elem.31"** %this.addr__ZNSt3__122__compressed_pair_elemIPNS_18basic_stringstreamIcNS_11char_traitsIcEENS_9allocatorIcEEEELi0ELb0EE5__getEv, align 8
  %__value___ZNSt3__122__compressed_pair_elemIPNS_18basic_stringstreamIcNS_11char_traitsIcEENS_9allocatorIcEEEELi0ELb0EE5__getEv = getelementptr inbounds %"struct.std::__1::__compressed_pair_elem.31", %"struct.std::__1::__compressed_pair_elem.31"* %this1__ZNSt3__122__compressed_pair_elemIPNS_18basic_stringstreamIcNS_11char_traitsIcEENS_9allocatorIcEEEELi0ELb0EE5__getEv, i32 0, i32 0
  ret %"class.std::__1::basic_stringstream"** %__value___ZNSt3__122__compressed_pair_elemIPNS_18basic_stringstreamIcNS_11char_traitsIcEENS_9allocatorIcEEEELi0ELb0EE5__getEv
}

; Function Attrs: noinline nounwind optnone ssp uwtable
define internal dereferenceable(1) %"struct.std::__1::default_delete.33"* @_ZNSt3__122__compressed_pair_elemINS_14default_deleteINS_18basic_stringstreamIcNS_11char_traitsIcEENS_9allocatorIcEEEEEELi1ELb1EE5__getEv(%"struct.std::__1::__compressed_pair_elem.32"* %this) #5 align 2 {
entry:
  %this.addr__ZNSt3__122__compressed_pair_elemINS_14default_deleteINS_18basic_stringstreamIcNS_11char_traitsIcEENS_9allocatorIcEEEEEELi1ELb1EE5__getEv = alloca %"struct.std::__1::__compressed_pair_elem.32"*, align 8
  store %"struct.std::__1::__compressed_pair_elem.32"* %this, %"struct.std::__1::__compressed_pair_elem.32"** %this.addr__ZNSt3__122__compressed_pair_elemINS_14default_deleteINS_18basic_stringstreamIcNS_11char_traitsIcEENS_9allocatorIcEEEEEELi1ELb1EE5__getEv, align 8
  %this1__ZNSt3__122__compressed_pair_elemINS_14default_deleteINS_18basic_stringstreamIcNS_11char_traitsIcEENS_9allocatorIcEEEEEELi1ELb1EE5__getEv = load %"struct.std::__1::__compressed_pair_elem.32"*, %"struct.std::__1::__compressed_pair_elem.32"** %this.addr__ZNSt3__122__compressed_pair_elemINS_14default_deleteINS_18basic_stringstreamIcNS_11char_traitsIcEENS_9allocatorIcEEEEEELi1ELb1EE5__getEv, align 8
  %tmp__ZNSt3__122__compressed_pair_elemINS_14default_deleteINS_18basic_stringstreamIcNS_11char_traitsIcEENS_9allocatorIcEEEEEELi1ELb1EE5__getEv = bitcast %"struct.std::__1::__compressed_pair_elem.32"* %this1__ZNSt3__122__compressed_pair_elemINS_14default_deleteINS_18basic_stringstreamIcNS_11char_traitsIcEENS_9allocatorIcEEEEEELi1ELb1EE5__getEv to %"struct.std::__1::default_delete.33"*
  ret %"struct.std::__1::default_delete.33"* %tmp__ZNSt3__122__compressed_pair_elemINS_14default_deleteINS_18basic_stringstreamIcNS_11char_traitsIcEENS_9allocatorIcEEEEEELi1ELb1EE5__getEv
}

; Function Attrs: noinline nounwind optnone ssp uwtable
define linkonce_odr void @_ZN7testing15AssertionResultD2Ev(%"class.testing::AssertionResult"* %this) unnamed_addr #5 align 2 {
entry:
  %this.addr__ZN7testing15AssertionResultD2Ev = alloca %"class.testing::AssertionResult"*, align 8
  store %"class.testing::AssertionResult"* %this, %"class.testing::AssertionResult"** %this.addr__ZN7testing15AssertionResultD2Ev, align 8
  %this1__ZN7testing15AssertionResultD2Ev = load %"class.testing::AssertionResult"*, %"class.testing::AssertionResult"** %this.addr__ZN7testing15AssertionResultD2Ev, align 8
  %message___ZN7testing15AssertionResultD2Ev = getelementptr inbounds %"class.testing::AssertionResult", %"class.testing::AssertionResult"* %this1__ZN7testing15AssertionResultD2Ev, i32 0, i32 1
  call void @_ZNSt3__110unique_ptrINS_12basic_stringIcNS_11char_traitsIcEENS_9allocatorIcEEEENS_14default_deleteIS6_EEED1Ev(%"class.std::__1::unique_ptr.23"* %message___ZN7testing15AssertionResultD2Ev) #15
  ret void
}

; Function Attrs: noinline nounwind optnone ssp uwtable
define internal void @_ZNSt3__110unique_ptrINS_12basic_stringIcNS_11char_traitsIcEENS_9allocatorIcEEEENS_14default_deleteIS6_EEED1Ev(%"class.std::__1::unique_ptr.23"* %this) unnamed_addr #5 align 2 {
entry:
  %this.addr__ZNSt3__110unique_ptrINS_12basic_stringIcNS_11char_traitsIcEENS_9allocatorIcEEEENS_14default_deleteIS6_EEED1Ev = alloca %"class.std::__1::unique_ptr.23"*, align 8
  store %"class.std::__1::unique_ptr.23"* %this, %"class.std::__1::unique_ptr.23"** %this.addr__ZNSt3__110unique_ptrINS_12basic_stringIcNS_11char_traitsIcEENS_9allocatorIcEEEENS_14default_deleteIS6_EEED1Ev, align 8
  %this1__ZNSt3__110unique_ptrINS_12basic_stringIcNS_11char_traitsIcEENS_9allocatorIcEEEENS_14default_deleteIS6_EEED1Ev = load %"class.std::__1::unique_ptr.23"*, %"class.std::__1::unique_ptr.23"** %this.addr__ZNSt3__110unique_ptrINS_12basic_stringIcNS_11char_traitsIcEENS_9allocatorIcEEEENS_14default_deleteIS6_EEED1Ev, align 8
  call void @_ZNSt3__110unique_ptrINS_12basic_stringIcNS_11char_traitsIcEENS_9allocatorIcEEEENS_14default_deleteIS6_EEED2Ev(%"class.std::__1::unique_ptr.23"* %this1__ZNSt3__110unique_ptrINS_12basic_stringIcNS_11char_traitsIcEENS_9allocatorIcEEEENS_14default_deleteIS6_EEED1Ev) #15
  ret void
}

; Function Attrs: noinline nounwind optnone ssp uwtable
define internal void @_ZNSt3__110unique_ptrINS_12basic_stringIcNS_11char_traitsIcEENS_9allocatorIcEEEENS_14default_deleteIS6_EEED2Ev(%"class.std::__1::unique_ptr.23"* %this) unnamed_addr #5 align 2 {
entry:
  %this.addr__ZNSt3__110unique_ptrINS_12basic_stringIcNS_11char_traitsIcEENS_9allocatorIcEEEENS_14default_deleteIS6_EEED2Ev = alloca %"class.std::__1::unique_ptr.23"*, align 8
  store %"class.std::__1::unique_ptr.23"* %this, %"class.std::__1::unique_ptr.23"** %this.addr__ZNSt3__110unique_ptrINS_12basic_stringIcNS_11char_traitsIcEENS_9allocatorIcEEEENS_14default_deleteIS6_EEED2Ev, align 8
  %this1__ZNSt3__110unique_ptrINS_12basic_stringIcNS_11char_traitsIcEENS_9allocatorIcEEEENS_14default_deleteIS6_EEED2Ev = load %"class.std::__1::unique_ptr.23"*, %"class.std::__1::unique_ptr.23"** %this.addr__ZNSt3__110unique_ptrINS_12basic_stringIcNS_11char_traitsIcEENS_9allocatorIcEEEENS_14default_deleteIS6_EEED2Ev, align 8
  call void @_ZNSt3__110unique_ptrINS_12basic_stringIcNS_11char_traitsIcEENS_9allocatorIcEEEENS_14default_deleteIS6_EEE5resetEPS6_(%"class.std::__1::unique_ptr.23"* %this1__ZNSt3__110unique_ptrINS_12basic_stringIcNS_11char_traitsIcEENS_9allocatorIcEEEENS_14default_deleteIS6_EEED2Ev, %"class.std::__1::basic_string"* null) #15
  ret void
}

; Function Attrs: noinline nounwind optnone ssp uwtable
define internal void @_ZNSt3__110unique_ptrINS_12basic_stringIcNS_11char_traitsIcEENS_9allocatorIcEEEENS_14default_deleteIS6_EEE5resetEPS6_(%"class.std::__1::unique_ptr.23"* %this, %"class.std::__1::basic_string"* %__p) #5 align 2 {
entry:
  %this.addr__ZNSt3__110unique_ptrINS_12basic_stringIcNS_11char_traitsIcEENS_9allocatorIcEEEENS_14default_deleteIS6_EEE5resetEPS6_ = alloca %"class.std::__1::unique_ptr.23"*, align 8
  %__p.addr__ZNSt3__110unique_ptrINS_12basic_stringIcNS_11char_traitsIcEENS_9allocatorIcEEEENS_14default_deleteIS6_EEE5resetEPS6_ = alloca %"class.std::__1::basic_string"*, align 8
  %__tmp__ZNSt3__110unique_ptrINS_12basic_stringIcNS_11char_traitsIcEENS_9allocatorIcEEEENS_14default_deleteIS6_EEE5resetEPS6_ = alloca %"class.std::__1::basic_string"*, align 8
  store %"class.std::__1::unique_ptr.23"* %this, %"class.std::__1::unique_ptr.23"** %this.addr__ZNSt3__110unique_ptrINS_12basic_stringIcNS_11char_traitsIcEENS_9allocatorIcEEEENS_14default_deleteIS6_EEE5resetEPS6_, align 8
  store %"class.std::__1::basic_string"* %__p, %"class.std::__1::basic_string"** %__p.addr__ZNSt3__110unique_ptrINS_12basic_stringIcNS_11char_traitsIcEENS_9allocatorIcEEEENS_14default_deleteIS6_EEE5resetEPS6_, align 8
  %this1__ZNSt3__110unique_ptrINS_12basic_stringIcNS_11char_traitsIcEENS_9allocatorIcEEEENS_14default_deleteIS6_EEE5resetEPS6_ = load %"class.std::__1::unique_ptr.23"*, %"class.std::__1::unique_ptr.23"** %this.addr__ZNSt3__110unique_ptrINS_12basic_stringIcNS_11char_traitsIcEENS_9allocatorIcEEEENS_14default_deleteIS6_EEE5resetEPS6_, align 8
  %__ptr___ZNSt3__110unique_ptrINS_12basic_stringIcNS_11char_traitsIcEENS_9allocatorIcEEEENS_14default_deleteIS6_EEE5resetEPS6_ = getelementptr inbounds %"class.std::__1::unique_ptr.23", %"class.std::__1::unique_ptr.23"* %this1__ZNSt3__110unique_ptrINS_12basic_stringIcNS_11char_traitsIcEENS_9allocatorIcEEEENS_14default_deleteIS6_EEE5resetEPS6_, i32 0, i32 0
  %call__ZNSt3__110unique_ptrINS_12basic_stringIcNS_11char_traitsIcEENS_9allocatorIcEEEENS_14default_deleteIS6_EEE5resetEPS6_ = call dereferenceable(8) %"class.std::__1::basic_string"** @_ZNSt3__117__compressed_pairIPNS_12basic_stringIcNS_11char_traitsIcEENS_9allocatorIcEEEENS_14default_deleteIS6_EEE5firstEv(%"class.std::__1::__compressed_pair.24"* %__ptr___ZNSt3__110unique_ptrINS_12basic_stringIcNS_11char_traitsIcEENS_9allocatorIcEEEENS_14default_deleteIS6_EEE5resetEPS6_) #15
  %tmp__ZNSt3__110unique_ptrINS_12basic_stringIcNS_11char_traitsIcEENS_9allocatorIcEEEENS_14default_deleteIS6_EEE5resetEPS6_ = load %"class.std::__1::basic_string"*, %"class.std::__1::basic_string"** %call__ZNSt3__110unique_ptrINS_12basic_stringIcNS_11char_traitsIcEENS_9allocatorIcEEEENS_14default_deleteIS6_EEE5resetEPS6_, align 8
  store %"class.std::__1::basic_string"* %tmp__ZNSt3__110unique_ptrINS_12basic_stringIcNS_11char_traitsIcEENS_9allocatorIcEEEENS_14default_deleteIS6_EEE5resetEPS6_, %"class.std::__1::basic_string"** %__tmp__ZNSt3__110unique_ptrINS_12basic_stringIcNS_11char_traitsIcEENS_9allocatorIcEEEENS_14default_deleteIS6_EEE5resetEPS6_, align 8
  %tmp__ZNSt3__110unique_ptrINS_12basic_stringIcNS_11char_traitsIcEENS_9allocatorIcEEEENS_14default_deleteIS6_EEE5resetEPS6_1 = load %"class.std::__1::basic_string"*, %"class.std::__1::basic_string"** %__p.addr__ZNSt3__110unique_ptrINS_12basic_stringIcNS_11char_traitsIcEENS_9allocatorIcEEEENS_14default_deleteIS6_EEE5resetEPS6_, align 8
  %__ptr_2__ZNSt3__110unique_ptrINS_12basic_stringIcNS_11char_traitsIcEENS_9allocatorIcEEEENS_14default_deleteIS6_EEE5resetEPS6_ = getelementptr inbounds %"class.std::__1::unique_ptr.23", %"class.std::__1::unique_ptr.23"* %this1__ZNSt3__110unique_ptrINS_12basic_stringIcNS_11char_traitsIcEENS_9allocatorIcEEEENS_14default_deleteIS6_EEE5resetEPS6_, i32 0, i32 0
  %call3__ZNSt3__110unique_ptrINS_12basic_stringIcNS_11char_traitsIcEENS_9allocatorIcEEEENS_14default_deleteIS6_EEE5resetEPS6_ = call dereferenceable(8) %"class.std::__1::basic_string"** @_ZNSt3__117__compressed_pairIPNS_12basic_stringIcNS_11char_traitsIcEENS_9allocatorIcEEEENS_14default_deleteIS6_EEE5firstEv(%"class.std::__1::__compressed_pair.24"* %__ptr_2__ZNSt3__110unique_ptrINS_12basic_stringIcNS_11char_traitsIcEENS_9allocatorIcEEEENS_14default_deleteIS6_EEE5resetEPS6_) #15
  store %"class.std::__1::basic_string"* %tmp__ZNSt3__110unique_ptrINS_12basic_stringIcNS_11char_traitsIcEENS_9allocatorIcEEEENS_14default_deleteIS6_EEE5resetEPS6_1, %"class.std::__1::basic_string"** %call3__ZNSt3__110unique_ptrINS_12basic_stringIcNS_11char_traitsIcEENS_9allocatorIcEEEENS_14default_deleteIS6_EEE5resetEPS6_, align 8
  %tmp__ZNSt3__110unique_ptrINS_12basic_stringIcNS_11char_traitsIcEENS_9allocatorIcEEEENS_14default_deleteIS6_EEE5resetEPS6_2 = load %"class.std::__1::basic_string"*, %"class.std::__1::basic_string"** %__tmp__ZNSt3__110unique_ptrINS_12basic_stringIcNS_11char_traitsIcEENS_9allocatorIcEEEENS_14default_deleteIS6_EEE5resetEPS6_, align 8
  %tobool__ZNSt3__110unique_ptrINS_12basic_stringIcNS_11char_traitsIcEENS_9allocatorIcEEEENS_14default_deleteIS6_EEE5resetEPS6_ = icmp ne %"class.std::__1::basic_string"* %tmp__ZNSt3__110unique_ptrINS_12basic_stringIcNS_11char_traitsIcEENS_9allocatorIcEEEENS_14default_deleteIS6_EEE5resetEPS6_2, null
  br i1 %tobool__ZNSt3__110unique_ptrINS_12basic_stringIcNS_11char_traitsIcEENS_9allocatorIcEEEENS_14default_deleteIS6_EEE5resetEPS6_, label %if.then, label %if.end

if.then:                                          ; preds = %entry
  %__ptr_4__ZNSt3__110unique_ptrINS_12basic_stringIcNS_11char_traitsIcEENS_9allocatorIcEEEENS_14default_deleteIS6_EEE5resetEPS6_ = getelementptr inbounds %"class.std::__1::unique_ptr.23", %"class.std::__1::unique_ptr.23"* %this1__ZNSt3__110unique_ptrINS_12basic_stringIcNS_11char_traitsIcEENS_9allocatorIcEEEENS_14default_deleteIS6_EEE5resetEPS6_, i32 0, i32 0
  %call5__ZNSt3__110unique_ptrINS_12basic_stringIcNS_11char_traitsIcEENS_9allocatorIcEEEENS_14default_deleteIS6_EEE5resetEPS6_ = call dereferenceable(1) %"struct.std::__1::default_delete.27"* @_ZNSt3__117__compressed_pairIPNS_12basic_stringIcNS_11char_traitsIcEENS_9allocatorIcEEEENS_14default_deleteIS6_EEE6secondEv(%"class.std::__1::__compressed_pair.24"* %__ptr_4__ZNSt3__110unique_ptrINS_12basic_stringIcNS_11char_traitsIcEENS_9allocatorIcEEEENS_14default_deleteIS6_EEE5resetEPS6_) #15
  %tmp__ZNSt3__110unique_ptrINS_12basic_stringIcNS_11char_traitsIcEENS_9allocatorIcEEEENS_14default_deleteIS6_EEE5resetEPS6_3 = load %"class.std::__1::basic_string"*, %"class.std::__1::basic_string"** %__tmp__ZNSt3__110unique_ptrINS_12basic_stringIcNS_11char_traitsIcEENS_9allocatorIcEEEENS_14default_deleteIS6_EEE5resetEPS6_, align 8
  call void @_ZNKSt3__114default_deleteINS_12basic_stringIcNS_11char_traitsIcEENS_9allocatorIcEEEEEclEPS6_(%"struct.std::__1::default_delete.27"* %call5__ZNSt3__110unique_ptrINS_12basic_stringIcNS_11char_traitsIcEENS_9allocatorIcEEEENS_14default_deleteIS6_EEE5resetEPS6_, %"class.std::__1::basic_string"* %tmp__ZNSt3__110unique_ptrINS_12basic_stringIcNS_11char_traitsIcEENS_9allocatorIcEEEENS_14default_deleteIS6_EEE5resetEPS6_3) #15
  br label %if.end

if.end:                                           ; preds = %if.then, %entry
  ret void
}

; Function Attrs: noinline nounwind optnone ssp uwtable
define internal dereferenceable(8) %"class.std::__1::basic_string"** @_ZNSt3__117__compressed_pairIPNS_12basic_stringIcNS_11char_traitsIcEENS_9allocatorIcEEEENS_14default_deleteIS6_EEE5firstEv(%"class.std::__1::__compressed_pair.24"* %this) #5 align 2 {
entry:
  %this.addr__ZNSt3__117__compressed_pairIPNS_12basic_stringIcNS_11char_traitsIcEENS_9allocatorIcEEEENS_14default_deleteIS6_EEE5firstEv = alloca %"class.std::__1::__compressed_pair.24"*, align 8
  store %"class.std::__1::__compressed_pair.24"* %this, %"class.std::__1::__compressed_pair.24"** %this.addr__ZNSt3__117__compressed_pairIPNS_12basic_stringIcNS_11char_traitsIcEENS_9allocatorIcEEEENS_14default_deleteIS6_EEE5firstEv, align 8
  %this1__ZNSt3__117__compressed_pairIPNS_12basic_stringIcNS_11char_traitsIcEENS_9allocatorIcEEEENS_14default_deleteIS6_EEE5firstEv = load %"class.std::__1::__compressed_pair.24"*, %"class.std::__1::__compressed_pair.24"** %this.addr__ZNSt3__117__compressed_pairIPNS_12basic_stringIcNS_11char_traitsIcEENS_9allocatorIcEEEENS_14default_deleteIS6_EEE5firstEv, align 8
  %tmp__ZNSt3__117__compressed_pairIPNS_12basic_stringIcNS_11char_traitsIcEENS_9allocatorIcEEEENS_14default_deleteIS6_EEE5firstEv = bitcast %"class.std::__1::__compressed_pair.24"* %this1__ZNSt3__117__compressed_pairIPNS_12basic_stringIcNS_11char_traitsIcEENS_9allocatorIcEEEENS_14default_deleteIS6_EEE5firstEv to %"struct.std::__1::__compressed_pair_elem.25"*
  %call__ZNSt3__117__compressed_pairIPNS_12basic_stringIcNS_11char_traitsIcEENS_9allocatorIcEEEENS_14default_deleteIS6_EEE5firstEv = call dereferenceable(8) %"class.std::__1::basic_string"** @_ZNSt3__122__compressed_pair_elemIPNS_12basic_stringIcNS_11char_traitsIcEENS_9allocatorIcEEEELi0ELb0EE5__getEv(%"struct.std::__1::__compressed_pair_elem.25"* %tmp__ZNSt3__117__compressed_pairIPNS_12basic_stringIcNS_11char_traitsIcEENS_9allocatorIcEEEENS_14default_deleteIS6_EEE5firstEv) #15
  ret %"class.std::__1::basic_string"** %call__ZNSt3__117__compressed_pairIPNS_12basic_stringIcNS_11char_traitsIcEENS_9allocatorIcEEEENS_14default_deleteIS6_EEE5firstEv
}

; Function Attrs: noinline nounwind optnone ssp uwtable
define internal dereferenceable(1) %"struct.std::__1::default_delete.27"* @_ZNSt3__117__compressed_pairIPNS_12basic_stringIcNS_11char_traitsIcEENS_9allocatorIcEEEENS_14default_deleteIS6_EEE6secondEv(%"class.std::__1::__compressed_pair.24"* %this) #5 align 2 {
entry:
  %this.addr__ZNSt3__117__compressed_pairIPNS_12basic_stringIcNS_11char_traitsIcEENS_9allocatorIcEEEENS_14default_deleteIS6_EEE6secondEv = alloca %"class.std::__1::__compressed_pair.24"*, align 8
  store %"class.std::__1::__compressed_pair.24"* %this, %"class.std::__1::__compressed_pair.24"** %this.addr__ZNSt3__117__compressed_pairIPNS_12basic_stringIcNS_11char_traitsIcEENS_9allocatorIcEEEENS_14default_deleteIS6_EEE6secondEv, align 8
  %this1__ZNSt3__117__compressed_pairIPNS_12basic_stringIcNS_11char_traitsIcEENS_9allocatorIcEEEENS_14default_deleteIS6_EEE6secondEv = load %"class.std::__1::__compressed_pair.24"*, %"class.std::__1::__compressed_pair.24"** %this.addr__ZNSt3__117__compressed_pairIPNS_12basic_stringIcNS_11char_traitsIcEENS_9allocatorIcEEEENS_14default_deleteIS6_EEE6secondEv, align 8
  %tmp__ZNSt3__117__compressed_pairIPNS_12basic_stringIcNS_11char_traitsIcEENS_9allocatorIcEEEENS_14default_deleteIS6_EEE6secondEv = bitcast %"class.std::__1::__compressed_pair.24"* %this1__ZNSt3__117__compressed_pairIPNS_12basic_stringIcNS_11char_traitsIcEENS_9allocatorIcEEEENS_14default_deleteIS6_EEE6secondEv to %"struct.std::__1::__compressed_pair_elem.26"*
  %call__ZNSt3__117__compressed_pairIPNS_12basic_stringIcNS_11char_traitsIcEENS_9allocatorIcEEEENS_14default_deleteIS6_EEE6secondEv = call dereferenceable(1) %"struct.std::__1::default_delete.27"* @_ZNSt3__122__compressed_pair_elemINS_14default_deleteINS_12basic_stringIcNS_11char_traitsIcEENS_9allocatorIcEEEEEELi1ELb1EE5__getEv(%"struct.std::__1::__compressed_pair_elem.26"* %tmp__ZNSt3__117__compressed_pairIPNS_12basic_stringIcNS_11char_traitsIcEENS_9allocatorIcEEEENS_14default_deleteIS6_EEE6secondEv) #15
  ret %"struct.std::__1::default_delete.27"* %call__ZNSt3__117__compressed_pairIPNS_12basic_stringIcNS_11char_traitsIcEENS_9allocatorIcEEEENS_14default_deleteIS6_EEE6secondEv
}

; Function Attrs: noinline nounwind optnone ssp uwtable
define internal void @_ZNKSt3__114default_deleteINS_12basic_stringIcNS_11char_traitsIcEENS_9allocatorIcEEEEEclEPS6_(%"struct.std::__1::default_delete.27"* %this, %"class.std::__1::basic_string"* %__ptr) #5 align 2 {
entry:
  %this.addr__ZNKSt3__114default_deleteINS_12basic_stringIcNS_11char_traitsIcEENS_9allocatorIcEEEEEclEPS6_ = alloca %"struct.std::__1::default_delete.27"*, align 8
  %__ptr.addr__ZNKSt3__114default_deleteINS_12basic_stringIcNS_11char_traitsIcEENS_9allocatorIcEEEEEclEPS6_ = alloca %"class.std::__1::basic_string"*, align 8
  store %"struct.std::__1::default_delete.27"* %this, %"struct.std::__1::default_delete.27"** %this.addr__ZNKSt3__114default_deleteINS_12basic_stringIcNS_11char_traitsIcEENS_9allocatorIcEEEEEclEPS6_, align 8
  store %"class.std::__1::basic_string"* %__ptr, %"class.std::__1::basic_string"** %__ptr.addr__ZNKSt3__114default_deleteINS_12basic_stringIcNS_11char_traitsIcEENS_9allocatorIcEEEEEclEPS6_, align 8
  %this1__ZNKSt3__114default_deleteINS_12basic_stringIcNS_11char_traitsIcEENS_9allocatorIcEEEEEclEPS6_ = load %"struct.std::__1::default_delete.27"*, %"struct.std::__1::default_delete.27"** %this.addr__ZNKSt3__114default_deleteINS_12basic_stringIcNS_11char_traitsIcEENS_9allocatorIcEEEEEclEPS6_, align 8
  %tmp__ZNKSt3__114default_deleteINS_12basic_stringIcNS_11char_traitsIcEENS_9allocatorIcEEEEEclEPS6_ = load %"class.std::__1::basic_string"*, %"class.std::__1::basic_string"** %__ptr.addr__ZNKSt3__114default_deleteINS_12basic_stringIcNS_11char_traitsIcEENS_9allocatorIcEEEEEclEPS6_, align 8
  %isnull__ZNKSt3__114default_deleteINS_12basic_stringIcNS_11char_traitsIcEENS_9allocatorIcEEEEEclEPS6_ = icmp eq %"class.std::__1::basic_string"* %tmp__ZNKSt3__114default_deleteINS_12basic_stringIcNS_11char_traitsIcEENS_9allocatorIcEEEEEclEPS6_, null
  br i1 %isnull__ZNKSt3__114default_deleteINS_12basic_stringIcNS_11char_traitsIcEENS_9allocatorIcEEEEEclEPS6_, label %delete.end, label %delete.notnull

delete.notnull:                                   ; preds = %entry
  call void @_ZNSt3__112basic_stringIcNS_11char_traitsIcEENS_9allocatorIcEEED1Ev(%"class.std::__1::basic_string"* %tmp__ZNKSt3__114default_deleteINS_12basic_stringIcNS_11char_traitsIcEENS_9allocatorIcEEEEEclEPS6_) #15
  %tmp__ZNKSt3__114default_deleteINS_12basic_stringIcNS_11char_traitsIcEENS_9allocatorIcEEEEEclEPS6_1 = bitcast %"class.std::__1::basic_string"* %tmp__ZNKSt3__114default_deleteINS_12basic_stringIcNS_11char_traitsIcEENS_9allocatorIcEEEEEclEPS6_ to i8*
  call void @_ZdlPv(i8* %tmp__ZNKSt3__114default_deleteINS_12basic_stringIcNS_11char_traitsIcEENS_9allocatorIcEEEEEclEPS6_1) #16
  br label %delete.end

delete.end:                                       ; preds = %delete.notnull, %entry
  ret void
}

; Function Attrs: noinline nounwind optnone ssp uwtable
define internal dereferenceable(8) %"class.std::__1::basic_string"** @_ZNSt3__122__compressed_pair_elemIPNS_12basic_stringIcNS_11char_traitsIcEENS_9allocatorIcEEEELi0ELb0EE5__getEv(%"struct.std::__1::__compressed_pair_elem.25"* %this) #5 align 2 {
entry:
  %this.addr__ZNSt3__122__compressed_pair_elemIPNS_12basic_stringIcNS_11char_traitsIcEENS_9allocatorIcEEEELi0ELb0EE5__getEv = alloca %"struct.std::__1::__compressed_pair_elem.25"*, align 8
  store %"struct.std::__1::__compressed_pair_elem.25"* %this, %"struct.std::__1::__compressed_pair_elem.25"** %this.addr__ZNSt3__122__compressed_pair_elemIPNS_12basic_stringIcNS_11char_traitsIcEENS_9allocatorIcEEEELi0ELb0EE5__getEv, align 8
  %this1__ZNSt3__122__compressed_pair_elemIPNS_12basic_stringIcNS_11char_traitsIcEENS_9allocatorIcEEEELi0ELb0EE5__getEv = load %"struct.std::__1::__compressed_pair_elem.25"*, %"struct.std::__1::__compressed_pair_elem.25"** %this.addr__ZNSt3__122__compressed_pair_elemIPNS_12basic_stringIcNS_11char_traitsIcEENS_9allocatorIcEEEELi0ELb0EE5__getEv, align 8
  %__value___ZNSt3__122__compressed_pair_elemIPNS_12basic_stringIcNS_11char_traitsIcEENS_9allocatorIcEEEELi0ELb0EE5__getEv = getelementptr inbounds %"struct.std::__1::__compressed_pair_elem.25", %"struct.std::__1::__compressed_pair_elem.25"* %this1__ZNSt3__122__compressed_pair_elemIPNS_12basic_stringIcNS_11char_traitsIcEENS_9allocatorIcEEEELi0ELb0EE5__getEv, i32 0, i32 0
  ret %"class.std::__1::basic_string"** %__value___ZNSt3__122__compressed_pair_elemIPNS_12basic_stringIcNS_11char_traitsIcEENS_9allocatorIcEEEELi0ELb0EE5__getEv
}

; Function Attrs: noinline nounwind optnone ssp uwtable
define internal dereferenceable(1) %"struct.std::__1::default_delete.27"* @_ZNSt3__122__compressed_pair_elemINS_14default_deleteINS_12basic_stringIcNS_11char_traitsIcEENS_9allocatorIcEEEEEELi1ELb1EE5__getEv(%"struct.std::__1::__compressed_pair_elem.26"* %this) #5 align 2 {
entry:
  %this.addr__ZNSt3__122__compressed_pair_elemINS_14default_deleteINS_12basic_stringIcNS_11char_traitsIcEENS_9allocatorIcEEEEEELi1ELb1EE5__getEv = alloca %"struct.std::__1::__compressed_pair_elem.26"*, align 8
  store %"struct.std::__1::__compressed_pair_elem.26"* %this, %"struct.std::__1::__compressed_pair_elem.26"** %this.addr__ZNSt3__122__compressed_pair_elemINS_14default_deleteINS_12basic_stringIcNS_11char_traitsIcEENS_9allocatorIcEEEEEELi1ELb1EE5__getEv, align 8
  %this1__ZNSt3__122__compressed_pair_elemINS_14default_deleteINS_12basic_stringIcNS_11char_traitsIcEENS_9allocatorIcEEEEEELi1ELb1EE5__getEv = load %"struct.std::__1::__compressed_pair_elem.26"*, %"struct.std::__1::__compressed_pair_elem.26"** %this.addr__ZNSt3__122__compressed_pair_elemINS_14default_deleteINS_12basic_stringIcNS_11char_traitsIcEENS_9allocatorIcEEEEEELi1ELb1EE5__getEv, align 8
  %tmp__ZNSt3__122__compressed_pair_elemINS_14default_deleteINS_12basic_stringIcNS_11char_traitsIcEENS_9allocatorIcEEEEEELi1ELb1EE5__getEv = bitcast %"struct.std::__1::__compressed_pair_elem.26"* %this1__ZNSt3__122__compressed_pair_elemINS_14default_deleteINS_12basic_stringIcNS_11char_traitsIcEENS_9allocatorIcEEEEEELi1ELb1EE5__getEv to %"struct.std::__1::default_delete.27"*
  ret %"struct.std::__1::default_delete.27"* %tmp__ZNSt3__122__compressed_pair_elemINS_14default_deleteINS_12basic_stringIcNS_11char_traitsIcEENS_9allocatorIcEEEEEELi1ELb1EE5__getEv
}

declare %"class.testing::UnitTest"* @_ZN7testing8UnitTest11GetInstanceEv() #1

declare i32 @_ZN7testing8UnitTest3RunEv(%"class.testing::UnitTest"*) #1

; Function Attrs: noinline nounwind optnone ssp uwtable
define linkonce_odr void @_ZN14foo_test1_TestD2Ev(%class.foo_test1_Test* %this) unnamed_addr #5 align 2 {
entry:
  %this.addr__ZN14foo_test1_TestD2Ev = alloca %class.foo_test1_Test*, align 8
  store %class.foo_test1_Test* %this, %class.foo_test1_Test** %this.addr__ZN14foo_test1_TestD2Ev, align 8
  %this1__ZN14foo_test1_TestD2Ev = load %class.foo_test1_Test*, %class.foo_test1_Test** %this.addr__ZN14foo_test1_TestD2Ev, align 8
  %tmp__ZN14foo_test1_TestD2Ev = bitcast %class.foo_test1_Test* %this1__ZN14foo_test1_TestD2Ev to %"class.testing::Test"*
  call void @_ZN7testing4TestD2Ev(%"class.testing::Test"* %tmp__ZN14foo_test1_TestD2Ev) #15
  ret void
}

; Function Attrs: nounwind
declare void @_ZN7testing4TestD2Ev(%"class.testing::Test"*) unnamed_addr #6

; Function Attrs: noinline optnone ssp uwtable
define internal void @_ZNSt3__112basic_stringIcNS_11char_traitsIcEENS_9allocatorIcEEEC2IDnEEPKc(%"class.std::__1::basic_string"* %this, i8* %__s) unnamed_addr #2 align 2 {
entry:
  %this.addr__ZNSt3__112basic_stringIcNS_11char_traitsIcEENS_9allocatorIcEEEC2IDnEEPKc = alloca %"class.std::__1::basic_string"*, align 8
  %__s.addr__ZNSt3__112basic_stringIcNS_11char_traitsIcEENS_9allocatorIcEEEC2IDnEEPKc = alloca i8*, align 8
  store %"class.std::__1::basic_string"* %this, %"class.std::__1::basic_string"** %this.addr__ZNSt3__112basic_stringIcNS_11char_traitsIcEENS_9allocatorIcEEEC2IDnEEPKc, align 8
  store i8* %__s, i8** %__s.addr__ZNSt3__112basic_stringIcNS_11char_traitsIcEENS_9allocatorIcEEEC2IDnEEPKc, align 8
  %this1__ZNSt3__112basic_stringIcNS_11char_traitsIcEENS_9allocatorIcEEEC2IDnEEPKc = load %"class.std::__1::basic_string"*, %"class.std::__1::basic_string"** %this.addr__ZNSt3__112basic_stringIcNS_11char_traitsIcEENS_9allocatorIcEEEC2IDnEEPKc, align 8
  %tmp__ZNSt3__112basic_stringIcNS_11char_traitsIcEENS_9allocatorIcEEEC2IDnEEPKc = bitcast %"class.std::__1::basic_string"* %this1__ZNSt3__112basic_stringIcNS_11char_traitsIcEENS_9allocatorIcEEEC2IDnEEPKc to %"class.std::__1::__basic_string_common"*
  %__r___ZNSt3__112basic_stringIcNS_11char_traitsIcEENS_9allocatorIcEEEC2IDnEEPKc = getelementptr inbounds %"class.std::__1::basic_string", %"class.std::__1::basic_string"* %this1__ZNSt3__112basic_stringIcNS_11char_traitsIcEENS_9allocatorIcEEEC2IDnEEPKc, i32 0, i32 0
  call void @_ZNSt3__117__compressed_pairINS_12basic_stringIcNS_11char_traitsIcEENS_9allocatorIcEEE5__repES5_EC1ILb1EvEEv(%"class.std::__1::__compressed_pair"* %__r___ZNSt3__112basic_stringIcNS_11char_traitsIcEENS_9allocatorIcEEEC2IDnEEPKc)
  %tmp__ZNSt3__112basic_stringIcNS_11char_traitsIcEENS_9allocatorIcEEEC2IDnEEPKc1 = load i8*, i8** %__s.addr__ZNSt3__112basic_stringIcNS_11char_traitsIcEENS_9allocatorIcEEEC2IDnEEPKc, align 8
  %tmp__ZNSt3__112basic_stringIcNS_11char_traitsIcEENS_9allocatorIcEEEC2IDnEEPKc2 = load i8*, i8** %__s.addr__ZNSt3__112basic_stringIcNS_11char_traitsIcEENS_9allocatorIcEEEC2IDnEEPKc, align 8
  %call__ZNSt3__112basic_stringIcNS_11char_traitsIcEENS_9allocatorIcEEEC2IDnEEPKc = call i64 @_ZNSt3__111char_traitsIcE6lengthEPKc(i8* %tmp__ZNSt3__112basic_stringIcNS_11char_traitsIcEENS_9allocatorIcEEEC2IDnEEPKc2) #15
  call void @_ZNSt3__112basic_stringIcNS_11char_traitsIcEENS_9allocatorIcEEE6__initEPKcm(%"class.std::__1::basic_string"* %this1__ZNSt3__112basic_stringIcNS_11char_traitsIcEENS_9allocatorIcEEEC2IDnEEPKc, i8* %tmp__ZNSt3__112basic_stringIcNS_11char_traitsIcEENS_9allocatorIcEEEC2IDnEEPKc1, i64 %call__ZNSt3__112basic_stringIcNS_11char_traitsIcEENS_9allocatorIcEEEC2IDnEEPKc)
  ret void
}

; Function Attrs: noinline optnone ssp uwtable
define internal void @_ZNSt3__117__compressed_pairINS_12basic_stringIcNS_11char_traitsIcEENS_9allocatorIcEEE5__repES5_EC1ILb1EvEEv(%"class.std::__1::__compressed_pair"* %this) unnamed_addr #2 align 2 {
entry:
  %this.addr__ZNSt3__117__compressed_pairINS_12basic_stringIcNS_11char_traitsIcEENS_9allocatorIcEEE5__repES5_EC1ILb1EvEEv = alloca %"class.std::__1::__compressed_pair"*, align 8
  store %"class.std::__1::__compressed_pair"* %this, %"class.std::__1::__compressed_pair"** %this.addr__ZNSt3__117__compressed_pairINS_12basic_stringIcNS_11char_traitsIcEENS_9allocatorIcEEE5__repES5_EC1ILb1EvEEv, align 8
  %this1__ZNSt3__117__compressed_pairINS_12basic_stringIcNS_11char_traitsIcEENS_9allocatorIcEEE5__repES5_EC1ILb1EvEEv = load %"class.std::__1::__compressed_pair"*, %"class.std::__1::__compressed_pair"** %this.addr__ZNSt3__117__compressed_pairINS_12basic_stringIcNS_11char_traitsIcEENS_9allocatorIcEEE5__repES5_EC1ILb1EvEEv, align 8
  call void @_ZNSt3__117__compressed_pairINS_12basic_stringIcNS_11char_traitsIcEENS_9allocatorIcEEE5__repES5_EC2ILb1EvEEv(%"class.std::__1::__compressed_pair"* %this1__ZNSt3__117__compressed_pairINS_12basic_stringIcNS_11char_traitsIcEENS_9allocatorIcEEE5__repES5_EC1ILb1EvEEv)
  ret void
}

declare void @_ZNSt3__112basic_stringIcNS_11char_traitsIcEENS_9allocatorIcEEE6__initEPKcm(%"class.std::__1::basic_string"*, i8*, i64) #1

; Function Attrs: noinline nounwind optnone ssp uwtable
define linkonce_odr i64 @_ZNSt3__111char_traitsIcE6lengthEPKc(i8* %__s) #5 align 2 {
entry:
  %__s.addr__ZNSt3__111char_traitsIcE6lengthEPKc = alloca i8*, align 8
  store i8* %__s, i8** %__s.addr__ZNSt3__111char_traitsIcE6lengthEPKc, align 8
  %tmp__ZNSt3__111char_traitsIcE6lengthEPKc = load i8*, i8** %__s.addr__ZNSt3__111char_traitsIcE6lengthEPKc, align 8
  %call__ZNSt3__111char_traitsIcE6lengthEPKc = call i64 @strlen(i8* %tmp__ZNSt3__111char_traitsIcE6lengthEPKc) #15
  ret i64 %call__ZNSt3__111char_traitsIcE6lengthEPKc
}

; Function Attrs: noinline optnone ssp uwtable
define internal void @_ZNSt3__117__compressed_pairINS_12basic_stringIcNS_11char_traitsIcEENS_9allocatorIcEEE5__repES5_EC2ILb1EvEEv(%"class.std::__1::__compressed_pair"* %this) unnamed_addr #2 align 2 {
entry:
  %this.addr__ZNSt3__117__compressed_pairINS_12basic_stringIcNS_11char_traitsIcEENS_9allocatorIcEEE5__repES5_EC2ILb1EvEEv = alloca %"class.std::__1::__compressed_pair"*, align 8
  store %"class.std::__1::__compressed_pair"* %this, %"class.std::__1::__compressed_pair"** %this.addr__ZNSt3__117__compressed_pairINS_12basic_stringIcNS_11char_traitsIcEENS_9allocatorIcEEE5__repES5_EC2ILb1EvEEv, align 8
  %this1__ZNSt3__117__compressed_pairINS_12basic_stringIcNS_11char_traitsIcEENS_9allocatorIcEEE5__repES5_EC2ILb1EvEEv = load %"class.std::__1::__compressed_pair"*, %"class.std::__1::__compressed_pair"** %this.addr__ZNSt3__117__compressed_pairINS_12basic_stringIcNS_11char_traitsIcEENS_9allocatorIcEEE5__repES5_EC2ILb1EvEEv, align 8
  %tmp__ZNSt3__117__compressed_pairINS_12basic_stringIcNS_11char_traitsIcEENS_9allocatorIcEEE5__repES5_EC2ILb1EvEEv = bitcast %"class.std::__1::__compressed_pair"* %this1__ZNSt3__117__compressed_pairINS_12basic_stringIcNS_11char_traitsIcEENS_9allocatorIcEEE5__repES5_EC2ILb1EvEEv to %"struct.std::__1::__compressed_pair_elem"*
  call void @_ZNSt3__122__compressed_pair_elemINS_12basic_stringIcNS_11char_traitsIcEENS_9allocatorIcEEE5__repELi0ELb0EEC2Ev(%"struct.std::__1::__compressed_pair_elem"* %tmp__ZNSt3__117__compressed_pairINS_12basic_stringIcNS_11char_traitsIcEENS_9allocatorIcEEE5__repES5_EC2ILb1EvEEv)
  %tmp__ZNSt3__117__compressed_pairINS_12basic_stringIcNS_11char_traitsIcEENS_9allocatorIcEEE5__repES5_EC2ILb1EvEEv1 = bitcast %"class.std::__1::__compressed_pair"* %this1__ZNSt3__117__compressed_pairINS_12basic_stringIcNS_11char_traitsIcEENS_9allocatorIcEEE5__repES5_EC2ILb1EvEEv to %"struct.std::__1::__compressed_pair_elem.1"*
  call void @_ZNSt3__122__compressed_pair_elemINS_9allocatorIcEELi1ELb1EEC2Ev(%"struct.std::__1::__compressed_pair_elem.1"* %tmp__ZNSt3__117__compressed_pairINS_12basic_stringIcNS_11char_traitsIcEENS_9allocatorIcEEE5__repES5_EC2ILb1EvEEv1) #15
  ret void
}

; Function Attrs: noinline nounwind optnone ssp uwtable
define internal void @_ZNSt3__122__compressed_pair_elemINS_12basic_stringIcNS_11char_traitsIcEENS_9allocatorIcEEE5__repELi0ELb0EEC2Ev(%"struct.std::__1::__compressed_pair_elem"* %this) unnamed_addr #5 align 2 {
entry:
  %this.addr__ZNSt3__122__compressed_pair_elemINS_12basic_stringIcNS_11char_traitsIcEENS_9allocatorIcEEE5__repELi0ELb0EEC2Ev = alloca %"struct.std::__1::__compressed_pair_elem"*, align 8
  store %"struct.std::__1::__compressed_pair_elem"* %this, %"struct.std::__1::__compressed_pair_elem"** %this.addr__ZNSt3__122__compressed_pair_elemINS_12basic_stringIcNS_11char_traitsIcEENS_9allocatorIcEEE5__repELi0ELb0EEC2Ev, align 8
  %this1__ZNSt3__122__compressed_pair_elemINS_12basic_stringIcNS_11char_traitsIcEENS_9allocatorIcEEE5__repELi0ELb0EEC2Ev = load %"struct.std::__1::__compressed_pair_elem"*, %"struct.std::__1::__compressed_pair_elem"** %this.addr__ZNSt3__122__compressed_pair_elemINS_12basic_stringIcNS_11char_traitsIcEENS_9allocatorIcEEE5__repELi0ELb0EEC2Ev, align 8
  %__value___ZNSt3__122__compressed_pair_elemINS_12basic_stringIcNS_11char_traitsIcEENS_9allocatorIcEEE5__repELi0ELb0EEC2Ev = getelementptr inbounds %"struct.std::__1::__compressed_pair_elem", %"struct.std::__1::__compressed_pair_elem"* %this1__ZNSt3__122__compressed_pair_elemINS_12basic_stringIcNS_11char_traitsIcEENS_9allocatorIcEEE5__repELi0ELb0EEC2Ev, i32 0, i32 0
  %tmp__ZNSt3__122__compressed_pair_elemINS_12basic_stringIcNS_11char_traitsIcEENS_9allocatorIcEEE5__repELi0ELb0EEC2Ev = bitcast %"struct.std::__1::basic_string<char, std::__1::char_traits<char>, std::__1::allocator<char> >::__rep"* %__value___ZNSt3__122__compressed_pair_elemINS_12basic_stringIcNS_11char_traitsIcEENS_9allocatorIcEEE5__repELi0ELb0EEC2Ev to i8*
  call void @llvm.memset.p0i8.i64(i8* align 8 %tmp__ZNSt3__122__compressed_pair_elemINS_12basic_stringIcNS_11char_traitsIcEENS_9allocatorIcEEE5__repELi0ELb0EEC2Ev, i8 0, i64 24, i1 false)
  ret void
}

; Function Attrs: noinline nounwind optnone ssp uwtable
define internal void @_ZNSt3__122__compressed_pair_elemINS_9allocatorIcEELi1ELb1EEC2Ev(%"struct.std::__1::__compressed_pair_elem.1"* %this) unnamed_addr #5 align 2 {
entry:
  %this.addr__ZNSt3__122__compressed_pair_elemINS_9allocatorIcEELi1ELb1EEC2Ev = alloca %"struct.std::__1::__compressed_pair_elem.1"*, align 8
  store %"struct.std::__1::__compressed_pair_elem.1"* %this, %"struct.std::__1::__compressed_pair_elem.1"** %this.addr__ZNSt3__122__compressed_pair_elemINS_9allocatorIcEELi1ELb1EEC2Ev, align 8
  %this1__ZNSt3__122__compressed_pair_elemINS_9allocatorIcEELi1ELb1EEC2Ev = load %"struct.std::__1::__compressed_pair_elem.1"*, %"struct.std::__1::__compressed_pair_elem.1"** %this.addr__ZNSt3__122__compressed_pair_elemINS_9allocatorIcEELi1ELb1EEC2Ev, align 8
  %tmp__ZNSt3__122__compressed_pair_elemINS_9allocatorIcEELi1ELb1EEC2Ev = bitcast %"struct.std::__1::__compressed_pair_elem.1"* %this1__ZNSt3__122__compressed_pair_elemINS_9allocatorIcEELi1ELb1EEC2Ev to %"class.std::__1::allocator"*
  call void @_ZNSt3__19allocatorIcEC2Ev(%"class.std::__1::allocator"* %tmp__ZNSt3__122__compressed_pair_elemINS_9allocatorIcEELi1ELb1EEC2Ev) #15
  ret void
}

; Function Attrs: argmemonly nounwind willreturn writeonly
declare void @llvm.memset.p0i8.i64(i8* nocapture writeonly, i8, i64, i1 immarg) #9

; Function Attrs: noinline nounwind optnone ssp uwtable
define internal void @_ZNSt3__19allocatorIcEC2Ev(%"class.std::__1::allocator"* %this) unnamed_addr #5 align 2 {
entry:
  %this.addr__ZNSt3__19allocatorIcEC2Ev = alloca %"class.std::__1::allocator"*, align 8
  store %"class.std::__1::allocator"* %this, %"class.std::__1::allocator"** %this.addr__ZNSt3__19allocatorIcEC2Ev, align 8
  %this1__ZNSt3__19allocatorIcEC2Ev = load %"class.std::__1::allocator"*, %"class.std::__1::allocator"** %this.addr__ZNSt3__19allocatorIcEC2Ev, align 8
  ret void
}

; Function Attrs: nounwind
declare i64 @strlen(i8*) #6

; Function Attrs: noinline nounwind optnone ssp uwtable
define linkonce_odr void ()* @_ZN7testing8internal19GetNotDefaultOrNullEPFvvES2_(void ()* %a, void ()* %def) #5 {
entry:
  %a.addr__ZN7testing8internal19GetNotDefaultOrNullEPFvvES2_ = alloca void ()*, align 8
  %def.addr__ZN7testing8internal19GetNotDefaultOrNullEPFvvES2_ = alloca void ()*, align 8
  store void ()* %a, void ()** %a.addr__ZN7testing8internal19GetNotDefaultOrNullEPFvvES2_, align 8
  store void ()* %def, void ()** %def.addr__ZN7testing8internal19GetNotDefaultOrNullEPFvvES2_, align 8
  %tmp__ZN7testing8internal19GetNotDefaultOrNullEPFvvES2_ = load void ()*, void ()** %a.addr__ZN7testing8internal19GetNotDefaultOrNullEPFvvES2_, align 8
  %tmp__ZN7testing8internal19GetNotDefaultOrNullEPFvvES2_1 = load void ()*, void ()** %def.addr__ZN7testing8internal19GetNotDefaultOrNullEPFvvES2_, align 8
  %cmp__ZN7testing8internal19GetNotDefaultOrNullEPFvvES2_ = icmp eq void ()* %tmp__ZN7testing8internal19GetNotDefaultOrNullEPFvvES2_, %tmp__ZN7testing8internal19GetNotDefaultOrNullEPFvvES2_1
  br i1 %cmp__ZN7testing8internal19GetNotDefaultOrNullEPFvvES2_, label %cond.true, label %cond.false

cond.true:                                        ; preds = %entry
  br label %cond.end

cond.false:                                       ; preds = %entry
  %tmp__ZN7testing8internal19GetNotDefaultOrNullEPFvvES2_2 = load void ()*, void ()** %a.addr__ZN7testing8internal19GetNotDefaultOrNullEPFvvES2_, align 8
  br label %cond.end

cond.end:                                         ; preds = %cond.false, %cond.true
  %cond__ZN7testing8internal19GetNotDefaultOrNullEPFvvES2_ = phi void ()* [ null, %cond.true ], [ %tmp__ZN7testing8internal19GetNotDefaultOrNullEPFvvES2_2, %cond.false ]
  ret void ()* %cond__ZN7testing8internal19GetNotDefaultOrNullEPFvvES2_
}

; Function Attrs: noinline nounwind optnone ssp uwtable
define linkonce_odr void @_ZN7testing4Test13SetUpTestCaseEv() #5 align 2 {
entry:
  ret void
}

; Function Attrs: noinline nounwind optnone ssp uwtable
define linkonce_odr void @_ZN7testing4Test14SetUpTestSuiteEv() #5 align 2 {
entry:
  ret void
}

declare zeroext i1 @_ZN7testing8internal6IsTrueEb(i1 zeroext) #1

; Function Attrs: noinline optnone ssp uwtable
define linkonce_odr dereferenceable(160) %"class.std::__1::basic_ostream"* @_ZNSt3__1lsINS_11char_traitsIcEEEERNS_13basic_ostreamIcT_EES6_PKc(%"class.std::__1::basic_ostream"* dereferenceable(160) %__os, i8* %__str) #2 {
entry:
  %__os.addr__ZNSt3__1lsINS_11char_traitsIcEEEERNS_13basic_ostreamIcT_EES6_PKc = alloca %"class.std::__1::basic_ostream"*, align 8
  %__str.addr__ZNSt3__1lsINS_11char_traitsIcEEEERNS_13basic_ostreamIcT_EES6_PKc = alloca i8*, align 8
  store %"class.std::__1::basic_ostream"* %__os, %"class.std::__1::basic_ostream"** %__os.addr__ZNSt3__1lsINS_11char_traitsIcEEEERNS_13basic_ostreamIcT_EES6_PKc, align 8
  store i8* %__str, i8** %__str.addr__ZNSt3__1lsINS_11char_traitsIcEEEERNS_13basic_ostreamIcT_EES6_PKc, align 8
  %tmp__ZNSt3__1lsINS_11char_traitsIcEEEERNS_13basic_ostreamIcT_EES6_PKc = load %"class.std::__1::basic_ostream"*, %"class.std::__1::basic_ostream"** %__os.addr__ZNSt3__1lsINS_11char_traitsIcEEEERNS_13basic_ostreamIcT_EES6_PKc, align 8
  %tmp__ZNSt3__1lsINS_11char_traitsIcEEEERNS_13basic_ostreamIcT_EES6_PKc1 = load i8*, i8** %__str.addr__ZNSt3__1lsINS_11char_traitsIcEEEERNS_13basic_ostreamIcT_EES6_PKc, align 8
  %tmp__ZNSt3__1lsINS_11char_traitsIcEEEERNS_13basic_ostreamIcT_EES6_PKc2 = load i8*, i8** %__str.addr__ZNSt3__1lsINS_11char_traitsIcEEEERNS_13basic_ostreamIcT_EES6_PKc, align 8
  %call__ZNSt3__1lsINS_11char_traitsIcEEEERNS_13basic_ostreamIcT_EES6_PKc = call i64 @_ZNSt3__111char_traitsIcE6lengthEPKc(i8* %tmp__ZNSt3__1lsINS_11char_traitsIcEEEERNS_13basic_ostreamIcT_EES6_PKc2) #15
  %call1__ZNSt3__1lsINS_11char_traitsIcEEEERNS_13basic_ostreamIcT_EES6_PKc = call dereferenceable(160) %"class.std::__1::basic_ostream"* @_ZNSt3__124__put_character_sequenceIcNS_11char_traitsIcEEEERNS_13basic_ostreamIT_T0_EES7_PKS4_m(%"class.std::__1::basic_ostream"* dereferenceable(160) %tmp__ZNSt3__1lsINS_11char_traitsIcEEEERNS_13basic_ostreamIcT_EES6_PKc, i8* %tmp__ZNSt3__1lsINS_11char_traitsIcEEEERNS_13basic_ostreamIcT_EES6_PKc1, i64 %call__ZNSt3__1lsINS_11char_traitsIcEEEERNS_13basic_ostreamIcT_EES6_PKc)
  ret %"class.std::__1::basic_ostream"* %call1__ZNSt3__1lsINS_11char_traitsIcEEEERNS_13basic_ostreamIcT_EES6_PKc
}

declare void @_ZN7testing8internal8GTestLogC1ENS0_16GTestLogSeverityEPKci(%"class.testing::internal::GTestLog"*, i32, i8*, i32) unnamed_addr #1

; Function Attrs: noinline nounwind optnone ssp uwtable
define linkonce_odr dereferenceable(160) %"class.std::__1::basic_ostream"* @_ZN7testing8internal8GTestLog9GetStreamEv(%"class.testing::internal::GTestLog"* %this) #5 align 2 {
entry:
  %this.addr__ZN7testing8internal8GTestLog9GetStreamEv = alloca %"class.testing::internal::GTestLog"*, align 8
  store %"class.testing::internal::GTestLog"* %this, %"class.testing::internal::GTestLog"** %this.addr__ZN7testing8internal8GTestLog9GetStreamEv, align 8
  %this1__ZN7testing8internal8GTestLog9GetStreamEv = load %"class.testing::internal::GTestLog"*, %"class.testing::internal::GTestLog"** %this.addr__ZN7testing8internal8GTestLog9GetStreamEv, align 8
  ret %"class.std::__1::basic_ostream"* @_ZNSt3__14cerrE
}

declare dereferenceable(160) %"class.std::__1::basic_ostream"* @_ZNSt3__113basic_ostreamIcNS_11char_traitsIcEEElsEi(%"class.std::__1::basic_ostream"*, i32) #1

; Function Attrs: nounwind
declare void @_ZN7testing8internal8GTestLogD1Ev(%"class.testing::internal::GTestLog"*) unnamed_addr #6

; Function Attrs: noinline optnone ssp uwtable
define linkonce_odr dereferenceable(160) %"class.std::__1::basic_ostream"* @_ZNSt3__124__put_character_sequenceIcNS_11char_traitsIcEEEERNS_13basic_ostreamIT_T0_EES7_PKS4_m(%"class.std::__1::basic_ostream"* dereferenceable(160) %__os, i8* %__str, i64 %__len) #2 personality i8* bitcast (i32 (...)* @__gxx_personality_v0 to i8*) {
entry:
  %__os.addr__ZNSt3__124__put_character_sequenceIcNS_11char_traitsIcEEEERNS_13basic_ostreamIT_T0_EES7_PKS4_m = alloca %"class.std::__1::basic_ostream"*, align 8
  %__str.addr__ZNSt3__124__put_character_sequenceIcNS_11char_traitsIcEEEERNS_13basic_ostreamIT_T0_EES7_PKS4_m = alloca i8*, align 8
  %__len.addr__ZNSt3__124__put_character_sequenceIcNS_11char_traitsIcEEEERNS_13basic_ostreamIT_T0_EES7_PKS4_m = alloca i64, align 8
  %__s__ZNSt3__124__put_character_sequenceIcNS_11char_traitsIcEEEERNS_13basic_ostreamIT_T0_EES7_PKS4_m = alloca %"class.std::__1::basic_ostream<char, std::__1::char_traits<char> >::sentry", align 8
  %exn.slot__ZNSt3__124__put_character_sequenceIcNS_11char_traitsIcEEEERNS_13basic_ostreamIT_T0_EES7_PKS4_m = alloca i8*
  %ehselector.slot__ZNSt3__124__put_character_sequenceIcNS_11char_traitsIcEEEERNS_13basic_ostreamIT_T0_EES7_PKS4_m = alloca i32
  %ref.tmp__ZNSt3__124__put_character_sequenceIcNS_11char_traitsIcEEEERNS_13basic_ostreamIT_T0_EES7_PKS4_m = alloca %"class.std::__1::ostreambuf_iterator", align 8
  %agg.tmp__ZNSt3__124__put_character_sequenceIcNS_11char_traitsIcEEEERNS_13basic_ostreamIT_T0_EES7_PKS4_m = alloca %"class.std::__1::ostreambuf_iterator", align 8
  store %"class.std::__1::basic_ostream"* %__os, %"class.std::__1::basic_ostream"** %__os.addr__ZNSt3__124__put_character_sequenceIcNS_11char_traitsIcEEEERNS_13basic_ostreamIT_T0_EES7_PKS4_m, align 8
  store i8* %__str, i8** %__str.addr__ZNSt3__124__put_character_sequenceIcNS_11char_traitsIcEEEERNS_13basic_ostreamIT_T0_EES7_PKS4_m, align 8
  store i64 %__len, i64* %__len.addr__ZNSt3__124__put_character_sequenceIcNS_11char_traitsIcEEEERNS_13basic_ostreamIT_T0_EES7_PKS4_m, align 8
  %tmp__ZNSt3__124__put_character_sequenceIcNS_11char_traitsIcEEEERNS_13basic_ostreamIT_T0_EES7_PKS4_m = load %"class.std::__1::basic_ostream"*, %"class.std::__1::basic_ostream"** %__os.addr__ZNSt3__124__put_character_sequenceIcNS_11char_traitsIcEEEERNS_13basic_ostreamIT_T0_EES7_PKS4_m, align 8
  invoke void @_ZNSt3__113basic_ostreamIcNS_11char_traitsIcEEE6sentryC1ERS3_(%"class.std::__1::basic_ostream<char, std::__1::char_traits<char> >::sentry"* %__s__ZNSt3__124__put_character_sequenceIcNS_11char_traitsIcEEEERNS_13basic_ostreamIT_T0_EES7_PKS4_m, %"class.std::__1::basic_ostream"* dereferenceable(160) %tmp__ZNSt3__124__put_character_sequenceIcNS_11char_traitsIcEEEERNS_13basic_ostreamIT_T0_EES7_PKS4_m)
          to label %invoke.cont unwind label %lpad

invoke.cont:                                      ; preds = %entry
  %call__ZNSt3__124__put_character_sequenceIcNS_11char_traitsIcEEEERNS_13basic_ostreamIT_T0_EES7_PKS4_m = invoke zeroext i1 @_ZNKSt3__113basic_ostreamIcNS_11char_traitsIcEEE6sentrycvbEv(%"class.std::__1::basic_ostream<char, std::__1::char_traits<char> >::sentry"* %__s__ZNSt3__124__put_character_sequenceIcNS_11char_traitsIcEEEERNS_13basic_ostreamIT_T0_EES7_PKS4_m)
          to label %invoke.cont2 unwind label %lpad1

invoke.cont2:                                     ; preds = %invoke.cont
  br i1 %call__ZNSt3__124__put_character_sequenceIcNS_11char_traitsIcEEEERNS_13basic_ostreamIT_T0_EES7_PKS4_m, label %if.then, label %if.end27

if.then:                                          ; preds = %invoke.cont2
  %tmp__ZNSt3__124__put_character_sequenceIcNS_11char_traitsIcEEEERNS_13basic_ostreamIT_T0_EES7_PKS4_m1 = load %"class.std::__1::basic_ostream"*, %"class.std::__1::basic_ostream"** %__os.addr__ZNSt3__124__put_character_sequenceIcNS_11char_traitsIcEEEERNS_13basic_ostreamIT_T0_EES7_PKS4_m, align 8
  call void @_ZNSt3__119ostreambuf_iteratorIcNS_11char_traitsIcEEEC1ERNS_13basic_ostreamIcS2_EE(%"class.std::__1::ostreambuf_iterator"* %agg.tmp__ZNSt3__124__put_character_sequenceIcNS_11char_traitsIcEEEERNS_13basic_ostreamIT_T0_EES7_PKS4_m, %"class.std::__1::basic_ostream"* dereferenceable(160) %tmp__ZNSt3__124__put_character_sequenceIcNS_11char_traitsIcEEEERNS_13basic_ostreamIT_T0_EES7_PKS4_m1) #15
  %tmp__ZNSt3__124__put_character_sequenceIcNS_11char_traitsIcEEEERNS_13basic_ostreamIT_T0_EES7_PKS4_m2 = load i8*, i8** %__str.addr__ZNSt3__124__put_character_sequenceIcNS_11char_traitsIcEEEERNS_13basic_ostreamIT_T0_EES7_PKS4_m, align 8
  %tmp__ZNSt3__124__put_character_sequenceIcNS_11char_traitsIcEEEERNS_13basic_ostreamIT_T0_EES7_PKS4_m3 = load %"class.std::__1::basic_ostream"*, %"class.std::__1::basic_ostream"** %__os.addr__ZNSt3__124__put_character_sequenceIcNS_11char_traitsIcEEEERNS_13basic_ostreamIT_T0_EES7_PKS4_m, align 8
  %tmp__ZNSt3__124__put_character_sequenceIcNS_11char_traitsIcEEEERNS_13basic_ostreamIT_T0_EES7_PKS4_m4 = bitcast %"class.std::__1::basic_ostream"* %tmp__ZNSt3__124__put_character_sequenceIcNS_11char_traitsIcEEEERNS_13basic_ostreamIT_T0_EES7_PKS4_m3 to i8**
  %vtable__ZNSt3__124__put_character_sequenceIcNS_11char_traitsIcEEEERNS_13basic_ostreamIT_T0_EES7_PKS4_m = load i8*, i8** %tmp__ZNSt3__124__put_character_sequenceIcNS_11char_traitsIcEEEERNS_13basic_ostreamIT_T0_EES7_PKS4_m4, align 8
  %vbase.offset.ptr__ZNSt3__124__put_character_sequenceIcNS_11char_traitsIcEEEERNS_13basic_ostreamIT_T0_EES7_PKS4_m = getelementptr i8, i8* %vtable__ZNSt3__124__put_character_sequenceIcNS_11char_traitsIcEEEERNS_13basic_ostreamIT_T0_EES7_PKS4_m, i64 -24
  %tmp__ZNSt3__124__put_character_sequenceIcNS_11char_traitsIcEEEERNS_13basic_ostreamIT_T0_EES7_PKS4_m5 = bitcast i8* %vbase.offset.ptr__ZNSt3__124__put_character_sequenceIcNS_11char_traitsIcEEEERNS_13basic_ostreamIT_T0_EES7_PKS4_m to i64*
  %vbase.offset__ZNSt3__124__put_character_sequenceIcNS_11char_traitsIcEEEERNS_13basic_ostreamIT_T0_EES7_PKS4_m = load i64, i64* %tmp__ZNSt3__124__put_character_sequenceIcNS_11char_traitsIcEEEERNS_13basic_ostreamIT_T0_EES7_PKS4_m5, align 8
  %tmp__ZNSt3__124__put_character_sequenceIcNS_11char_traitsIcEEEERNS_13basic_ostreamIT_T0_EES7_PKS4_m6 = bitcast %"class.std::__1::basic_ostream"* %tmp__ZNSt3__124__put_character_sequenceIcNS_11char_traitsIcEEEERNS_13basic_ostreamIT_T0_EES7_PKS4_m3 to i8*
  %add.ptr__ZNSt3__124__put_character_sequenceIcNS_11char_traitsIcEEEERNS_13basic_ostreamIT_T0_EES7_PKS4_m = getelementptr inbounds i8, i8* %tmp__ZNSt3__124__put_character_sequenceIcNS_11char_traitsIcEEEERNS_13basic_ostreamIT_T0_EES7_PKS4_m6, i64 %vbase.offset__ZNSt3__124__put_character_sequenceIcNS_11char_traitsIcEEEERNS_13basic_ostreamIT_T0_EES7_PKS4_m
  %tmp__ZNSt3__124__put_character_sequenceIcNS_11char_traitsIcEEEERNS_13basic_ostreamIT_T0_EES7_PKS4_m7 = bitcast i8* %add.ptr__ZNSt3__124__put_character_sequenceIcNS_11char_traitsIcEEEERNS_13basic_ostreamIT_T0_EES7_PKS4_m to %"class.std::__1::ios_base"*
  %call4__ZNSt3__124__put_character_sequenceIcNS_11char_traitsIcEEEERNS_13basic_ostreamIT_T0_EES7_PKS4_m = invoke i32 @_ZNKSt3__18ios_base5flagsEv(%"class.std::__1::ios_base"* %tmp__ZNSt3__124__put_character_sequenceIcNS_11char_traitsIcEEEERNS_13basic_ostreamIT_T0_EES7_PKS4_m7)
          to label %invoke.cont3 unwind label %lpad1

invoke.cont3:                                     ; preds = %if.then
  %and__ZNSt3__124__put_character_sequenceIcNS_11char_traitsIcEEEERNS_13basic_ostreamIT_T0_EES7_PKS4_m = and i32 %call4__ZNSt3__124__put_character_sequenceIcNS_11char_traitsIcEEEERNS_13basic_ostreamIT_T0_EES7_PKS4_m, 176
  %cmp__ZNSt3__124__put_character_sequenceIcNS_11char_traitsIcEEEERNS_13basic_ostreamIT_T0_EES7_PKS4_m = icmp eq i32 %and__ZNSt3__124__put_character_sequenceIcNS_11char_traitsIcEEEERNS_13basic_ostreamIT_T0_EES7_PKS4_m, 32
  br i1 %cmp__ZNSt3__124__put_character_sequenceIcNS_11char_traitsIcEEEERNS_13basic_ostreamIT_T0_EES7_PKS4_m, label %cond.true, label %cond.false

cond.true:                                        ; preds = %invoke.cont3
  %tmp__ZNSt3__124__put_character_sequenceIcNS_11char_traitsIcEEEERNS_13basic_ostreamIT_T0_EES7_PKS4_m8 = load i8*, i8** %__str.addr__ZNSt3__124__put_character_sequenceIcNS_11char_traitsIcEEEERNS_13basic_ostreamIT_T0_EES7_PKS4_m, align 8
  %tmp__ZNSt3__124__put_character_sequenceIcNS_11char_traitsIcEEEERNS_13basic_ostreamIT_T0_EES7_PKS4_m9 = load i64, i64* %__len.addr__ZNSt3__124__put_character_sequenceIcNS_11char_traitsIcEEEERNS_13basic_ostreamIT_T0_EES7_PKS4_m, align 8
  %add.ptr5__ZNSt3__124__put_character_sequenceIcNS_11char_traitsIcEEEERNS_13basic_ostreamIT_T0_EES7_PKS4_m = getelementptr inbounds i8, i8* %tmp__ZNSt3__124__put_character_sequenceIcNS_11char_traitsIcEEEERNS_13basic_ostreamIT_T0_EES7_PKS4_m8, i64 %tmp__ZNSt3__124__put_character_sequenceIcNS_11char_traitsIcEEEERNS_13basic_ostreamIT_T0_EES7_PKS4_m9
  br label %cond.end

cond.false:                                       ; preds = %invoke.cont3
  %tmp__ZNSt3__124__put_character_sequenceIcNS_11char_traitsIcEEEERNS_13basic_ostreamIT_T0_EES7_PKS4_m10 = load i8*, i8** %__str.addr__ZNSt3__124__put_character_sequenceIcNS_11char_traitsIcEEEERNS_13basic_ostreamIT_T0_EES7_PKS4_m, align 8
  br label %cond.end

cond.end:                                         ; preds = %cond.false, %cond.true
  %cond__ZNSt3__124__put_character_sequenceIcNS_11char_traitsIcEEEERNS_13basic_ostreamIT_T0_EES7_PKS4_m = phi i8* [ %add.ptr5__ZNSt3__124__put_character_sequenceIcNS_11char_traitsIcEEEERNS_13basic_ostreamIT_T0_EES7_PKS4_m, %cond.true ], [ %tmp__ZNSt3__124__put_character_sequenceIcNS_11char_traitsIcEEEERNS_13basic_ostreamIT_T0_EES7_PKS4_m10, %cond.false ]
  %tmp__ZNSt3__124__put_character_sequenceIcNS_11char_traitsIcEEEERNS_13basic_ostreamIT_T0_EES7_PKS4_m11 = load i8*, i8** %__str.addr__ZNSt3__124__put_character_sequenceIcNS_11char_traitsIcEEEERNS_13basic_ostreamIT_T0_EES7_PKS4_m, align 8
  %tmp__ZNSt3__124__put_character_sequenceIcNS_11char_traitsIcEEEERNS_13basic_ostreamIT_T0_EES7_PKS4_m12 = load i64, i64* %__len.addr__ZNSt3__124__put_character_sequenceIcNS_11char_traitsIcEEEERNS_13basic_ostreamIT_T0_EES7_PKS4_m, align 8
  %add.ptr6__ZNSt3__124__put_character_sequenceIcNS_11char_traitsIcEEEERNS_13basic_ostreamIT_T0_EES7_PKS4_m = getelementptr inbounds i8, i8* %tmp__ZNSt3__124__put_character_sequenceIcNS_11char_traitsIcEEEERNS_13basic_ostreamIT_T0_EES7_PKS4_m11, i64 %tmp__ZNSt3__124__put_character_sequenceIcNS_11char_traitsIcEEEERNS_13basic_ostreamIT_T0_EES7_PKS4_m12
  %tmp__ZNSt3__124__put_character_sequenceIcNS_11char_traitsIcEEEERNS_13basic_ostreamIT_T0_EES7_PKS4_m13 = load %"class.std::__1::basic_ostream"*, %"class.std::__1::basic_ostream"** %__os.addr__ZNSt3__124__put_character_sequenceIcNS_11char_traitsIcEEEERNS_13basic_ostreamIT_T0_EES7_PKS4_m, align 8
  %tmp__ZNSt3__124__put_character_sequenceIcNS_11char_traitsIcEEEERNS_13basic_ostreamIT_T0_EES7_PKS4_m14 = bitcast %"class.std::__1::basic_ostream"* %tmp__ZNSt3__124__put_character_sequenceIcNS_11char_traitsIcEEEERNS_13basic_ostreamIT_T0_EES7_PKS4_m13 to i8**
  %vtable7__ZNSt3__124__put_character_sequenceIcNS_11char_traitsIcEEEERNS_13basic_ostreamIT_T0_EES7_PKS4_m = load i8*, i8** %tmp__ZNSt3__124__put_character_sequenceIcNS_11char_traitsIcEEEERNS_13basic_ostreamIT_T0_EES7_PKS4_m14, align 8
  %vbase.offset.ptr8__ZNSt3__124__put_character_sequenceIcNS_11char_traitsIcEEEERNS_13basic_ostreamIT_T0_EES7_PKS4_m = getelementptr i8, i8* %vtable7__ZNSt3__124__put_character_sequenceIcNS_11char_traitsIcEEEERNS_13basic_ostreamIT_T0_EES7_PKS4_m, i64 -24
  %tmp__ZNSt3__124__put_character_sequenceIcNS_11char_traitsIcEEEERNS_13basic_ostreamIT_T0_EES7_PKS4_m15 = bitcast i8* %vbase.offset.ptr8__ZNSt3__124__put_character_sequenceIcNS_11char_traitsIcEEEERNS_13basic_ostreamIT_T0_EES7_PKS4_m to i64*
  %vbase.offset9__ZNSt3__124__put_character_sequenceIcNS_11char_traitsIcEEEERNS_13basic_ostreamIT_T0_EES7_PKS4_m = load i64, i64* %tmp__ZNSt3__124__put_character_sequenceIcNS_11char_traitsIcEEEERNS_13basic_ostreamIT_T0_EES7_PKS4_m15, align 8
  %tmp__ZNSt3__124__put_character_sequenceIcNS_11char_traitsIcEEEERNS_13basic_ostreamIT_T0_EES7_PKS4_m16 = bitcast %"class.std::__1::basic_ostream"* %tmp__ZNSt3__124__put_character_sequenceIcNS_11char_traitsIcEEEERNS_13basic_ostreamIT_T0_EES7_PKS4_m13 to i8*
  %add.ptr10__ZNSt3__124__put_character_sequenceIcNS_11char_traitsIcEEEERNS_13basic_ostreamIT_T0_EES7_PKS4_m = getelementptr inbounds i8, i8* %tmp__ZNSt3__124__put_character_sequenceIcNS_11char_traitsIcEEEERNS_13basic_ostreamIT_T0_EES7_PKS4_m16, i64 %vbase.offset9__ZNSt3__124__put_character_sequenceIcNS_11char_traitsIcEEEERNS_13basic_ostreamIT_T0_EES7_PKS4_m
  %tmp__ZNSt3__124__put_character_sequenceIcNS_11char_traitsIcEEEERNS_13basic_ostreamIT_T0_EES7_PKS4_m17 = bitcast i8* %add.ptr10__ZNSt3__124__put_character_sequenceIcNS_11char_traitsIcEEEERNS_13basic_ostreamIT_T0_EES7_PKS4_m to %"class.std::__1::ios_base"*
  %tmp__ZNSt3__124__put_character_sequenceIcNS_11char_traitsIcEEEERNS_13basic_ostreamIT_T0_EES7_PKS4_m18 = load %"class.std::__1::basic_ostream"*, %"class.std::__1::basic_ostream"** %__os.addr__ZNSt3__124__put_character_sequenceIcNS_11char_traitsIcEEEERNS_13basic_ostreamIT_T0_EES7_PKS4_m, align 8
  %tmp__ZNSt3__124__put_character_sequenceIcNS_11char_traitsIcEEEERNS_13basic_ostreamIT_T0_EES7_PKS4_m19 = bitcast %"class.std::__1::basic_ostream"* %tmp__ZNSt3__124__put_character_sequenceIcNS_11char_traitsIcEEEERNS_13basic_ostreamIT_T0_EES7_PKS4_m18 to i8**
  %vtable11__ZNSt3__124__put_character_sequenceIcNS_11char_traitsIcEEEERNS_13basic_ostreamIT_T0_EES7_PKS4_m = load i8*, i8** %tmp__ZNSt3__124__put_character_sequenceIcNS_11char_traitsIcEEEERNS_13basic_ostreamIT_T0_EES7_PKS4_m19, align 8
  %vbase.offset.ptr12__ZNSt3__124__put_character_sequenceIcNS_11char_traitsIcEEEERNS_13basic_ostreamIT_T0_EES7_PKS4_m = getelementptr i8, i8* %vtable11__ZNSt3__124__put_character_sequenceIcNS_11char_traitsIcEEEERNS_13basic_ostreamIT_T0_EES7_PKS4_m, i64 -24
  %tmp__ZNSt3__124__put_character_sequenceIcNS_11char_traitsIcEEEERNS_13basic_ostreamIT_T0_EES7_PKS4_m20 = bitcast i8* %vbase.offset.ptr12__ZNSt3__124__put_character_sequenceIcNS_11char_traitsIcEEEERNS_13basic_ostreamIT_T0_EES7_PKS4_m to i64*
  %vbase.offset13__ZNSt3__124__put_character_sequenceIcNS_11char_traitsIcEEEERNS_13basic_ostreamIT_T0_EES7_PKS4_m = load i64, i64* %tmp__ZNSt3__124__put_character_sequenceIcNS_11char_traitsIcEEEERNS_13basic_ostreamIT_T0_EES7_PKS4_m20, align 8
  %tmp__ZNSt3__124__put_character_sequenceIcNS_11char_traitsIcEEEERNS_13basic_ostreamIT_T0_EES7_PKS4_m21 = bitcast %"class.std::__1::basic_ostream"* %tmp__ZNSt3__124__put_character_sequenceIcNS_11char_traitsIcEEEERNS_13basic_ostreamIT_T0_EES7_PKS4_m18 to i8*
  %add.ptr14__ZNSt3__124__put_character_sequenceIcNS_11char_traitsIcEEEERNS_13basic_ostreamIT_T0_EES7_PKS4_m = getelementptr inbounds i8, i8* %tmp__ZNSt3__124__put_character_sequenceIcNS_11char_traitsIcEEEERNS_13basic_ostreamIT_T0_EES7_PKS4_m21, i64 %vbase.offset13__ZNSt3__124__put_character_sequenceIcNS_11char_traitsIcEEEERNS_13basic_ostreamIT_T0_EES7_PKS4_m
  %tmp__ZNSt3__124__put_character_sequenceIcNS_11char_traitsIcEEEERNS_13basic_ostreamIT_T0_EES7_PKS4_m22 = bitcast i8* %add.ptr14__ZNSt3__124__put_character_sequenceIcNS_11char_traitsIcEEEERNS_13basic_ostreamIT_T0_EES7_PKS4_m to %"class.std::__1::basic_ios"*
  %call16__ZNSt3__124__put_character_sequenceIcNS_11char_traitsIcEEEERNS_13basic_ostreamIT_T0_EES7_PKS4_m = invoke signext i8 @_ZNKSt3__19basic_iosIcNS_11char_traitsIcEEE4fillEv(%"class.std::__1::basic_ios"* %tmp__ZNSt3__124__put_character_sequenceIcNS_11char_traitsIcEEEERNS_13basic_ostreamIT_T0_EES7_PKS4_m22)
          to label %invoke.cont15 unwind label %lpad1

